Archive member included because of file (symbol)

libosal_rtems_rastaleon2.a(osapi.o)
                              /home/aitor/workspace/rasta-sw/osal-repo/trunk/samples/misc/soclient.o (OS_Init)
libosal_rtems_rastaleon2.a(osmut.o)
                              libosal_rtems_rastaleon2.a(osapi.o) (OS_MutSemInit)
libosal_rtems_rastaleon2.a(ostask.o)
                              libosal_rtems_rastaleon2.a(osapi.o) (__os_errno_addr)
libosal_rtems_rastaleon2.a(rtems-config.o)
                              /opt/rtems-4.8/sparc-rtems/leon2/lib/start.o (Configuration)
libosal_rtems_rastaleon2.a(osstats.o)
                              libosal_rtems_rastaleon2.a(osapi.o) (osal_stats_print)
/opt/libbackport/lib/libbackport_leon2-4.10-4.8.a(ambapp_bus_leon2.o)
                              libosal_rtems_rastaleon2.a(rtems-config.o) (ambapp_leon2_register)
/opt/libbackport/lib/libbackport_leon2-4.10-4.8.a(ambapp_bus.o)
                              /opt/libbackport/lib/libbackport_leon2-4.10-4.8.a(ambapp_bus_leon2.o) (ambapp_bus_init2)
/opt/libbackport/lib/libbackport_leon2-4.10-4.8.a(ambapp_names.o)
                              /opt/libbackport/lib/libbackport_leon2-4.10-4.8.a(ambapp_bus.o) (ambapp_device_id2str)
/opt/libbackport/lib/libbackport_leon2-4.10-4.8.a(at697_pci.o)
                              libosal_rtems_rastaleon2.a(rtems-config.o) (at697pci_register_drv)
/opt/libbackport/lib/libbackport_leon2-4.10-4.8.a(b1553brm.o)
                              libosal_rtems_rastaleon2.a(rtems-config.o) (b1553brm_register_drv)
/opt/libbackport/lib/libbackport_leon2-4.10-4.8.a(drvmgr_drvinf.o)
                              /opt/libbackport/lib/libbackport_leon2-4.10-4.8.a(b1553brm.o) (rtems_drvmgr_get_dev)
/opt/libbackport/lib/libbackport_leon2-4.10-4.8.a(drvmgr.o)
                              /opt/libbackport/lib/libbackport_leon2-4.10-4.8.a(ambapp_bus.o) (rtems_drvmgr_bus_res_add)
/opt/libbackport/lib/libbackport_leon2-4.10-4.8.a(drvmgr_print.o)
                              libosal_rtems_rastaleon2.a(rtems-config.o) (rtems_drvmgr_print_drvs)
/opt/libbackport/lib/libbackport_leon2-4.10-4.8.a(drvmgr_res.o)
                              /opt/libbackport/lib/libbackport_leon2-4.10-4.8.a(drvmgr.o) (rtems_drvmgr_keys_get)
/opt/libbackport/lib/libbackport_leon2-4.10-4.8.a(gr_701.o)
                              libosal_rtems_rastaleon2.a(rtems-config.o) (gr701_register_drv)
/opt/libbackport/lib/libbackport_leon2-4.10-4.8.a(grcan.o)
                              libosal_rtems_rastaleon2.a(rtems-config.o) (grcan_register_drv)
/opt/libbackport/lib/libbackport_leon2-4.10-4.8.a(grpci.o)
                              libosal_rtems_rastaleon2.a(rtems-config.o) (grpci_register_drv)
/opt/libbackport/lib/libbackport_leon2-4.10-4.8.a(gr_rasta_adcdac.o)
                              libosal_rtems_rastaleon2.a(rtems-config.o) (gr_rasta_adcdac_register_drv)
/opt/libbackport/lib/libbackport_leon2-4.10-4.8.a(gr_rasta_io.o)
                              libosal_rtems_rastaleon2.a(rtems-config.o) (gr_rasta_io_set_resources)
/opt/libbackport/lib/libbackport_leon2-4.10-4.8.a(gr_rasta_tmtc.o)
                              libosal_rtems_rastaleon2.a(rtems-config.o) (gr_rasta_tmtc_set_resources)
/opt/libbackport/lib/libbackport_leon2-4.10-4.8.a(grspw.o)
                              libosal_rtems_rastaleon2.a(rtems-config.o) (grspw_register_drv)
/opt/libbackport/lib/libbackport_leon2-4.10-4.8.a(grtc.o)
                              libosal_rtems_rastaleon2.a(rtems-config.o) (grtc_register_drv)
/opt/libbackport/lib/libbackport_leon2-4.10-4.8.a(grtm.o)
                              libosal_rtems_rastaleon2.a(rtems-config.o) (grtm_register_drv)
/opt/libbackport/lib/libbackport_leon2-4.10-4.8.a(leon2_amba_bus.o)
                              libosal_rtems_rastaleon2.a(rtems-config.o) (drv_mgr_leon2_init)
/opt/libbackport/lib/libbackport_leon2-4.10-4.8.a(network_interface_add.o)
                              libosal_rtems_rastaleon2.a(rtems-config.o) (network_interface_add)
/opt/libbackport/lib/libbackport_leon2-4.10-4.8.a(pci_bus.o)
                              /opt/libbackport/lib/libbackport_leon2-4.10-4.8.a(at697_pci.o) (pcibus_init2)
/opt/libbackport/lib/libbackport_leon2-4.10-4.8.a(pcif.o)
                              libosal_rtems_rastaleon2.a(rtems-config.o) (pcif_register_drv)
/opt/libbackport/lib/libbackport_leon2-4.10-4.8.a(pci.o)
                              /opt/libbackport/lib/libbackport_leon2-4.10-4.8.a(gr_701.o) (BSP_pci_configuration)
/opt/libbackport/lib/libbackport_leon2-4.10-4.8.a(ambapp_show.o)
                              /opt/libbackport/lib/libbackport_leon2-4.10-4.8.a(gr_701.o) (ambapp_print)
/opt/libbackport/lib/libbackport_leon2-4.10-4.8.a(drvmgr_list.o)
                              /opt/libbackport/lib/libbackport_leon2-4.10-4.8.a(drvmgr.o) (rtems_drvmgr_list_add_head)
/opt/rtems-4.8-1.1.3/bin/../lib/gcc/sparc-rtems/4.2.4/soft/libgcc.a(_mulsi3.o)
                              libosal_rtems_rastaleon2.a(osmut.o) (.umul)
/opt/rtems-4.8-1.1.3/bin/../lib/gcc/sparc-rtems/4.2.4/soft/libgcc.a(_divsi3.o)
                              libosal_rtems_rastaleon2.a(osmut.o) (.udiv)
/opt/rtems-4.8-1.1.3/bin/../lib/gcc/sparc-rtems/4.2.4/soft/libgcc.a(_modsi3.o)
                              /opt/libbackport/lib/libbackport_leon2-4.10-4.8.a(grspw.o) (.urem)
/opt/rtems-4.8-1.1.3/bin/../lib/gcc/sparc-rtems/4.2.4/soft/libgcc.a(_mul_df.o)
                              libosal_rtems_rastaleon2.a(rtems-config.o) (__muldf3)
/opt/rtems-4.8-1.1.3/bin/../lib/gcc/sparc-rtems/4.2.4/soft/libgcc.a(_thenan_df.o)
                              /opt/rtems-4.8-1.1.3/bin/../lib/gcc/sparc-rtems/4.2.4/soft/libgcc.a(_mul_df.o) (__thenan_df)
/opt/rtems-4.8-1.1.3/bin/../lib/gcc/sparc-rtems/4.2.4/soft/libgcc.a(_usi_to_df.o)
                              libosal_rtems_rastaleon2.a(rtems-config.o) (__floatunsidf)
/opt/rtems-4.8-1.1.3/bin/../lib/gcc/sparc-rtems/4.2.4/soft/libgcc.a(_muldi3.o)
                              /opt/rtems-4.8-1.1.3/bin/../lib/gcc/sparc-rtems/4.2.4/soft/libgcc.a(_mul_df.o) (__muldi3)
/opt/rtems-4.8-1.1.3/bin/../lib/gcc/sparc-rtems/4.2.4/soft/libgcc.a(_clzsi2.o)
                              /opt/rtems-4.8-1.1.3/bin/../lib/gcc/sparc-rtems/4.2.4/soft/libgcc.a(_usi_to_df.o) (__clzsi2)
/opt/rtems-4.8-1.1.3/bin/../lib/gcc/sparc-rtems/4.2.4/soft/libgcc.a(_pack_df.o)
                              /opt/rtems-4.8-1.1.3/bin/../lib/gcc/sparc-rtems/4.2.4/soft/libgcc.a(_mul_df.o) (__pack_d)
/opt/rtems-4.8-1.1.3/bin/../lib/gcc/sparc-rtems/4.2.4/soft/libgcc.a(_unpack_df.o)
                              /opt/rtems-4.8-1.1.3/bin/../lib/gcc/sparc-rtems/4.2.4/soft/libgcc.a(_mul_df.o) (__unpack_d)
/opt/rtems-4.8-1.1.3/bin/../lib/gcc/sparc-rtems/4.2.4/soft/libgcc.a(_clz.o)
                              /opt/rtems-4.8-1.1.3/bin/../lib/gcc/sparc-rtems/4.2.4/soft/libgcc.a(_clzsi2.o) (__clz_tab)
/opt/rtems-4.8/sparc-rtems/leon2/lib/librtemsbsp.a(amba.rel)
                              /opt/libbackport/lib/libbackport_leon2-4.10-4.8.a(ambapp_bus.o) (ambapp_for_each)
/opt/rtems-4.8/sparc-rtems/leon2/lib/librtemsbsp.a(clock.rel)
                              libosal_rtems_rastaleon2.a(rtems-config.o) (Clock_control)
/opt/rtems-4.8/sparc-rtems/leon2/lib/librtemsbsp.a(console.rel)
                              libosal_rtems_rastaleon2.a(rtems-config.o) (console_control)
/opt/rtems-4.8/sparc-rtems/leon2/lib/librtemsbsp.a(leon_smc91111.rel)
                              libosal_rtems_rastaleon2.a(rtems-config.o) (rtems_smc91111_driver_attach_leon2)
/opt/rtems-4.8/sparc-rtems/leon2/lib/librtemsbsp.a(libnetchip_a-smc91111.o)
                              /opt/rtems-4.8/sparc-rtems/leon2/lib/librtemsbsp.a(leon_smc91111.rel) (_rtems_smc91111_driver_attach)
/opt/rtems-4.8/sparc-rtems/leon2/lib/librtemsbsp.a(reg_win.rel)
                              /opt/rtems-4.8/sparc-rtems/leon2/lib/start.o (window_flush_trap_handler)
/opt/rtems-4.8/sparc-rtems/leon2/lib/librtemsbsp.a(startup.rel)
                              /opt/libbackport/lib/libbackport_leon2-4.10-4.8.a(gr_701.o) (genirq_disable)
/opt/rtems-4.8/sparc-rtems/leon2/lib/librtemsbsp.a(syscall.rel)
                              /opt/libbackport/lib/libbackport_leon2-4.10-4.8.a(gr_701.o) (sparc_enable_interrupts)
/opt/rtems-4.8/sparc-rtems/leon2/lib/librtemscpu.a(check.o)
                              libosal_rtems_rastaleon2.a(rtems-config.o) (rtems_stack_checker_begin_extension)
/opt/rtems-4.8/sparc-rtems/leon2/lib/librtemscpu.a(ioman.o)
                              /opt/libbackport/lib/libbackport_leon2-4.10-4.8.a(b1553brm.o) (rtems_io_register_name)
/opt/rtems-4.8/sparc-rtems/leon2/lib/librtemscpu.a(libc_a-inet_addr.o)
                              /home/aitor/workspace/rasta-sw/osal-repo/trunk/samples/misc/soclient.o (inet_aton)
/opt/rtems-4.8/sparc-rtems/leon2/lib/librtemscpu.a(libc_a-inet_pton.o)
                              /home/aitor/workspace/rasta-sw/osal-repo/trunk/samples/misc/soclient.o (inet_pton)
/opt/rtems-4.8/sparc-rtems/leon2/lib/librtemscpu.a(libc_a-recv.o)
                              /home/aitor/workspace/rasta-sw/osal-repo/trunk/samples/misc/soclient.o (recv)
/opt/rtems-4.8/sparc-rtems/leon2/lib/librtemscpu.a(libc_a-send.o)
                              /home/aitor/workspace/rasta-sw/osal-repo/trunk/samples/misc/soclient.o (send)
/opt/rtems-4.8/sparc-rtems/leon2/lib/librtemscpu.a(libcsupport_a-__assert.o)
                              /opt/rtems-4.8/sparc-rtems/leon2/lib/librtemsbsp.a(console.rel) (__assert)
/opt/rtems-4.8/sparc-rtems/leon2/lib/librtemscpu.a(libcsupport_a-close.o)
                              /home/aitor/workspace/rasta-sw/osal-repo/trunk/samples/misc/soclient.o (close)
/opt/rtems-4.8/sparc-rtems/leon2/lib/librtemscpu.a(libcsupport_a-eval.o)
                              /opt/rtems-4.8/sparc-rtems/leon2/lib/librtemscpu.a(ioman.o) (rtems_filesystem_evaluate_path)
/opt/rtems-4.8/sparc-rtems/leon2/lib/librtemscpu.a(libcsupport_a-libio.o)
                              /opt/rtems-4.8/sparc-rtems/leon2/lib/librtemscpu.a(libcsupport_a-close.o) (rtems_libio_free)
/opt/rtems-4.8/sparc-rtems/leon2/lib/librtemscpu.a(libcsupport_a-libio_init.o)
                              /opt/rtems-4.8/sparc-rtems/leon2/lib/librtemsbsp.a(startup.rel) (rtems_libio_init)
/opt/rtems-4.8/sparc-rtems/leon2/lib/librtemscpu.a(libcsupport_a-malloc.o)
                              /opt/libbackport/lib/libbackport_leon2-4.10-4.8.a(at697_pci.o) (free)
/opt/rtems-4.8/sparc-rtems/leon2/lib/librtemscpu.a(libcsupport_a-mkdir.o)
                              /opt/libbackport/lib/libbackport_leon2-4.10-4.8.a(gr_701.o) (mkdir)
/opt/rtems-4.8/sparc-rtems/leon2/lib/librtemscpu.a(libcsupport_a-mknod.o)
                              /opt/rtems-4.8/sparc-rtems/leon2/lib/librtemscpu.a(ioman.o) (mknod)
/opt/rtems-4.8/sparc-rtems/leon2/lib/librtemscpu.a(libcsupport_a-newlibc.o)
                              /opt/rtems-4.8/sparc-rtems/leon2/lib/librtemsbsp.a(startup.rel) (libc_init)
/opt/rtems-4.8/sparc-rtems/leon2/lib/librtemscpu.a(libcsupport_a-open_dev_console.o)
                              /opt/rtems-4.8/sparc-rtems/leon2/lib/librtemsbsp.a(startup.rel) (open_dev_console)
/opt/rtems-4.8/sparc-rtems/leon2/lib/librtemscpu.a(libcsupport_a-printk.o)
                              /opt/libbackport/lib/libbackport_leon2-4.10-4.8.a(ambapp_bus.o) (printk)
/opt/rtems-4.8/sparc-rtems/leon2/lib/librtemscpu.a(libcsupport_a-printk_plugin.o)
                              /opt/rtems-4.8/sparc-rtems/leon2/lib/librtemscpu.a(check.o) (printk_plugin)
/opt/rtems-4.8/sparc-rtems/leon2/lib/librtemscpu.a(libcsupport_a-termios.o)
                              /opt/rtems-4.8/sparc-rtems/leon2/lib/librtemsbsp.a(console.rel) (rtems_termios_write)
/opt/rtems-4.8/sparc-rtems/leon2/lib/librtemscpu.a(libcsupport_a-termiosinitialize.o)
                              /opt/rtems-4.8/sparc-rtems/leon2/lib/librtemsbsp.a(console.rel) (rtems_termios_initialize)
/opt/rtems-4.8/sparc-rtems/leon2/lib/librtemscpu.a(libnetworking_a-if.o)
                              /opt/rtems-4.8/sparc-rtems/leon2/lib/librtemsbsp.a(libnetchip_a-smc91111.o) (if_attach)
/opt/rtems-4.8/sparc-rtems/leon2/lib/librtemscpu.a(libnetworking_a-if_ethersubr.o)
                              /opt/rtems-4.8/sparc-rtems/leon2/lib/librtemsbsp.a(libnetchip_a-smc91111.o) (ether_ioctl)
/opt/rtems-4.8/sparc-rtems/leon2/lib/librtemscpu.a(libnetworking_a-if_loop.o)
                              /opt/rtems-4.8/sparc-rtems/leon2/lib/librtemscpu.a(libnetworking_a-if_ethersubr.o) (looutput)
/opt/rtems-4.8/sparc-rtems/leon2/lib/librtemscpu.a(libnetworking_a-ip_input.o)
                              /opt/rtems-4.8/sparc-rtems/leon2/lib/librtemscpu.a(libnetworking_a-if_ethersubr.o) (ipintrq)
/opt/rtems-4.8/sparc-rtems/leon2/lib/librtemscpu.a(libnetworking_a-ip_mroute.o)
                              /opt/rtems-4.8/sparc-rtems/leon2/lib/librtemscpu.a(libnetworking_a-ip_input.o) (ip_mrouter)
/opt/rtems-4.8/sparc-rtems/leon2/lib/librtemscpu.a(libnetworking_a-ip_output.o)
                              /opt/rtems-4.8/sparc-rtems/leon2/lib/librtemscpu.a(libnetworking_a-ip_input.o) (ip_output)
/opt/rtems-4.8/sparc-rtems/leon2/lib/librtemscpu.a(libnetworking_a-kern_mib.o)
                              /opt/rtems-4.8/sparc-rtems/leon2/lib/librtemscpu.a(libnetworking_a-if.o) (sysctl__net_children)
/opt/rtems-4.8/sparc-rtems/leon2/lib/librtemscpu.a(libnetworking_a-kern_sysctl.o)
                              /opt/rtems-4.8/sparc-rtems/leon2/lib/librtemscpu.a(libnetworking_a-kern_mib.o) (sysctl__children)
/opt/rtems-4.8/sparc-rtems/leon2/lib/librtemscpu.a(libnetworking_a-radix.o)
                              /opt/rtems-4.8/sparc-rtems/leon2/lib/librtemscpu.a(libnetworking_a-if.o) (rn_refines)
/opt/rtems-4.8/sparc-rtems/leon2/lib/librtemscpu.a(libnetworking_a-raw_ip.o)
                              /opt/rtems-4.8/sparc-rtems/leon2/lib/librtemscpu.a(libnetworking_a-ip_mroute.o) (rip_input)
/opt/rtems-4.8/sparc-rtems/leon2/lib/librtemscpu.a(libnetworking_a-route.o)
                              /opt/rtems-4.8/sparc-rtems/leon2/lib/librtemscpu.a(libnetworking_a-if.o) (ifafree)
/opt/rtems-4.8/sparc-rtems/leon2/lib/librtemscpu.a(libnetworking_a-rtems_glue.o)
                              /opt/rtems-4.8/sparc-rtems/leon2/lib/librtemsbsp.a(libnetchip_a-smc91111.o) (rtems_bsdnet_parse_driver_name)
/opt/rtems-4.8/sparc-rtems/leon2/lib/librtemscpu.a(libnetworking_a-rtems_malloc_mbuf.o)
                              /opt/rtems-4.8/sparc-rtems/leon2/lib/librtemscpu.a(libnetworking_a-rtems_glue.o) (rtems_bsdnet_malloc_mbuf)
/opt/rtems-4.8/sparc-rtems/leon2/lib/librtemscpu.a(libnetworking_a-rtems_showifstat.o)
                              libosal_rtems_rastaleon2.a(rtems-config.o) (rtems_bsdnet_show_if_stats)
/opt/rtems-4.8/sparc-rtems/leon2/lib/librtemscpu.a(libnetworking_a-rtems_showroute.o)
                              libosal_rtems_rastaleon2.a(rtems-config.o) (rtems_bsdnet_show_inet_routes)
/opt/rtems-4.8/sparc-rtems/leon2/lib/librtemscpu.a(libnetworking_a-rtems_syscall.o)
                              /home/aitor/workspace/rasta-sw/osal-repo/trunk/samples/misc/soclient.o (setsockopt)
/opt/rtems-4.8/sparc-rtems/leon2/lib/librtemscpu.a(libnetworking_a-rtsock.o)
                              /opt/rtems-4.8/sparc-rtems/leon2/lib/librtemscpu.a(libnetworking_a-route.o) (rt_newaddrmsg)
/opt/rtems-4.8/sparc-rtems/leon2/lib/librtemscpu.a(libnetworking_a-sghostname.o)
                              /opt/rtems-4.8/sparc-rtems/leon2/lib/librtemscpu.a(libnetworking_a-rtems_glue.o) (sethostname)
/opt/rtems-4.8/sparc-rtems/leon2/lib/librtemscpu.a(libnetworking_a-uipc_domain.o)
                              /opt/rtems-4.8/sparc-rtems/leon2/lib/librtemscpu.a(libnetworking_a-radix.o) (domains)
/opt/rtems-4.8/sparc-rtems/leon2/lib/librtemscpu.a(libnetworking_a-uipc_mbuf.o)
                              /opt/rtems-4.8/sparc-rtems/leon2/lib/librtemscpu.a(libnetworking_a-rtems_glue.o) (m_reclaim)
/opt/rtems-4.8/sparc-rtems/leon2/lib/librtemscpu.a(libnetworking_a-uipc_socket.o)
                              /opt/rtems-4.8/sparc-rtems/leon2/lib/librtemscpu.a(libnetworking_a-rtems_syscall.o) (sobind)
/opt/rtems-4.8/sparc-rtems/leon2/lib/librtemscpu.a(libnetworking_a-uipc_socket2.o)
                              /opt/rtems-4.8/sparc-rtems/leon2/lib/librtemscpu.a(libnetworking_a-uipc_socket.o) (sbreserve)
/opt/rtems-4.8/sparc-rtems/leon2/lib/librtemscpu.a(librtems_a-clockget.o)
                              libosal_rtems_rastaleon2.a(osapi.o) (rtems_clock_get)
/opt/rtems-4.8/sparc-rtems/leon2/lib/librtemscpu.a(librtems_a-clocksetnsecshandler.o)
                              /opt/rtems-4.8/sparc-rtems/leon2/lib/librtemsbsp.a(clock.rel) (rtems_clock_set_nanoseconds_extension)
/opt/rtems-4.8/sparc-rtems/leon2/lib/librtemscpu.a(librtems_a-clocktick.o)
                              /opt/rtems-4.8/sparc-rtems/leon2/lib/librtemsbsp.a(clock.rel) (rtems_clock_tick)
/opt/rtems-4.8/sparc-rtems/leon2/lib/librtemscpu.a(librtems_a-eventreceive.o)
                              /opt/rtems-4.8/sparc-rtems/leon2/lib/librtemscpu.a(libcsupport_a-termios.o) (rtems_event_receive)
/opt/rtems-4.8/sparc-rtems/leon2/lib/librtemscpu.a(librtems_a-eventseize.o)
                              /opt/rtems-4.8/sparc-rtems/leon2/lib/librtemscpu.a(librtems_a-eventreceive.o) (_Event_Seize)
/opt/rtems-4.8/sparc-rtems/leon2/lib/librtemscpu.a(librtems_a-eventsend.o)
                              /opt/libbackport/lib/libbackport_leon2-4.10-4.8.a(b1553brm.o) (rtems_event_send)
/opt/rtems-4.8/sparc-rtems/leon2/lib/librtemscpu.a(librtems_a-eventsurrender.o)
                              /opt/rtems-4.8/sparc-rtems/leon2/lib/librtemscpu.a(librtems_a-eventsend.o) (_Event_Surrender)
/opt/rtems-4.8/sparc-rtems/leon2/lib/librtemscpu.a(librtems_a-eventtimeout.o)
                              /opt/rtems-4.8/sparc-rtems/leon2/lib/librtemscpu.a(librtems_a-eventseize.o) (_Event_Timeout)
/opt/rtems-4.8/sparc-rtems/leon2/lib/librtemscpu.a(librtems_a-intrcatch.o)
                              /opt/rtems-4.8/sparc-rtems/leon2/lib/librtemsbsp.a(startup.rel) (rtems_interrupt_catch)
/opt/rtems-4.8/sparc-rtems/leon2/lib/librtemscpu.a(librtems_a-ratemoncreate.o)
                              libosal_rtems_rastaleon2.a(ostask.o) (rtems_rate_monotonic_create)
/opt/rtems-4.8/sparc-rtems/leon2/lib/librtemscpu.a(librtems_a-ratemondata.o)
                              /opt/rtems-4.8/sparc-rtems/leon2/lib/librtemscpu.a(librtems_a-ratemoncreate.o) (_Rate_monotonic_Information)
/opt/rtems-4.8/sparc-rtems/leon2/lib/librtemscpu.a(librtems_a-ratemondelete.o)
                              libosal_rtems_rastaleon2.a(ostask.o) (rtems_rate_monotonic_delete)
/opt/rtems-4.8/sparc-rtems/leon2/lib/librtemscpu.a(librtems_a-ratemonperiod.o)
                              libosal_rtems_rastaleon2.a(ostask.o) (rtems_rate_monotonic_period)
/opt/rtems-4.8/sparc-rtems/leon2/lib/librtemscpu.a(librtems_a-ratemontimeout.o)
                              /opt/rtems-4.8/sparc-rtems/leon2/lib/librtemscpu.a(librtems_a-ratemonperiod.o) (_Rate_monotonic_Timeout)
/opt/rtems-4.8/sparc-rtems/leon2/lib/librtemscpu.a(librtems_a-rtemsobjectgetname.o)
                              /opt/rtems-4.8/sparc-rtems/leon2/lib/librtemscpu.a(check.o) (rtems_object_get_name)
/opt/rtems-4.8/sparc-rtems/leon2/lib/librtemscpu.a(librtems_a-semcreate.o)
                              libosal_rtems_rastaleon2.a(osmut.o) (rtems_semaphore_create)
/opt/rtems-4.8/sparc-rtems/leon2/lib/librtemscpu.a(librtems_a-semdata.o)
                              /opt/rtems-4.8/sparc-rtems/leon2/lib/librtemscpu.a(libnetworking_a-rtems_glue.o) (_Semaphore_Information)
/opt/rtems-4.8/sparc-rtems/leon2/lib/librtemscpu.a(librtems_a-semdelete.o)
                              libosal_rtems_rastaleon2.a(osmut.o) (rtems_semaphore_delete)
/opt/rtems-4.8/sparc-rtems/leon2/lib/librtemscpu.a(librtems_a-semflush.o)
                              /opt/libbackport/lib/libbackport_leon2-4.10-4.8.a(grcan.o) (rtems_semaphore_flush)
/opt/rtems-4.8/sparc-rtems/leon2/lib/librtemscpu.a(librtems_a-semobtain.o)
                              libosal_rtems_rastaleon2.a(osmut.o) (rtems_semaphore_obtain)
/opt/rtems-4.8/sparc-rtems/leon2/lib/librtemscpu.a(librtems_a-semrelease.o)
                              libosal_rtems_rastaleon2.a(osmut.o) (rtems_semaphore_release)
/opt/rtems-4.8/sparc-rtems/leon2/lib/librtemscpu.a(librtems_a-semtranslatereturncode.o)
                              /opt/rtems-4.8/sparc-rtems/leon2/lib/librtemscpu.a(librtems_a-semobtain.o) (_Semaphore_Translate_core_mutex_return_code)
/opt/rtems-4.8/sparc-rtems/leon2/lib/librtemscpu.a(librtems_a-taskcreate.o)
                              libosal_rtems_rastaleon2.a(ostask.o) (rtems_task_create)
/opt/rtems-4.8/sparc-rtems/leon2/lib/librtemscpu.a(librtems_a-taskdata.o)
                              /opt/rtems-4.8/sparc-rtems/leon2/lib/librtemscpu.a(librtems_a-taskcreate.o) (_RTEMS_tasks_Information)
/opt/rtems-4.8/sparc-rtems/leon2/lib/librtemscpu.a(librtems_a-taskdelete.o)
                              libosal_rtems_rastaleon2.a(ostask.o) (rtems_task_delete)
/opt/rtems-4.8/sparc-rtems/leon2/lib/librtemscpu.a(librtems_a-taskident.o)
                              libosal_rtems_rastaleon2.a(ostask.o) (rtems_task_ident)
/opt/rtems-4.8/sparc-rtems/leon2/lib/librtemscpu.a(librtems_a-taskinitusers.o)
                              libosal_rtems_rastaleon2.a(rtems-config.o) (_RTEMS_tasks_Initialize_user_tasks_body)
/opt/rtems-4.8/sparc-rtems/leon2/lib/librtemscpu.a(librtems_a-taskresume.o)
                              libosal_rtems_rastaleon2.a(ostask.o) (rtems_task_resume)
/opt/rtems-4.8/sparc-rtems/leon2/lib/librtemscpu.a(librtems_a-tasksetpriority.o)
                              libosal_rtems_rastaleon2.a(ostask.o) (rtems_task_set_priority)
/opt/rtems-4.8/sparc-rtems/leon2/lib/librtemscpu.a(librtems_a-taskstart.o)
                              libosal_rtems_rastaleon2.a(ostask.o) (rtems_task_start)
/opt/rtems-4.8/sparc-rtems/leon2/lib/librtemscpu.a(librtems_a-tasksuspend.o)
                              libosal_rtems_rastaleon2.a(ostask.o) (rtems_task_suspend)
/opt/rtems-4.8/sparc-rtems/leon2/lib/librtemscpu.a(librtems_a-taskvariableadd.o)
                              libosal_rtems_rastaleon2.a(ostask.o) (rtems_task_variable_add)
/opt/rtems-4.8/sparc-rtems/leon2/lib/librtemscpu.a(librtems_a-taskwakeafter.o)
                              libosal_rtems_rastaleon2.a(ostask.o) (rtems_task_wake_after)
/opt/rtems-4.8/sparc-rtems/leon2/lib/librtemscpu.a(libsapi_a-exinit.o)
                              /opt/rtems-4.8/sparc-rtems/leon2/lib/librtemsbsp.a(startup.rel) (rtems_initialize_executive_late)
/opt/rtems-4.8/sparc-rtems/leon2/lib/librtemscpu.a(libsapi_a-extension.o)
                              /opt/rtems-4.8/sparc-rtems/leon2/lib/librtemscpu.a(libsapi_a-exinit.o) (_Extension_Manager_initialization)
/opt/rtems-4.8/sparc-rtems/leon2/lib/librtemscpu.a(libsapi_a-extensiondata.o)
                              /opt/rtems-4.8/sparc-rtems/leon2/lib/librtemscpu.a(libsapi_a-extension.o) (_Extension_Information)
/opt/rtems-4.8/sparc-rtems/leon2/lib/librtemscpu.a(libsapi_a-fatal.o)
                              /opt/libbackport/lib/libbackport_leon2-4.10-4.8.a(drvmgr.o) (rtems_fatal_error_occurred)
/opt/rtems-4.8/sparc-rtems/leon2/lib/librtemscpu.a(libsapi_a-getversionstring.o)
                              (rtems_get_version_string)
/opt/rtems-4.8/sparc-rtems/leon2/lib/librtemscpu.a(libsapi_a-io.o)
                              /opt/rtems-4.8/sparc-rtems/leon2/lib/librtemscpu.a(libsapi_a-exinit.o) (_IO_Initialize_all_drivers)
/opt/rtems-4.8/sparc-rtems/leon2/lib/librtemscpu.a(libsapi_a-iodata.o)
                              /opt/rtems-4.8/sparc-rtems/leon2/lib/librtemscpu.a(libsapi_a-io.o) (_IO_Number_of_drivers)
/opt/rtems-4.8/sparc-rtems/leon2/lib/librtemscpu.a(libsapi_a-ioinitialize.o)
                              /opt/rtems-4.8/sparc-rtems/leon2/lib/librtemscpu.a(libsapi_a-io.o) (rtems_io_initialize)
/opt/rtems-4.8/sparc-rtems/leon2/lib/librtemscpu.a(libsapi_a-ioregisterdriver.o)
                              /opt/libbackport/lib/libbackport_leon2-4.10-4.8.a(b1553brm.o) (rtems_io_register_driver)
/opt/rtems-4.8/sparc-rtems/leon2/lib/librtemscpu.a(libsapi_a-posixapi.o)
                              /opt/rtems-4.8/sparc-rtems/leon2/lib/librtemscpu.a(libsapi_a-exinit.o) (_POSIX_API_Initialize)
/opt/rtems-4.8/sparc-rtems/leon2/lib/librtemscpu.a(libsapi_a-rtemsapi.o)
                              /opt/rtems-4.8/sparc-rtems/leon2/lib/librtemscpu.a(libsapi_a-exinit.o) (_RTEMS_API_Initialize)
/opt/rtems-4.8/sparc-rtems/leon2/lib/librtemscpu.a(libscore_a-apiext.o)
                              /opt/rtems-4.8/sparc-rtems/leon2/lib/librtemscpu.a(libsapi_a-exinit.o) (_API_extensions_Initialization)
/opt/rtems-4.8/sparc-rtems/leon2/lib/librtemscpu.a(libscore_a-chainappend.o)
                              /opt/rtems-4.8/sparc-rtems/leon2/lib/librtemscpu.a(libcsupport_a-malloc.o) (_Chain_Append)
/opt/rtems-4.8/sparc-rtems/leon2/lib/librtemscpu.a(libscore_a-chainget.o)
                              /opt/rtems-4.8/sparc-rtems/leon2/lib/librtemscpu.a(libcsupport_a-malloc.o) (_Chain_Get)
/opt/rtems-4.8/sparc-rtems/leon2/lib/librtemscpu.a(libscore_a-coremutex.o)
                              /opt/rtems-4.8/sparc-rtems/leon2/lib/librtemscpu.a(librtems_a-semcreate.o) (_CORE_mutex_Initialize)
/opt/rtems-4.8/sparc-rtems/leon2/lib/librtemscpu.a(libscore_a-coremutexflush.o)
                              /opt/rtems-4.8/sparc-rtems/leon2/lib/librtemscpu.a(librtems_a-semdelete.o) (_CORE_mutex_Flush)
/opt/rtems-4.8/sparc-rtems/leon2/lib/librtemscpu.a(libscore_a-coremutexseize.o)
                              /opt/rtems-4.8/sparc-rtems/leon2/lib/librtemscpu.a(libnetworking_a-rtems_glue.o) (_CORE_mutex_Seize_interrupt_blocking)
/opt/rtems-4.8/sparc-rtems/leon2/lib/librtemscpu.a(libscore_a-coremutexsurrender.o)
                              /opt/rtems-4.8/sparc-rtems/leon2/lib/librtemscpu.a(libnetworking_a-rtems_glue.o) (_CORE_mutex_Surrender)
/opt/rtems-4.8/sparc-rtems/leon2/lib/librtemscpu.a(libscore_a-coresem.o)
                              /opt/rtems-4.8/sparc-rtems/leon2/lib/librtemscpu.a(librtems_a-semcreate.o) (_CORE_semaphore_Initialize)
/opt/rtems-4.8/sparc-rtems/leon2/lib/librtemscpu.a(libscore_a-coresemflush.o)
                              /opt/rtems-4.8/sparc-rtems/leon2/lib/librtemscpu.a(librtems_a-semdelete.o) (_CORE_semaphore_Flush)
/opt/rtems-4.8/sparc-rtems/leon2/lib/librtemscpu.a(libscore_a-coresemsurrender.o)
                              /opt/rtems-4.8/sparc-rtems/leon2/lib/librtemscpu.a(librtems_a-semrelease.o) (_CORE_semaphore_Surrender)
/opt/rtems-4.8/sparc-rtems/leon2/lib/librtemscpu.a(libscore_a-coretod.o)
                              /opt/rtems-4.8/sparc-rtems/leon2/lib/librtemscpu.a(libsapi_a-exinit.o) (_TOD_Handler_initialization)
/opt/rtems-4.8/sparc-rtems/leon2/lib/librtemscpu.a(libscore_a-coretodget.o)
                              /opt/rtems-4.8/sparc-rtems/leon2/lib/librtemscpu.a(librtems_a-clockget.o) (_TOD_Get)
/opt/rtems-4.8/sparc-rtems/leon2/lib/librtemscpu.a(libscore_a-coretodgetuptime.o)
                              /opt/rtems-4.8/sparc-rtems/leon2/lib/librtemscpu.a(librtems_a-ratemonperiod.o) (_TOD_Get_uptime)
/opt/rtems-4.8/sparc-rtems/leon2/lib/librtemscpu.a(libscore_a-coretodtickle.o)
                              /opt/rtems-4.8/sparc-rtems/leon2/lib/librtemscpu.a(librtems_a-clocktick.o) (_TOD_Tickle_ticks)
/opt/rtems-4.8/sparc-rtems/leon2/lib/librtemscpu.a(libscore_a-heap.o)
                              /opt/rtems-4.8/sparc-rtems/leon2/lib/librtemscpu.a(libcsupport_a-malloc.o) (_Heap_Initialize)
/opt/rtems-4.8/sparc-rtems/leon2/lib/librtemscpu.a(libscore_a-heapallocate.o)
                              /opt/rtems-4.8/sparc-rtems/leon2/lib/librtemscpu.a(libcsupport_a-newlibc.o) (_Heap_Allocate)
/opt/rtems-4.8/sparc-rtems/leon2/lib/librtemscpu.a(libscore_a-heapfree.o)
                              /opt/rtems-4.8/sparc-rtems/leon2/lib/librtemscpu.a(libcsupport_a-newlibc.o) (_Heap_Free)
/opt/rtems-4.8/sparc-rtems/leon2/lib/librtemscpu.a(libscore_a-interr.o)
                              /opt/rtems-4.8/sparc-rtems/leon2/lib/librtemscpu.a(libnetworking_a-rtems_glue.o) (_Internal_error_Occurred)
/opt/rtems-4.8/sparc-rtems/leon2/lib/librtemscpu.a(libscore_a-isr.o)
                              /opt/rtems-4.8/sparc-rtems/leon2/lib/librtemscpu.a(libsapi_a-exinit.o) (_ISR_Handler_initialization)
/opt/rtems-4.8/sparc-rtems/leon2/lib/librtemscpu.a(libscore_a-iterateoverthreads.o)
                              /opt/rtems-4.8/sparc-rtems/leon2/lib/librtemscpu.a(check.o) (rtems_iterate_over_all_threads)
/opt/rtems-4.8/sparc-rtems/leon2/lib/librtemscpu.a(libscore_a-object.o)
                              /opt/rtems-4.8/sparc-rtems/leon2/lib/librtemscpu.a(libsapi_a-exinit.o) (_Objects_Handler_initialization)
/opt/rtems-4.8/sparc-rtems/leon2/lib/librtemscpu.a(libscore_a-objectallocate.o)
                              /opt/rtems-4.8/sparc-rtems/leon2/lib/librtemscpu.a(librtems_a-ratemoncreate.o) (_Objects_Allocate)
/opt/rtems-4.8/sparc-rtems/leon2/lib/librtemscpu.a(libscore_a-objectextendinformation.o)
                              /opt/rtems-4.8/sparc-rtems/leon2/lib/librtemscpu.a(libscore_a-objectallocate.o) (_Objects_Extend_information)
/opt/rtems-4.8/sparc-rtems/leon2/lib/librtemscpu.a(libscore_a-objectfree.o)
                              /opt/rtems-4.8/sparc-rtems/leon2/lib/librtemscpu.a(librtems_a-ratemondelete.o) (_Objects_Free)
/opt/rtems-4.8/sparc-rtems/leon2/lib/librtemscpu.a(libscore_a-objectget.o)
                              /opt/rtems-4.8/sparc-rtems/leon2/lib/librtemscpu.a(libnetworking_a-rtems_glue.o) (_Objects_Get)
/opt/rtems-4.8/sparc-rtems/leon2/lib/librtemscpu.a(libscore_a-objectgetisr.o)
                              /opt/rtems-4.8/sparc-rtems/leon2/lib/librtemscpu.a(librtems_a-semobtain.o) (_Objects_Get_isr_disable)
/opt/rtems-4.8/sparc-rtems/leon2/lib/librtemscpu.a(libscore_a-objectgetnameasstring.o)
                              /opt/rtems-4.8/sparc-rtems/leon2/lib/librtemscpu.a(librtems_a-rtemsobjectgetname.o) (_Objects_Get_name_as_string)
/opt/rtems-4.8/sparc-rtems/leon2/lib/librtemscpu.a(libscore_a-objectinitializeinformation.o)
                              /opt/rtems-4.8/sparc-rtems/leon2/lib/librtemscpu.a(libsapi_a-exinit.o) (_Objects_Initialize_information)
/opt/rtems-4.8/sparc-rtems/leon2/lib/librtemscpu.a(libscore_a-objectnametoid.o)
                              /opt/rtems-4.8/sparc-rtems/leon2/lib/librtemscpu.a(librtems_a-taskident.o) (_Objects_Name_to_id)
/opt/rtems-4.8/sparc-rtems/leon2/lib/librtemscpu.a(libscore_a-objectshrinkinformation.o)
                              /opt/rtems-4.8/sparc-rtems/leon2/lib/librtemscpu.a(libscore_a-objectfree.o) (_Objects_Shrink_information)
/opt/rtems-4.8/sparc-rtems/leon2/lib/librtemscpu.a(libscore_a-pheapallocate.o)
                              /opt/rtems-4.8/sparc-rtems/leon2/lib/librtemscpu.a(libcsupport_a-malloc.o) (_Protected_heap_Allocate)
/opt/rtems-4.8/sparc-rtems/leon2/lib/librtemscpu.a(libscore_a-pheapextend.o)
                              /opt/rtems-4.8/sparc-rtems/leon2/lib/librtemscpu.a(libcsupport_a-malloc.o) (_Protected_heap_Extend)
/opt/rtems-4.8/sparc-rtems/leon2/lib/librtemscpu.a(libscore_a-pheapfree.o)
                              /opt/rtems-4.8/sparc-rtems/leon2/lib/librtemscpu.a(libcsupport_a-malloc.o) (_Protected_heap_Free)
/opt/rtems-4.8/sparc-rtems/leon2/lib/librtemscpu.a(libscore_a-pheapgetblocksize.o)
                              /opt/rtems-4.8/sparc-rtems/leon2/lib/librtemscpu.a(libcsupport_a-malloc.o) (_Protected_heap_Get_block_size)
/opt/rtems-4.8/sparc-rtems/leon2/lib/librtemscpu.a(libscore_a-pheapresizeblock.o)
                              /opt/rtems-4.8/sparc-rtems/leon2/lib/librtemscpu.a(libcsupport_a-malloc.o) (_Protected_heap_Resize_block)
/opt/rtems-4.8/sparc-rtems/leon2/lib/librtemscpu.a(libscore_a-thread.o)
                              /opt/rtems-4.8/sparc-rtems/leon2/lib/librtemscpu.a(libsapi_a-exinit.o) (_Thread_Handler_initialization)
/opt/rtems-4.8/sparc-rtems/leon2/lib/librtemscpu.a(libscore_a-threadchangepriority.o)
                              /opt/rtems-4.8/sparc-rtems/leon2/lib/librtemscpu.a(libnetworking_a-rtems_glue.o) (_Thread_Change_priority)
/opt/rtems-4.8/sparc-rtems/leon2/lib/librtemscpu.a(libscore_a-threadclearstate.o)
                              /opt/rtems-4.8/sparc-rtems/leon2/lib/librtemscpu.a(librtems_a-eventseize.o) (_Thread_Clear_state)
/opt/rtems-4.8/sparc-rtems/leon2/lib/librtemscpu.a(libscore_a-threadclose.o)
                              /opt/rtems-4.8/sparc-rtems/leon2/lib/librtemscpu.a(librtems_a-taskdelete.o) (_Thread_Close)
/opt/rtems-4.8/sparc-rtems/leon2/lib/librtemscpu.a(libscore_a-threadcreateidle.o)
                              /opt/rtems-4.8/sparc-rtems/leon2/lib/librtemscpu.a(libsapi_a-exinit.o) (_Thread_Create_idle)
/opt/rtems-4.8/sparc-rtems/leon2/lib/librtemscpu.a(libscore_a-threaddelayended.o)
                              /opt/rtems-4.8/sparc-rtems/leon2/lib/librtemscpu.a(librtems_a-taskwakeafter.o) (_Thread_Delay_ended)
/opt/rtems-4.8/sparc-rtems/leon2/lib/librtemscpu.a(libscore_a-threaddispatch.o)
                              /opt/rtems-4.8/sparc-rtems/leon2/lib/librtemscpu.a(libnetworking_a-rtems_glue.o) (_Thread_Dispatch)
/opt/rtems-4.8/sparc-rtems/leon2/lib/librtemscpu.a(libscore_a-threadidlebody.o)
                              /opt/rtems-4.8/sparc-rtems/leon2/lib/librtemscpu.a(libscore_a-threadcreateidle.o) (_Thread_Idle_body)
/opt/rtems-4.8/sparc-rtems/leon2/lib/librtemscpu.a(libscore_a-threadinitialize.o)
                              /opt/rtems-4.8/sparc-rtems/leon2/lib/librtemscpu.a(librtems_a-taskcreate.o) (_Thread_Initialize)
/opt/rtems-4.8/sparc-rtems/leon2/lib/librtemscpu.a(libscore_a-threadq.o)
                              /opt/rtems-4.8/sparc-rtems/leon2/lib/librtemscpu.a(libscore_a-coremutex.o) (_Thread_queue_Initialize)
/opt/rtems-4.8/sparc-rtems/leon2/lib/librtemscpu.a(libscore_a-threadqdequeue.o)
                              /opt/rtems-4.8/sparc-rtems/leon2/lib/librtemscpu.a(libscore_a-coremutexsurrender.o) (_Thread_queue_Dequeue)
/opt/rtems-4.8/sparc-rtems/leon2/lib/librtemscpu.a(libscore_a-threadqdequeuefifo.o)
                              /opt/rtems-4.8/sparc-rtems/leon2/lib/librtemscpu.a(libscore_a-threadqdequeue.o) (_Thread_queue_Dequeue_fifo)
/opt/rtems-4.8/sparc-rtems/leon2/lib/librtemscpu.a(libscore_a-threadqdequeuepriority.o)
                              /opt/rtems-4.8/sparc-rtems/leon2/lib/librtemscpu.a(libscore_a-threadqdequeue.o) (_Thread_queue_Dequeue_priority)
/opt/rtems-4.8/sparc-rtems/leon2/lib/librtemscpu.a(libscore_a-threadqenqueue.o)
                              /opt/rtems-4.8/sparc-rtems/leon2/lib/librtemscpu.a(librtems_a-semobtain.o) (_Thread_queue_Enqueue_with_handler)
/opt/rtems-4.8/sparc-rtems/leon2/lib/librtemscpu.a(libscore_a-threadqenqueuefifo.o)
                              /opt/rtems-4.8/sparc-rtems/leon2/lib/librtemscpu.a(libscore_a-threadqenqueue.o) (_Thread_queue_Enqueue_fifo)
/opt/rtems-4.8/sparc-rtems/leon2/lib/librtemscpu.a(libscore_a-threadqenqueuepriority.o)
                              /opt/rtems-4.8/sparc-rtems/leon2/lib/librtemscpu.a(libscore_a-threadqenqueue.o) (_Thread_queue_Enqueue_priority)
/opt/rtems-4.8/sparc-rtems/leon2/lib/librtemscpu.a(libscore_a-threadqextractwithproxy.o)
                              /opt/rtems-4.8/sparc-rtems/leon2/lib/librtemscpu.a(libscore_a-threadclose.o) (_Thread_queue_Extract_with_proxy)
/opt/rtems-4.8/sparc-rtems/leon2/lib/librtemscpu.a(libscore_a-threadqflush.o)
                              /opt/rtems-4.8/sparc-rtems/leon2/lib/librtemscpu.a(libscore_a-coremutexflush.o) (_Thread_queue_Flush)
/opt/rtems-4.8/sparc-rtems/leon2/lib/librtemscpu.a(libscore_a-threadqrequeue.o)
                              /opt/rtems-4.8/sparc-rtems/leon2/lib/librtemscpu.a(libscore_a-threadchangepriority.o) (_Thread_queue_Requeue)
/opt/rtems-4.8/sparc-rtems/leon2/lib/librtemscpu.a(libscore_a-threadqtimeout.o)
                              /opt/rtems-4.8/sparc-rtems/leon2/lib/librtemscpu.a(librtems_a-semobtain.o) (_Thread_queue_Timeout)
/opt/rtems-4.8/sparc-rtems/leon2/lib/librtemscpu.a(libscore_a-threadresume.o)
                              /opt/rtems-4.8/sparc-rtems/leon2/lib/librtemscpu.a(librtems_a-taskresume.o) (_Thread_Resume)
/opt/rtems-4.8/sparc-rtems/leon2/lib/librtemscpu.a(libscore_a-threadsetpriority.o)
                              /opt/rtems-4.8/sparc-rtems/leon2/lib/librtemscpu.a(libscore_a-threadchangepriority.o) (_Thread_Set_priority)
/opt/rtems-4.8/sparc-rtems/leon2/lib/librtemscpu.a(libscore_a-threadsetstate.o)
                              /opt/rtems-4.8/sparc-rtems/leon2/lib/librtemscpu.a(librtems_a-eventseize.o) (_Thread_Set_state)
/opt/rtems-4.8/sparc-rtems/leon2/lib/librtemscpu.a(libscore_a-threadsettransient.o)
                              /opt/rtems-4.8/sparc-rtems/leon2/lib/librtemscpu.a(libscore_a-threadchangepriority.o) (_Thread_Set_transient)
/opt/rtems-4.8/sparc-rtems/leon2/lib/librtemscpu.a(libscore_a-threadstackallocate.o)
                              /opt/rtems-4.8/sparc-rtems/leon2/lib/librtemscpu.a(libscore_a-threadinitialize.o) (_Thread_Stack_Allocate)
/opt/rtems-4.8/sparc-rtems/leon2/lib/librtemscpu.a(libscore_a-threadstackfree.o)
                              /opt/rtems-4.8/sparc-rtems/leon2/lib/librtemscpu.a(libscore_a-threadclose.o) (_Thread_Stack_Free)
/opt/rtems-4.8/sparc-rtems/leon2/lib/librtemscpu.a(libscore_a-threadstart.o)
                              /opt/rtems-4.8/sparc-rtems/leon2/lib/librtemscpu.a(librtems_a-taskstart.o) (_Thread_Start)
/opt/rtems-4.8/sparc-rtems/leon2/lib/librtemscpu.a(libscore_a-threadstartmultitasking.o)
                              /opt/rtems-4.8/sparc-rtems/leon2/lib/librtemscpu.a(libsapi_a-exinit.o) (_Thread_Start_multitasking)
/opt/rtems-4.8/sparc-rtems/leon2/lib/librtemscpu.a(libscore_a-threadsuspend.o)
                              /opt/rtems-4.8/sparc-rtems/leon2/lib/librtemscpu.a(librtems_a-tasksuspend.o) (_Thread_Suspend)
/opt/rtems-4.8/sparc-rtems/leon2/lib/librtemscpu.a(libscore_a-threadtickletimeslice.o)
                              /opt/rtems-4.8/sparc-rtems/leon2/lib/librtemscpu.a(librtems_a-clocktick.o) (_Thread_Tickle_timeslice)
/opt/rtems-4.8/sparc-rtems/leon2/lib/librtemscpu.a(libscore_a-threadyieldprocessor.o)
                              /opt/rtems-4.8/sparc-rtems/leon2/lib/librtemscpu.a(librtems_a-taskwakeafter.o) (_Thread_Yield_processor)
/opt/rtems-4.8/sparc-rtems/leon2/lib/librtemscpu.a(libscore_a-timespecaddto.o)
                              /opt/rtems-4.8/sparc-rtems/leon2/lib/librtemscpu.a(librtems_a-ratemonperiod.o) (_Timespec_Add_to)
/opt/rtems-4.8/sparc-rtems/leon2/lib/librtemscpu.a(libscore_a-timespecgreaterthan.o)
                              /opt/rtems-4.8/sparc-rtems/leon2/lib/librtemscpu.a(librtems_a-ratemonperiod.o) (_Timespec_Greater_than)
/opt/rtems-4.8/sparc-rtems/leon2/lib/librtemscpu.a(libscore_a-timespeclessthan.o)
                              /opt/rtems-4.8/sparc-rtems/leon2/lib/librtemscpu.a(librtems_a-ratemonperiod.o) (_Timespec_Less_than)
/opt/rtems-4.8/sparc-rtems/leon2/lib/librtemscpu.a(libscore_a-timespecsubtract.o)
                              /opt/rtems-4.8/sparc-rtems/leon2/lib/librtemscpu.a(librtems_a-ratemonperiod.o) (_Timespec_Subtract)
/opt/rtems-4.8/sparc-rtems/leon2/lib/librtemscpu.a(libscore_a-userext.o)
                              /opt/rtems-4.8/sparc-rtems/leon2/lib/librtemscpu.a(libsapi_a-exinit.o) (_User_extensions_Handler_initialization)
/opt/rtems-4.8/sparc-rtems/leon2/lib/librtemscpu.a(libscore_a-userextaddset.o)
                              /opt/rtems-4.8/sparc-rtems/leon2/lib/librtemscpu.a(libscore_a-userext.o) (_User_extensions_Add_set)
/opt/rtems-4.8/sparc-rtems/leon2/lib/librtemscpu.a(libscore_a-userextthreadbegin.o)
                              /opt/rtems-4.8/sparc-rtems/leon2/lib/librtemscpu.a(libscore_a-interr.o) (_User_extensions_Fatal)
/opt/rtems-4.8/sparc-rtems/leon2/lib/librtemscpu.a(libscore_a-userextthreadcreate.o)
                              /opt/rtems-4.8/sparc-rtems/leon2/lib/librtemscpu.a(libscore_a-threadinitialize.o) (_User_extensions_Thread_create)
/opt/rtems-4.8/sparc-rtems/leon2/lib/librtemscpu.a(libscore_a-userextthreaddelete.o)
                              /opt/rtems-4.8/sparc-rtems/leon2/lib/librtemscpu.a(libscore_a-threadclose.o) (_User_extensions_Thread_delete)
/opt/rtems-4.8/sparc-rtems/leon2/lib/librtemscpu.a(libscore_a-userextthreadstart.o)
                              /opt/rtems-4.8/sparc-rtems/leon2/lib/librtemscpu.a(libscore_a-threadstart.o) (_User_extensions_Thread_start)
/opt/rtems-4.8/sparc-rtems/leon2/lib/librtemscpu.a(libscore_a-userextthreadswitch.o)
                              /opt/rtems-4.8/sparc-rtems/leon2/lib/librtemscpu.a(libscore_a-threaddispatch.o) (_User_extensions_Thread_switch)
/opt/rtems-4.8/sparc-rtems/leon2/lib/librtemscpu.a(libscore_a-watchdog.o)
                              /opt/rtems-4.8/sparc-rtems/leon2/lib/librtemscpu.a(libsapi_a-exinit.o) (_Watchdog_Handler_initialization)
/opt/rtems-4.8/sparc-rtems/leon2/lib/librtemscpu.a(libscore_a-watchdoginsert.o)
                              /opt/rtems-4.8/sparc-rtems/leon2/lib/librtemscpu.a(librtems_a-eventseize.o) (_Watchdog_Insert)
/opt/rtems-4.8/sparc-rtems/leon2/lib/librtemscpu.a(libscore_a-watchdogremove.o)
                              /opt/rtems-4.8/sparc-rtems/leon2/lib/librtemscpu.a(librtems_a-eventseize.o) (_Watchdog_Remove)
/opt/rtems-4.8/sparc-rtems/leon2/lib/librtemscpu.a(libscore_a-watchdogtickle.o)
                              /opt/rtems-4.8/sparc-rtems/leon2/lib/librtemscpu.a(librtems_a-clocktick.o) (_Watchdog_Tickle)
/opt/rtems-4.8/sparc-rtems/leon2/lib/librtemscpu.a(libscore_a-wkspace.o)
                              /opt/rtems-4.8/sparc-rtems/leon2/lib/librtemscpu.a(libsapi_a-io.o) (_Workspace_Allocate_or_fatal_error)
/opt/rtems-4.8/sparc-rtems/leon2/lib/librtemscpu.a(libscorecpu_a-cpu.o)
                              /opt/rtems-4.8/sparc-rtems/leon2/lib/librtemsbsp.a(startup.rel) (_CPU_ISR_install_raw_handler)
/opt/rtems-4.8/sparc-rtems/leon2/lib/librtemscpu.a(libscorecpu_a-cpu_asm.o)
                              /opt/rtems-4.8/sparc-rtems/leon2/lib/librtemscpu.a(libscore_a-threaddispatch.o) (_CPU_Context_save_fp)
/opt/rtems-4.8/sparc-rtems/leon2/lib/librtemscpu.a(miniimfs_init.o)
                              libosal_rtems_rastaleon2.a(rtems-config.o) (miniIMFS_ops)
/opt/rtems-4.8/sparc-rtems/leon2/lib/librtemscpu.a(imfs_eval.o)
                              /opt/rtems-4.8/sparc-rtems/leon2/lib/librtemscpu.a(miniimfs_init.o) (IMFS_eval_path)
/opt/rtems-4.8/sparc-rtems/leon2/lib/librtemscpu.a(imfs_getchild.o)
                              /opt/rtems-4.8/sparc-rtems/leon2/lib/librtemscpu.a(imfs_eval.o) (IMFS_find_match_in_dir)
/opt/rtems-4.8/sparc-rtems/leon2/lib/librtemscpu.a(imfs_gtkn.o)
                              /opt/rtems-4.8/sparc-rtems/leon2/lib/librtemscpu.a(imfs_eval.o) (IMFS_get_token)
/opt/rtems-4.8/sparc-rtems/leon2/lib/librtemscpu.a(imfs_handlers_device.o)
                              /opt/rtems-4.8/sparc-rtems/leon2/lib/librtemscpu.a(imfs_eval.o) (IMFS_device_handlers)
/opt/rtems-4.8/sparc-rtems/leon2/lib/librtemscpu.a(imfs_handlers_link.o)
                              /opt/rtems-4.8/sparc-rtems/leon2/lib/librtemscpu.a(imfs_eval.o) (IMFS_link_handlers)
/opt/rtems-4.8/sparc-rtems/leon2/lib/librtemscpu.a(imfs_initsupp.o)
                              /opt/rtems-4.8/sparc-rtems/leon2/lib/librtemscpu.a(miniimfs_init.o) (IMFS_initialize_support)
/opt/rtems-4.8/sparc-rtems/leon2/lib/librtemscpu.a(imfs_mknod.o)
                              /opt/rtems-4.8/sparc-rtems/leon2/lib/librtemscpu.a(miniimfs_init.o) (IMFS_mknod)
/opt/rtems-4.8/sparc-rtems/leon2/lib/librtemscpu.a(imfs_ntype.o)
                              /opt/rtems-4.8/sparc-rtems/leon2/lib/librtemscpu.a(miniimfs_init.o) (IMFS_node_type)
/opt/rtems-4.8/sparc-rtems/leon2/lib/librtemscpu.a(imfs_rmnod.o)
                              /opt/rtems-4.8/sparc-rtems/leon2/lib/librtemscpu.a(imfs_handlers_device.o) (IMFS_rmnod)
/opt/rtems-4.8/sparc-rtems/leon2/lib/librtemscpu.a(imfs_stat.o)
                              /opt/rtems-4.8/sparc-rtems/leon2/lib/librtemscpu.a(imfs_handlers_device.o) (IMFS_stat)
/opt/rtems-4.8/sparc-rtems/leon2/lib/librtemscpu.a(libc_a-inet_ntoa.o)
                              /opt/rtems-4.8/sparc-rtems/leon2/lib/librtemscpu.a(libnetworking_a-ip_input.o) (inet_ntoa)
/opt/rtems-4.8/sparc-rtems/leon2/lib/librtemscpu.a(libc_a-inet_ntop.o)
                              /opt/rtems-4.8/sparc-rtems/leon2/lib/librtemscpu.a(libnetworking_a-rtems_glue.o) (inet_ntop)
/opt/rtems-4.8/sparc-rtems/leon2/lib/librtemscpu.a(libcsupport_a-__gettod.o)
                              /opt/rtems-4.8/sparc-rtems/leon2/lib/librtemscpu.a(imfs_rmnod.o) (gettimeofday)
/opt/rtems-4.8/sparc-rtems/leon2/lib/librtemscpu.a(libcsupport_a-assoclocalbyremote.o)
                              /opt/rtems-4.8/sparc-rtems/leon2/lib/librtemscpu.a(libcsupport_a-libio.o) (rtems_assoc_local_by_remote)
/opt/rtems-4.8/sparc-rtems/leon2/lib/librtemscpu.a(libcsupport_a-assoclocalbyremotebitfield.o)
                              /opt/rtems-4.8/sparc-rtems/leon2/lib/librtemscpu.a(libcsupport_a-libio.o) (rtems_assoc_local_by_remote_bitfield)
/opt/rtems-4.8/sparc-rtems/leon2/lib/librtemscpu.a(libcsupport_a-assocptrbyremote.o)
                              /opt/rtems-4.8/sparc-rtems/leon2/lib/librtemscpu.a(libcsupport_a-assoclocalbyremote.o) (rtems_assoc_ptr_by_remote)
/opt/rtems-4.8/sparc-rtems/leon2/lib/librtemscpu.a(libcsupport_a-base_fs.o)
                              /opt/rtems-4.8/sparc-rtems/leon2/lib/librtemscpu.a(libcsupport_a-libio_init.o) (rtems_filesystem_initialize)
/opt/rtems-4.8/sparc-rtems/leon2/lib/librtemscpu.a(libcsupport_a-error.o)
                              /opt/rtems-4.8/sparc-rtems/leon2/lib/librtemscpu.a(libnetworking_a-rtems_glue.o) (rtems_status_text)
/opt/rtems-4.8/sparc-rtems/leon2/lib/librtemscpu.a(libcsupport_a-fs_null_handlers.o)
                              /opt/rtems-4.8/sparc-rtems/leon2/lib/librtemscpu.a(miniimfs_init.o) (rtems_filesystem_null_handlers)
/opt/rtems-4.8/sparc-rtems/leon2/lib/librtemscpu.a(libcsupport_a-getegid.o)
                              /opt/rtems-4.8/sparc-rtems/leon2/lib/librtemscpu.a(imfs_eval.o) (getegid)
/opt/rtems-4.8/sparc-rtems/leon2/lib/librtemscpu.a(libcsupport_a-geteuid.o)
                              /opt/rtems-4.8/sparc-rtems/leon2/lib/librtemscpu.a(imfs_eval.o) (geteuid)
/opt/rtems-4.8/sparc-rtems/leon2/lib/librtemscpu.a(libcsupport_a-ioctl.o)
                              /opt/rtems-4.8/sparc-rtems/leon2/lib/librtemscpu.a(libnetworking_a-rtems_glue.o) (ioctl)
/opt/rtems-4.8/sparc-rtems/leon2/lib/librtemscpu.a(libcsupport_a-libio_sockets.o)
                              /opt/rtems-4.8/sparc-rtems/leon2/lib/librtemscpu.a(libnetworking_a-rtems_syscall.o) (rtems_bsdnet_makeFdForSocket)
/opt/rtems-4.8/sparc-rtems/leon2/lib/librtemscpu.a(libcsupport_a-mount.o)
                              /opt/rtems-4.8/sparc-rtems/leon2/lib/librtemscpu.a(libcsupport_a-base_fs.o) (init_fs_mount_table)
/opt/rtems-4.8/sparc-rtems/leon2/lib/librtemscpu.a(libcsupport_a-newlibc_exit.o)
                              /opt/rtems-4.8/sparc-rtems/leon2/lib/librtemscpu.a(libcsupport_a-error.o) (_exit)
/opt/rtems-4.8/sparc-rtems/leon2/lib/librtemscpu.a(libcsupport_a-open.o)
                              /opt/rtems-4.8/sparc-rtems/leon2/lib/librtemscpu.a(libcsupport_a-open_dev_console.o) (open)
/opt/rtems-4.8/sparc-rtems/leon2/lib/librtemscpu.a(libnetworking_a-if_ether.o)
                              /opt/rtems-4.8/sparc-rtems/leon2/lib/librtemscpu.a(libnetworking_a-if_ethersubr.o) (arpresolve)
/opt/rtems-4.8/sparc-rtems/leon2/lib/librtemscpu.a(libnetworking_a-in.o)
                              /opt/rtems-4.8/sparc-rtems/leon2/lib/librtemscpu.a(libnetworking_a-ip_input.o) (in_canforward)
/opt/rtems-4.8/sparc-rtems/leon2/lib/librtemscpu.a(libnetworking_a-in_cksum.o)
                              /opt/rtems-4.8/sparc-rtems/leon2/lib/librtemscpu.a(libnetworking_a-ip_input.o) (in_cksum)
/opt/rtems-4.8/sparc-rtems/leon2/lib/librtemscpu.a(libnetworking_a-in_pcb.o)
                              /opt/rtems-4.8/sparc-rtems/leon2/lib/librtemscpu.a(libnetworking_a-raw_ip.o) (in_setpeeraddr)
/opt/rtems-4.8/sparc-rtems/leon2/lib/librtemscpu.a(libnetworking_a-in_proto.o)
                              /opt/rtems-4.8/sparc-rtems/leon2/lib/librtemscpu.a(libnetworking_a-ip_input.o) (inetsw)
/opt/rtems-4.8/sparc-rtems/leon2/lib/librtemscpu.a(libnetworking_a-in_rmx.o)
                              /opt/rtems-4.8/sparc-rtems/leon2/lib/librtemscpu.a(libnetworking_a-ip_input.o) (in_rtqdrain)
/opt/rtems-4.8/sparc-rtems/leon2/lib/librtemscpu.a(libnetworking_a-ip_icmp.o)
                              /opt/rtems-4.8/sparc-rtems/leon2/lib/librtemscpu.a(libnetworking_a-ip_input.o) (iptime)
/opt/rtems-4.8/sparc-rtems/leon2/lib/librtemscpu.a(libnetworking_a-kern_subr.o)
                              /opt/rtems-4.8/sparc-rtems/leon2/lib/librtemscpu.a(libnetworking_a-raw_ip.o) (hashinit)
/opt/rtems-4.8/sparc-rtems/leon2/lib/librtemscpu.a(libnetworking_a-raw_usrreq.o)
                              /opt/rtems-4.8/sparc-rtems/leon2/lib/librtemscpu.a(libnetworking_a-rtsock.o) (raw_init)
/opt/rtems-4.8/sparc-rtems/leon2/lib/librtemscpu.a(libnetworking_a-rtems_bsdnet_malloc_starvation.o)
                              /opt/rtems-4.8/sparc-rtems/leon2/lib/librtemscpu.a(libnetworking_a-rtems_glue.o) (rtems_bsdnet_malloc_starvation)
/opt/rtems-4.8/sparc-rtems/leon2/lib/librtemscpu.a(libnetworking_a-tcp_input.o)
                              /opt/rtems-4.8/sparc-rtems/leon2/lib/librtemscpu.a(libnetworking_a-in_proto.o) (tcp_input)
/opt/rtems-4.8/sparc-rtems/leon2/lib/librtemscpu.a(libnetworking_a-tcp_output.o)
                              /opt/rtems-4.8/sparc-rtems/leon2/lib/librtemscpu.a(libnetworking_a-tcp_input.o) (tcp_output)
/opt/rtems-4.8/sparc-rtems/leon2/lib/librtemscpu.a(libnetworking_a-tcp_subr.o)
                              /opt/rtems-4.8/sparc-rtems/leon2/lib/librtemscpu.a(libnetworking_a-in_proto.o) (tcp_drain)
/opt/rtems-4.8/sparc-rtems/leon2/lib/librtemscpu.a(libnetworking_a-tcp_timer.o)
                              /opt/rtems-4.8/sparc-rtems/leon2/lib/librtemscpu.a(libnetworking_a-tcp_input.o) (tcp_canceltimers)
/opt/rtems-4.8/sparc-rtems/leon2/lib/librtemscpu.a(libnetworking_a-tcp_usrreq.o)
                              /opt/rtems-4.8/sparc-rtems/leon2/lib/librtemscpu.a(libnetworking_a-in_rmx.o) (tcp_sendspace)
/opt/rtems-4.8/sparc-rtems/leon2/lib/librtemscpu.a(libnetworking_a-udp_usrreq.o)
                              /opt/rtems-4.8/sparc-rtems/leon2/lib/librtemscpu.a(libnetworking_a-in_proto.o) (udp_usrreq)
/opt/rtems-4.8/sparc-rtems/leon2/lib/librtemscpu.a(libposix_a-cond.o)
                              /opt/rtems-4.8/sparc-rtems/leon2/lib/librtemscpu.a(libsapi_a-posixapi.o) (_POSIX_Condition_variables_Manager_initialization)
/opt/rtems-4.8/sparc-rtems/leon2/lib/librtemscpu.a(libposix_a-key.o)
                              /opt/rtems-4.8/sparc-rtems/leon2/lib/librtemscpu.a(libsapi_a-posixapi.o) (_POSIX_Key_Manager_initialization)
/opt/rtems-4.8/sparc-rtems/leon2/lib/librtemscpu.a(libposix_a-mqueue.o)
                              /opt/rtems-4.8/sparc-rtems/leon2/lib/librtemscpu.a(libsapi_a-posixapi.o) (_POSIX_Message_queue_Manager_initialization)
/opt/rtems-4.8/sparc-rtems/leon2/lib/librtemscpu.a(libposix_a-mutex.o)
                              /opt/rtems-4.8/sparc-rtems/leon2/lib/librtemscpu.a(libsapi_a-posixapi.o) (_POSIX_Mutex_Manager_initialization)
/opt/rtems-4.8/sparc-rtems/leon2/lib/librtemscpu.a(libposix_a-pbarrier.o)
                              /opt/rtems-4.8/sparc-rtems/leon2/lib/librtemscpu.a(libsapi_a-posixapi.o) (_POSIX_Barrier_Manager_initialization)
/opt/rtems-4.8/sparc-rtems/leon2/lib/librtemscpu.a(libposix_a-prwlock.o)
                              /opt/rtems-4.8/sparc-rtems/leon2/lib/librtemscpu.a(libsapi_a-posixapi.o) (_POSIX_RWLock_Manager_initialization)
/opt/rtems-4.8/sparc-rtems/leon2/lib/librtemscpu.a(libposix_a-psignal.o)
                              /opt/rtems-4.8/sparc-rtems/leon2/lib/librtemscpu.a(libsapi_a-posixapi.o) (_POSIX_signals_Manager_Initialization)
/opt/rtems-4.8/sparc-rtems/leon2/lib/librtemscpu.a(libposix_a-psignalchecksignal.o)
                              /opt/rtems-4.8/sparc-rtems/leon2/lib/librtemscpu.a(libposix_a-psignal.o) (_POSIX_signals_Check_signal)
/opt/rtems-4.8/sparc-rtems/leon2/lib/librtemscpu.a(libposix_a-psignalclearsignals.o)
                              /opt/rtems-4.8/sparc-rtems/leon2/lib/librtemscpu.a(libposix_a-psignalchecksignal.o) (_POSIX_signals_Clear_signals)
/opt/rtems-4.8/sparc-rtems/leon2/lib/librtemscpu.a(libposix_a-pspin.o)
                              /opt/rtems-4.8/sparc-rtems/leon2/lib/librtemscpu.a(libsapi_a-posixapi.o) (_POSIX_Spinlock_Manager_initialization)
/opt/rtems-4.8/sparc-rtems/leon2/lib/librtemscpu.a(libposix_a-pthread.o)
                              /opt/rtems-4.8/sparc-rtems/leon2/lib/librtemscpu.a(libsapi_a-posixapi.o) (_POSIX_Threads_Manager_initialization)
/opt/rtems-4.8/sparc-rtems/leon2/lib/librtemscpu.a(libposix_a-pthreadexit.o)
                              /opt/rtems-4.8/sparc-rtems/leon2/lib/librtemscpu.a(libposix_a-pthread.o) (pthread_exit)
/opt/rtems-4.8/sparc-rtems/leon2/lib/librtemscpu.a(libposix_a-ptimer.o)
                              /opt/rtems-4.8/sparc-rtems/leon2/lib/librtemscpu.a(libsapi_a-posixapi.o) (_POSIX_Timer_Manager_initialization)
/opt/rtems-4.8/sparc-rtems/leon2/lib/librtemscpu.a(libposix_a-semaphore.o)
                              /opt/rtems-4.8/sparc-rtems/leon2/lib/librtemscpu.a(libsapi_a-posixapi.o) (_POSIX_Semaphore_Manager_initialization)
/opt/rtems-4.8/sparc-rtems/leon2/lib/librtemscpu.a(libposix_a-sigemptyset.o)
                              /opt/rtems-4.8/sparc-rtems/leon2/lib/librtemscpu.a(libposix_a-psignal.o) (sigemptyset)
/opt/rtems-4.8/sparc-rtems/leon2/lib/librtemscpu.a(librtems_a-barrier.o)
                              /opt/rtems-4.8/sparc-rtems/leon2/lib/librtemscpu.a(libsapi_a-rtemsapi.o) (_Barrier_Manager_initialization)
/opt/rtems-4.8/sparc-rtems/leon2/lib/librtemscpu.a(librtems_a-barrierdata.o)
                              /opt/rtems-4.8/sparc-rtems/leon2/lib/librtemscpu.a(librtems_a-barrier.o) (_Barrier_Information)
/opt/rtems-4.8/sparc-rtems/leon2/lib/librtemscpu.a(librtems_a-dpmem.o)
                              /opt/rtems-4.8/sparc-rtems/leon2/lib/librtemscpu.a(libsapi_a-rtemsapi.o) (_Dual_ported_memory_Manager_initialization)
/opt/rtems-4.8/sparc-rtems/leon2/lib/librtemscpu.a(librtems_a-dpmemdata.o)
                              /opt/rtems-4.8/sparc-rtems/leon2/lib/librtemscpu.a(librtems_a-dpmem.o) (_Dual_ported_memory_Information)
/opt/rtems-4.8/sparc-rtems/leon2/lib/librtemscpu.a(librtems_a-event.o)
                              /opt/rtems-4.8/sparc-rtems/leon2/lib/librtemscpu.a(libsapi_a-rtemsapi.o) (_Event_Manager_initialization)
/opt/rtems-4.8/sparc-rtems/leon2/lib/librtemscpu.a(librtems_a-eventdata.o)
                              /opt/rtems-4.8/sparc-rtems/leon2/lib/librtemscpu.a(librtems_a-eventseize.o) (_Event_Sync_state)
/opt/rtems-4.8/sparc-rtems/leon2/lib/librtemscpu.a(librtems_a-intr.o)
                              /opt/rtems-4.8/sparc-rtems/leon2/lib/librtemscpu.a(libsapi_a-rtemsapi.o) (_Interrupt_Manager_initialization)
/opt/rtems-4.8/sparc-rtems/leon2/lib/librtemscpu.a(librtems_a-msg.o)
                              /opt/rtems-4.8/sparc-rtems/leon2/lib/librtemscpu.a(libsapi_a-rtemsapi.o) (_Message_queue_Manager_initialization)
/opt/rtems-4.8/sparc-rtems/leon2/lib/librtemscpu.a(librtems_a-msgdata.o)
                              /opt/rtems-4.8/sparc-rtems/leon2/lib/librtemscpu.a(librtems_a-msg.o) (_Message_queue_Information)
/opt/rtems-4.8/sparc-rtems/leon2/lib/librtemscpu.a(librtems_a-part.o)
                              /opt/rtems-4.8/sparc-rtems/leon2/lib/librtemscpu.a(libsapi_a-rtemsapi.o) (_Partition_Manager_initialization)
/opt/rtems-4.8/sparc-rtems/leon2/lib/librtemscpu.a(librtems_a-partdata.o)
                              /opt/rtems-4.8/sparc-rtems/leon2/lib/librtemscpu.a(librtems_a-part.o) (_Partition_Information)
/opt/rtems-4.8/sparc-rtems/leon2/lib/librtemscpu.a(librtems_a-ratemon.o)
                              /opt/rtems-4.8/sparc-rtems/leon2/lib/librtemscpu.a(libsapi_a-rtemsapi.o) (_Rate_monotonic_Manager_initialization)
/opt/rtems-4.8/sparc-rtems/leon2/lib/librtemscpu.a(librtems_a-region.o)
                              /opt/rtems-4.8/sparc-rtems/leon2/lib/librtemscpu.a(libsapi_a-rtemsapi.o) (_Region_Manager_initialization)
/opt/rtems-4.8/sparc-rtems/leon2/lib/librtemscpu.a(librtems_a-regiondata.o)
                              /opt/rtems-4.8/sparc-rtems/leon2/lib/librtemscpu.a(librtems_a-region.o) (_Region_Information)
/opt/rtems-4.8/sparc-rtems/leon2/lib/librtemscpu.a(librtems_a-rtemstimer.o)
                              /opt/rtems-4.8/sparc-rtems/leon2/lib/librtemscpu.a(libsapi_a-rtemsapi.o) (_Timer_Manager_initialization)
/opt/rtems-4.8/sparc-rtems/leon2/lib/librtemscpu.a(librtems_a-rtemstimerdata.o)
                              /opt/rtems-4.8/sparc-rtems/leon2/lib/librtemscpu.a(librtems_a-rtemstimer.o) (_Timer_Information)
/opt/rtems-4.8/sparc-rtems/leon2/lib/librtemscpu.a(librtems_a-sem.o)
                              /opt/rtems-4.8/sparc-rtems/leon2/lib/librtemscpu.a(libsapi_a-rtemsapi.o) (_Semaphore_Manager_initialization)
/opt/rtems-4.8/sparc-rtems/leon2/lib/librtemscpu.a(librtems_a-signal.o)
                              /opt/rtems-4.8/sparc-rtems/leon2/lib/librtemscpu.a(libsapi_a-rtemsapi.o) (_Signal_Manager_initialization)
/opt/rtems-4.8/sparc-rtems/leon2/lib/librtemscpu.a(librtems_a-tasks.o)
                              /opt/rtems-4.8/sparc-rtems/leon2/lib/librtemscpu.a(libsapi_a-rtemsapi.o) (_RTEMS_tasks_Manager_initialization)
/opt/rtems-4.8/sparc-rtems/leon2/lib/librtemscpu.a(libsapi_a-debug.o)
                              /opt/rtems-4.8/sparc-rtems/leon2/lib/librtemscpu.a(libsapi_a-exinit.o) (_Debug_Manager_initialization)
/opt/rtems-4.8/sparc-rtems/leon2/lib/librtemscpu.a(libsapi_a-exshutdown.o)
                              /opt/rtems-4.8/sparc-rtems/leon2/lib/librtemscpu.a(libcsupport_a-newlibc_exit.o) (rtems_shutdown_executive)
/opt/rtems-4.8/sparc-rtems/leon2/lib/librtemscpu.a(libscore_a-chain.o)
                              /opt/rtems-4.8/sparc-rtems/leon2/lib/librtemscpu.a(libscore_a-objectextendinformation.o) (_Chain_Initialize)
/opt/rtems-4.8/sparc-rtems/leon2/lib/librtemscpu.a(libscore_a-chainextract.o)
                              /opt/rtems-4.8/sparc-rtems/leon2/lib/librtemscpu.a(libscore_a-objectshrinkinformation.o) (_Chain_Extract)
/opt/rtems-4.8/sparc-rtems/leon2/lib/librtemscpu.a(libscore_a-heapextend.o)
                              /opt/rtems-4.8/sparc-rtems/leon2/lib/librtemscpu.a(libscore_a-pheapextend.o) (_Heap_Extend)
/opt/rtems-4.8/sparc-rtems/leon2/lib/librtemscpu.a(libscore_a-heapresizeblock.o)
                              /opt/rtems-4.8/sparc-rtems/leon2/lib/librtemscpu.a(libscore_a-pheapresizeblock.o) (_Heap_Resize_block)
/opt/rtems-4.8/sparc-rtems/leon2/lib/librtemscpu.a(libscore_a-heapsizeofuserarea.o)
                              /opt/rtems-4.8/sparc-rtems/leon2/lib/librtemscpu.a(libscore_a-pheapgetblocksize.o) (_Heap_Size_of_user_area)
/opt/rtems-4.8/sparc-rtems/leon2/lib/librtemscpu.a(libscore_a-objectcomparenameraw.o)
                              /opt/rtems-4.8/sparc-rtems/leon2/lib/librtemscpu.a(libscore_a-objectnametoid.o) (_Objects_Compare_name_raw)
/opt/rtems-4.8/sparc-rtems/leon2/lib/librtemscpu.a(libscore_a-objectcomparenamestring.o)
                              /opt/rtems-4.8/sparc-rtems/leon2/lib/librtemscpu.a(libscore_a-objectnametoid.o) (_Objects_Compare_name_string)
/opt/rtems-4.8/sparc-rtems/leon2/lib/librtemscpu.a(libscore_a-threadloadenv.o)
                              /opt/rtems-4.8/sparc-rtems/leon2/lib/librtemscpu.a(libscore_a-threadstart.o) (_Thread_Load_environment)
/opt/rtems-4.8/sparc-rtems/leon2/lib/librtemscpu.a(libscore_a-threadqextract.o)
                              /opt/rtems-4.8/sparc-rtems/leon2/lib/librtemscpu.a(libscore_a-threadqextractwithproxy.o) (_Thread_queue_Extract)
/opt/rtems-4.8/sparc-rtems/leon2/lib/librtemscpu.a(libscore_a-threadqextractfifo.o)
                              /opt/rtems-4.8/sparc-rtems/leon2/lib/librtemscpu.a(libscore_a-threadqextract.o) (_Thread_queue_Extract_fifo)
/opt/rtems-4.8/sparc-rtems/leon2/lib/librtemscpu.a(libscore_a-threadqextractpriority.o)
                              /opt/rtems-4.8/sparc-rtems/leon2/lib/librtemscpu.a(libscore_a-threadqrequeue.o) (_Thread_queue_Extract_priority_helper)
/opt/rtems-4.8/sparc-rtems/leon2/lib/librtemscpu.a(libscore_a-threadready.o)
                              /opt/rtems-4.8/sparc-rtems/leon2/lib/librtemscpu.a(libscore_a-threadstart.o) (_Thread_Ready)
/opt/rtems-4.8/sparc-rtems/leon2/lib/librtemscpu.a(libscore_a-threadresettimeslice.o)
                              /opt/rtems-4.8/sparc-rtems/leon2/lib/librtemscpu.a(libscore_a-threadtickletimeslice.o) (_Thread_Reset_timeslice)
/opt/rtems-4.8/sparc-rtems/leon2/lib/librtemscpu.a(libscore_a-timespectoticks.o)
                              /opt/rtems-4.8/sparc-rtems/leon2/lib/librtemscpu.a(libposix_a-pthread.o) (_Timespec_To_ticks)
/opt/rtems-4.8/sparc-rtems/leon2/lib/librtemscpu.a(libscore_a-userextaddapiset.o)
                              /opt/rtems-4.8/sparc-rtems/leon2/lib/librtemscpu.a(libposix_a-pthread.o) (_User_extensions_Add_API_set)
/opt/rtems-4.8/sparc-rtems/leon2/lib/librtemscpu.a(deviceio.o)
                              /opt/rtems-4.8/sparc-rtems/leon2/lib/librtemscpu.a(imfs_handlers_device.o) (device_lseek)
/opt/rtems-4.8/sparc-rtems/leon2/lib/librtemscpu.a(imfs_config.o)
                              /opt/rtems-4.8/sparc-rtems/leon2/lib/librtemscpu.a(imfs_initsupp.o) (IMFS_LIMITS_AND_OPTIONS)
/opt/rtems-4.8/sparc-rtems/leon2/lib/librtemscpu.a(imfs_creat.o)
                              /opt/rtems-4.8/sparc-rtems/leon2/lib/librtemscpu.a(imfs_initsupp.o) (IMFS_create_node)
/opt/rtems-4.8/sparc-rtems/leon2/lib/librtemscpu.a(imfs_fchmod.o)
                              /opt/rtems-4.8/sparc-rtems/leon2/lib/librtemscpu.a(imfs_handlers_device.o) (IMFS_fchmod)
/opt/rtems-4.8/sparc-rtems/leon2/lib/librtemscpu.a(libcsupport_a-assocnamebylocal.o)
                              /opt/rtems-4.8/sparc-rtems/leon2/lib/librtemscpu.a(libcsupport_a-error.o) (rtems_assoc_name_by_local)
/opt/rtems-4.8/sparc-rtems/leon2/lib/librtemscpu.a(libcsupport_a-assocptrbylocal.o)
                              /opt/rtems-4.8/sparc-rtems/leon2/lib/librtemscpu.a(libcsupport_a-assocnamebylocal.o) (rtems_assoc_ptr_by_local)
/opt/rtems-4.8/sparc-rtems/leon2/lib/librtemscpu.a(libcsupport_a-assocremotebylocal.o)
                              /opt/rtems-4.8/sparc-rtems/leon2/lib/librtemscpu.a(deviceio.o) (rtems_assoc_remote_by_local)
/opt/rtems-4.8/sparc-rtems/leon2/lib/librtemscpu.a(libcsupport_a-ftruncate.o)
                              /opt/rtems-4.8/sparc-rtems/leon2/lib/librtemscpu.a(libcsupport_a-open.o) (ftruncate)
/opt/rtems-4.8/sparc-rtems/leon2/lib/librtemscpu.a(libnetworking_a-igmp.o)
                              /opt/rtems-4.8/sparc-rtems/leon2/lib/librtemscpu.a(libnetworking_a-in_proto.o) (igmp_slowtimo)
/opt/rtems-4.8/sparc-rtems/leon2/lib/librtemscpu.a(libnetworking_a-raw_cb.o)
                              /opt/rtems-4.8/sparc-rtems/leon2/lib/librtemscpu.a(libnetworking_a-raw_usrreq.o) (raw_disconnect)
/opt/rtems-4.8/sparc-rtems/leon2/lib/librtemscpu.a(libposix_a-keyrundestructors.o)
                              /opt/rtems-4.8/sparc-rtems/leon2/lib/librtemscpu.a(libposix_a-pthread.o) (_POSIX_Keys_Run_destructors)
/opt/rtems-4.8/sparc-rtems/leon2/lib/librtemscpu.a(libposix_a-psignalclearprocesssignals.o)
                              /opt/rtems-4.8/sparc-rtems/leon2/lib/librtemscpu.a(libposix_a-psignalclearsignals.o) (_POSIX_signals_Clear_process_signals)
/opt/rtems-4.8/sparc-rtems/leon2/lib/librtemscpu.a(librtems_a-taskmode.o)
                              /opt/rtems-4.8/sparc-rtems/leon2/lib/librtemscpu.a(librtems_a-tasks.o) (rtems_task_mode)
/opt/rtems-4.8/sparc-rtems/leon2/lib/librtemscpu.a(libsapi_a-ioclose.o)
                              /opt/rtems-4.8/sparc-rtems/leon2/lib/librtemscpu.a(deviceio.o) (rtems_io_close)
/opt/rtems-4.8/sparc-rtems/leon2/lib/librtemscpu.a(libsapi_a-iocontrol.o)
                              /opt/rtems-4.8/sparc-rtems/leon2/lib/librtemscpu.a(deviceio.o) (rtems_io_control)
/opt/rtems-4.8/sparc-rtems/leon2/lib/librtemscpu.a(libsapi_a-ioopen.o)
                              /opt/rtems-4.8/sparc-rtems/leon2/lib/librtemscpu.a(deviceio.o) (rtems_io_open)
/opt/rtems-4.8/sparc-rtems/leon2/lib/librtemscpu.a(libsapi_a-ioread.o)
                              /opt/rtems-4.8/sparc-rtems/leon2/lib/librtemscpu.a(deviceio.o) (rtems_io_read)
/opt/rtems-4.8/sparc-rtems/leon2/lib/librtemscpu.a(libsapi_a-iowrite.o)
                              /opt/rtems-4.8/sparc-rtems/leon2/lib/librtemscpu.a(deviceio.o) (rtems_io_write)
/opt/rtems-4.8/sparc-rtems/leon2/lib/librtemscpu.a(libscore_a-threadevaluatemode.o)
                              /opt/rtems-4.8/sparc-rtems/leon2/lib/librtemscpu.a(librtems_a-taskmode.o) (_Thread_Evaluate_mode)
/opt/rtems-4.8/sparc-rtems/leon2/lib/librtemscpu.a(libscore_a-threadhandler.o)
                              /opt/rtems-4.8/sparc-rtems/leon2/lib/librtemscpu.a(libscore_a-threadloadenv.o) (_Thread_Handler)
/opt/rtems-4.8/sparc-rtems/leon2/lib/librtemscpu.a(libcsupport_a-assocnamebad.o)
                              /opt/rtems-4.8/sparc-rtems/leon2/lib/librtemscpu.a(libcsupport_a-assocnamebylocal.o) (rtems_assoc_name_bad)
/opt/rtems-4.8-1.1.3/bin/../lib/gcc/sparc-rtems/4.2.4/../../../../sparc-rtems/lib/soft/libc.a(lib_a-abort.o)
                              /opt/rtems-4.8/sparc-rtems/leon2/lib/librtemscpu.a(libcsupport_a-error.o) (abort)
/opt/rtems-4.8-1.1.3/bin/../lib/gcc/sparc-rtems/4.2.4/../../../../sparc-rtems/lib/soft/libc.a(lib_a-atexit.o)
                              /opt/rtems-4.8/sparc-rtems/leon2/lib/librtemsbsp.a(clock.rel) (atexit)
/opt/rtems-4.8-1.1.3/bin/../lib/gcc/sparc-rtems/4.2.4/../../../../sparc-rtems/lib/soft/libc.a(lib_a-bcmp.o)
                              /opt/rtems-4.8/sparc-rtems/leon2/lib/librtemscpu.a(libnetworking_a-if.o) (bcmp)
/opt/rtems-4.8-1.1.3/bin/../lib/gcc/sparc-rtems/4.2.4/../../../../sparc-rtems/lib/soft/libc.a(lib_a-ctype_.o)
                              /opt/rtems-4.8/sparc-rtems/leon2/lib/librtemscpu.a(libc_a-inet_addr.o) (__ctype_ptr)
/opt/rtems-4.8-1.1.3/bin/../lib/gcc/sparc-rtems/4.2.4/../../../../sparc-rtems/lib/soft/libc.a(lib_a-errno.o)
                              /opt/rtems-4.8/sparc-rtems/leon2/lib/librtemsbsp.a(startup.rel) (__errno)
/opt/rtems-4.8-1.1.3/bin/../lib/gcc/sparc-rtems/4.2.4/../../../../sparc-rtems/lib/soft/libc.a(lib_a-exit.o)
                              libosal_rtems_rastaleon2.a(osmut.o) (exit)
/opt/rtems-4.8-1.1.3/bin/../lib/gcc/sparc-rtems/4.2.4/../../../../sparc-rtems/lib/soft/libc.a(lib_a-fclose.o)
                              /opt/rtems-4.8/sparc-rtems/leon2/lib/librtemscpu.a(libcsupport_a-newlibc.o) (fclose)
/opt/rtems-4.8-1.1.3/bin/../lib/gcc/sparc-rtems/4.2.4/../../../../sparc-rtems/lib/soft/libc.a(lib_a-fflush.o)
                              /opt/rtems-4.8/sparc-rtems/leon2/lib/librtemscpu.a(libcsupport_a-error.o) (fflush)
/opt/rtems-4.8-1.1.3/bin/../lib/gcc/sparc-rtems/4.2.4/../../../../sparc-rtems/lib/soft/libc.a(lib_a-fileno.o)
                              /opt/rtems-4.8/sparc-rtems/leon2/lib/librtemscpu.a(libcsupport_a-newlibc.o) (fileno)
/opt/rtems-4.8-1.1.3/bin/../lib/gcc/sparc-rtems/4.2.4/../../../../sparc-rtems/lib/soft/libc.a(lib_a-findfp.o)
                              /opt/rtems-4.8-1.1.3/bin/../lib/gcc/sparc-rtems/4.2.4/../../../../sparc-rtems/lib/soft/libc.a(lib_a-fclose.o) (__sfp_lock_acquire)
/opt/rtems-4.8-1.1.3/bin/../lib/gcc/sparc-rtems/4.2.4/../../../../sparc-rtems/lib/soft/libc.a(lib_a-fprintf.o)
                              /opt/rtems-4.8/sparc-rtems/leon2/lib/librtemscpu.a(libcsupport_a-error.o) (fprintf)
/opt/rtems-4.8-1.1.3/bin/../lib/gcc/sparc-rtems/4.2.4/../../../../sparc-rtems/lib/soft/libc.a(lib_a-fwalk.o)
                              /opt/rtems-4.8/sparc-rtems/leon2/lib/librtemscpu.a(libcsupport_a-newlibc.o) (_fwalk)
/opt/rtems-4.8-1.1.3/bin/../lib/gcc/sparc-rtems/4.2.4/../../../../sparc-rtems/lib/soft/libc.a(lib_a-gmtime_r.o)
                              /opt/rtems-4.8/sparc-rtems/leon2/lib/librtemscpu.a(librtems_a-clockget.o) (gmtime_r)
/opt/rtems-4.8-1.1.3/bin/../lib/gcc/sparc-rtems/4.2.4/../../../../sparc-rtems/lib/soft/libc.a(lib_a-impure.o)
                              /opt/rtems-4.8/sparc-rtems/leon2/lib/librtemscpu.a(libcsupport_a-newlibc.o) (_impure_ptr)
/opt/rtems-4.8-1.1.3/bin/../lib/gcc/sparc-rtems/4.2.4/../../../../sparc-rtems/lib/soft/libc.a(lib_a-memcmp.o)
                              /opt/rtems-4.8/sparc-rtems/leon2/lib/librtemscpu.a(check.o) (memcmp)
/opt/rtems-4.8-1.1.3/bin/../lib/gcc/sparc-rtems/4.2.4/../../../../sparc-rtems/lib/soft/libc.a(lib_a-memcpy.o)
                              /opt/libbackport/lib/libbackport_leon2-4.10-4.8.a(ambapp_bus.o) (memcpy)
/opt/rtems-4.8-1.1.3/bin/../lib/gcc/sparc-rtems/4.2.4/../../../../sparc-rtems/lib/soft/libc.a(lib_a-memset.o)
                              /opt/libbackport/lib/libbackport_leon2-4.10-4.8.a(ambapp_bus.o) (memset)
/opt/rtems-4.8-1.1.3/bin/../lib/gcc/sparc-rtems/4.2.4/../../../../sparc-rtems/lib/soft/libc.a(lib_a-mktm_r.o)
                              /opt/rtems-4.8-1.1.3/bin/../lib/gcc/sparc-rtems/4.2.4/../../../../sparc-rtems/lib/soft/libc.a(lib_a-gmtime_r.o) (_mktm_r)
/opt/rtems-4.8-1.1.3/bin/../lib/gcc/sparc-rtems/4.2.4/../../../../sparc-rtems/lib/soft/libc.a(lib_a-printf.o)
                              /home/aitor/workspace/rasta-sw/osal-repo/trunk/samples/misc/soclient.o (printf)
/opt/rtems-4.8-1.1.3/bin/../lib/gcc/sparc-rtems/4.2.4/../../../../sparc-rtems/lib/soft/libc.a(lib_a-putchar.o)
                              libosal_rtems_rastaleon2.a(osapi.o) (putchar)
/opt/rtems-4.8-1.1.3/bin/../lib/gcc/sparc-rtems/4.2.4/../../../../sparc-rtems/lib/soft/libc.a(lib_a-puts.o)
                              /home/aitor/workspace/rasta-sw/osal-repo/trunk/samples/misc/soclient.o (puts)
/opt/rtems-4.8-1.1.3/bin/../lib/gcc/sparc-rtems/4.2.4/../../../../sparc-rtems/lib/soft/libc.a(lib_a-raise.o)
                              /opt/rtems-4.8-1.1.3/bin/../lib/gcc/sparc-rtems/4.2.4/../../../../sparc-rtems/lib/soft/libc.a(lib_a-abort.o) (raise)
/opt/rtems-4.8-1.1.3/bin/../lib/gcc/sparc-rtems/4.2.4/../../../../sparc-rtems/lib/soft/libc.a(lib_a-reent.o)
                              /opt/rtems-4.8/sparc-rtems/leon2/lib/librtemscpu.a(libcsupport_a-newlibc_exit.o) (_wrapup_reent)
/opt/rtems-4.8-1.1.3/bin/../lib/gcc/sparc-rtems/4.2.4/../../../../sparc-rtems/lib/soft/libc.a(lib_a-snprintf.o)
                              /opt/rtems-4.8/sparc-rtems/leon2/lib/librtemscpu.a(libnetworking_a-kern_sysctl.o) (snprintf)
/opt/rtems-4.8-1.1.3/bin/../lib/gcc/sparc-rtems/4.2.4/../../../../sparc-rtems/lib/soft/libc.a(lib_a-sprintf.o)
                              /opt/libbackport/lib/libbackport_leon2-4.10-4.8.a(b1553brm.o) (sprintf)
/opt/rtems-4.8-1.1.3/bin/../lib/gcc/sparc-rtems/4.2.4/../../../../sparc-rtems/lib/soft/libc.a(lib_a-stdio.o)
                              /opt/rtems-4.8-1.1.3/bin/../lib/gcc/sparc-rtems/4.2.4/../../../../sparc-rtems/lib/soft/libc.a(lib_a-findfp.o) (__sclose)
/opt/rtems-4.8-1.1.3/bin/../lib/gcc/sparc-rtems/4.2.4/../../../../sparc-rtems/lib/soft/libc.a(lib_a-strchr.o)
                              /opt/rtems-4.8/sparc-rtems/leon2/lib/librtemscpu.a(libc_a-inet_pton.o) (strchr)
/opt/rtems-4.8-1.1.3/bin/../lib/gcc/sparc-rtems/4.2.4/../../../../sparc-rtems/lib/soft/libc.a(lib_a-strcmp.o)
                              /opt/libbackport/lib/libbackport_leon2-4.10-4.8.a(drvmgr_res.o) (strcmp)
/opt/rtems-4.8-1.1.3/bin/../lib/gcc/sparc-rtems/4.2.4/../../../../sparc-rtems/lib/soft/libc.a(lib_a-strcpy.o)
                              /opt/libbackport/lib/libbackport_leon2-4.10-4.8.a(drvmgr_drvinf.o) (strcpy)
/opt/rtems-4.8-1.1.3/bin/../lib/gcc/sparc-rtems/4.2.4/../../../../sparc-rtems/lib/soft/libc.a(lib_a-strdup.o)
                              /opt/rtems-4.8/sparc-rtems/leon2/lib/librtemscpu.a(libnetworking_a-rtems_glue.o) (strdup)
/opt/rtems-4.8-1.1.3/bin/../lib/gcc/sparc-rtems/4.2.4/../../../../sparc-rtems/lib/soft/libc.a(lib_a-strdup_r.o)
                              /opt/rtems-4.8-1.1.3/bin/../lib/gcc/sparc-rtems/4.2.4/../../../../sparc-rtems/lib/soft/libc.a(lib_a-strdup.o) (_strdup_r)
/opt/rtems-4.8-1.1.3/bin/../lib/gcc/sparc-rtems/4.2.4/../../../../sparc-rtems/lib/soft/libc.a(lib_a-strerror.o)
                              /opt/rtems-4.8/sparc-rtems/leon2/lib/librtemscpu.a(libnetworking_a-rtems_glue.o) (strerror)
/opt/rtems-4.8-1.1.3/bin/../lib/gcc/sparc-rtems/4.2.4/../../../../sparc-rtems/lib/soft/libc.a(lib_a-strlcpy.o)
                              /opt/rtems-4.8/sparc-rtems/leon2/lib/librtemscpu.a(libnetworking_a-kern_sysctl.o) (strlcpy)
/opt/rtems-4.8-1.1.3/bin/../lib/gcc/sparc-rtems/4.2.4/../../../../sparc-rtems/lib/soft/libc.a(lib_a-strlen.o)
                              /opt/libbackport/lib/libbackport_leon2-4.10-4.8.a(drvmgr_print.o) (strlen)
/opt/rtems-4.8-1.1.3/bin/../lib/gcc/sparc-rtems/4.2.4/../../../../sparc-rtems/lib/soft/libc.a(lib_a-strncmp.o)
                              /opt/rtems-4.8/sparc-rtems/leon2/lib/librtemscpu.a(libscore_a-objectcomparenamestring.o) (strncmp)
/opt/rtems-4.8-1.1.3/bin/../lib/gcc/sparc-rtems/4.2.4/../../../../sparc-rtems/lib/soft/libc.a(lib_a-strncpy.o)
                              /opt/rtems-4.8/sparc-rtems/leon2/lib/librtemscpu.a(libnetworking_a-rtems_glue.o) (strncpy)
/opt/rtems-4.8-1.1.3/bin/../lib/gcc/sparc-rtems/4.2.4/../../../../sparc-rtems/lib/soft/libc.a(lib_a-tzlock.o)
                              /opt/rtems-4.8-1.1.3/bin/../lib/gcc/sparc-rtems/4.2.4/../../../../sparc-rtems/lib/soft/libc.a(lib_a-mktm_r.o) (__tz_lock)
/opt/rtems-4.8-1.1.3/bin/../lib/gcc/sparc-rtems/4.2.4/../../../../sparc-rtems/lib/soft/libc.a(lib_a-tzvars.o)
                              /opt/rtems-4.8-1.1.3/bin/../lib/gcc/sparc-rtems/4.2.4/../../../../sparc-rtems/lib/soft/libc.a(lib_a-mktm_r.o) (_daylight)
/opt/rtems-4.8-1.1.3/bin/../lib/gcc/sparc-rtems/4.2.4/../../../../sparc-rtems/lib/soft/libc.a(lib_a-u_strerr.o)
                              /opt/rtems-4.8-1.1.3/bin/../lib/gcc/sparc-rtems/4.2.4/../../../../sparc-rtems/lib/soft/libc.a(lib_a-strerror.o) (_user_strerror)
/opt/rtems-4.8-1.1.3/bin/../lib/gcc/sparc-rtems/4.2.4/../../../../sparc-rtems/lib/soft/libc.a(lib_a-vfprintf.o)
                              /opt/rtems-4.8-1.1.3/bin/../lib/gcc/sparc-rtems/4.2.4/../../../../sparc-rtems/lib/soft/libc.a(lib_a-printf.o) (_vfprintf_r)
/opt/rtems-4.8-1.1.3/bin/../lib/gcc/sparc-rtems/4.2.4/../../../../sparc-rtems/lib/soft/libc.a(lib_a-vprintf.o)
                              /opt/rtems-4.8/sparc-rtems/leon2/lib/librtemscpu.a(libnetworking_a-rtems_glue.o) (vprintf)
/opt/rtems-4.8-1.1.3/bin/../lib/gcc/sparc-rtems/4.2.4/../../../../sparc-rtems/lib/soft/libc.a(lib_a-wcrtomb.o)
                              /opt/rtems-4.8-1.1.3/bin/../lib/gcc/sparc-rtems/4.2.4/../../../../sparc-rtems/lib/soft/libc.a(lib_a-vfprintf.o) (_wcrtomb_r)
/opt/rtems-4.8-1.1.3/bin/../lib/gcc/sparc-rtems/4.2.4/../../../../sparc-rtems/lib/soft/libc.a(lib_a-wcsrtombs.o)
                              /opt/rtems-4.8-1.1.3/bin/../lib/gcc/sparc-rtems/4.2.4/../../../../sparc-rtems/lib/soft/libc.a(lib_a-vfprintf.o) (_wcsrtombs_r)
/opt/rtems-4.8-1.1.3/bin/../lib/gcc/sparc-rtems/4.2.4/../../../../sparc-rtems/lib/soft/libc.a(lib_a-wctomb_r.o)
                              /opt/rtems-4.8-1.1.3/bin/../lib/gcc/sparc-rtems/4.2.4/../../../../sparc-rtems/lib/soft/libc.a(lib_a-wcrtomb.o) (_wctomb_r)
/opt/rtems-4.8-1.1.3/bin/../lib/gcc/sparc-rtems/4.2.4/../../../../sparc-rtems/lib/soft/libc.a(lib_a-wsetup.o)
                              /opt/rtems-4.8-1.1.3/bin/../lib/gcc/sparc-rtems/4.2.4/../../../../sparc-rtems/lib/soft/libc.a(lib_a-vfprintf.o) (__swsetup)
/opt/rtems-4.8-1.1.3/bin/../lib/gcc/sparc-rtems/4.2.4/../../../../sparc-rtems/lib/soft/libc.a(lib_a-__atexit.o)
                              /opt/rtems-4.8-1.1.3/bin/../lib/gcc/sparc-rtems/4.2.4/../../../../sparc-rtems/lib/soft/libc.a(lib_a-atexit.o) (__register_exitproc)
/opt/rtems-4.8-1.1.3/bin/../lib/gcc/sparc-rtems/4.2.4/../../../../sparc-rtems/lib/soft/libc.a(lib_a-__call_atexit.o)
                              /opt/rtems-4.8-1.1.3/bin/../lib/gcc/sparc-rtems/4.2.4/../../../../sparc-rtems/lib/soft/libc.a(lib_a-exit.o) (__call_exitprocs)
/opt/rtems-4.8-1.1.3/bin/../lib/gcc/sparc-rtems/4.2.4/../../../../sparc-rtems/lib/soft/libc.a(lib_a-dtoa.o)
                              /opt/rtems-4.8-1.1.3/bin/../lib/gcc/sparc-rtems/4.2.4/../../../../sparc-rtems/lib/soft/libc.a(lib_a-vfprintf.o) (_dtoa_r)
/opt/rtems-4.8-1.1.3/bin/../lib/gcc/sparc-rtems/4.2.4/../../../../sparc-rtems/lib/soft/libc.a(lib_a-fvwrite.o)
                              /opt/rtems-4.8-1.1.3/bin/../lib/gcc/sparc-rtems/4.2.4/../../../../sparc-rtems/lib/soft/libc.a(lib_a-puts.o) (__sfvwrite_r)
/opt/rtems-4.8-1.1.3/bin/../lib/gcc/sparc-rtems/4.2.4/../../../../sparc-rtems/lib/soft/libc.a(lib_a-gettzinfo.o)
                              /opt/rtems-4.8-1.1.3/bin/../lib/gcc/sparc-rtems/4.2.4/../../../../sparc-rtems/lib/soft/libc.a(lib_a-mktm_r.o) (__gettzinfo)
/opt/rtems-4.8-1.1.3/bin/../lib/gcc/sparc-rtems/4.2.4/../../../../sparc-rtems/lib/soft/libc.a(lib_a-locale.o)
                              /opt/rtems-4.8-1.1.3/bin/../lib/gcc/sparc-rtems/4.2.4/../../../../sparc-rtems/lib/soft/libc.a(lib_a-vfprintf.o) (localeconv)
/opt/rtems-4.8-1.1.3/bin/../lib/gcc/sparc-rtems/4.2.4/../../../../sparc-rtems/lib/soft/libc.a(lib_a-makebuf.o)
                              /opt/rtems-4.8-1.1.3/bin/../lib/gcc/sparc-rtems/4.2.4/../../../../sparc-rtems/lib/soft/libc.a(lib_a-wsetup.o) (__smakebuf)
/opt/rtems-4.8-1.1.3/bin/../lib/gcc/sparc-rtems/4.2.4/../../../../sparc-rtems/lib/soft/libc.a(lib_a-memchr.o)
                              /opt/rtems-4.8-1.1.3/bin/../lib/gcc/sparc-rtems/4.2.4/../../../../sparc-rtems/lib/soft/libc.a(lib_a-vfprintf.o) (memchr)
/opt/rtems-4.8-1.1.3/bin/../lib/gcc/sparc-rtems/4.2.4/../../../../sparc-rtems/lib/soft/libc.a(lib_a-memmove.o)
                              /opt/rtems-4.8-1.1.3/bin/../lib/gcc/sparc-rtems/4.2.4/../../../../sparc-rtems/lib/soft/libc.a(lib_a-fvwrite.o) (memmove)
/opt/rtems-4.8-1.1.3/bin/../lib/gcc/sparc-rtems/4.2.4/../../../../sparc-rtems/lib/soft/libc.a(lib_a-mprec.o)
                              /opt/rtems-4.8-1.1.3/bin/../lib/gcc/sparc-rtems/4.2.4/../../../../sparc-rtems/lib/soft/libc.a(lib_a-dtoa.o) (_Bfree)
/opt/rtems-4.8-1.1.3/bin/../lib/gcc/sparc-rtems/4.2.4/../../../../sparc-rtems/lib/soft/libc.a(lib_a-putc.o)
                              /opt/rtems-4.8-1.1.3/bin/../lib/gcc/sparc-rtems/4.2.4/../../../../sparc-rtems/lib/soft/libc.a(lib_a-putchar.o) (_putc_r)
/opt/rtems-4.8-1.1.3/bin/../lib/gcc/sparc-rtems/4.2.4/../../../../sparc-rtems/lib/soft/libc.a(lib_a-s_isinfd.o)
                              /opt/rtems-4.8-1.1.3/bin/../lib/gcc/sparc-rtems/4.2.4/../../../../sparc-rtems/lib/soft/libc.a(lib_a-vfprintf.o) (__isinfd)
/opt/rtems-4.8-1.1.3/bin/../lib/gcc/sparc-rtems/4.2.4/../../../../sparc-rtems/lib/soft/libc.a(lib_a-s_isnand.o)
                              /opt/rtems-4.8-1.1.3/bin/../lib/gcc/sparc-rtems/4.2.4/../../../../sparc-rtems/lib/soft/libc.a(lib_a-vfprintf.o) (__isnand)
/opt/rtems-4.8-1.1.3/bin/../lib/gcc/sparc-rtems/4.2.4/../../../../sparc-rtems/lib/soft/libc.a(lib_a-wbuf.o)
                              /opt/rtems-4.8-1.1.3/bin/../lib/gcc/sparc-rtems/4.2.4/../../../../sparc-rtems/lib/soft/libc.a(lib_a-putc.o) (__swbuf_r)
/opt/rtems-4.8-1.1.3/bin/../lib/gcc/sparc-rtems/4.2.4/soft/libgcc.a(_udivdi3.o)
                              /opt/rtems-4.8-1.1.3/bin/../lib/gcc/sparc-rtems/4.2.4/../../../../sparc-rtems/lib/soft/libc.a(lib_a-vfprintf.o) (__udivdi3)
/opt/rtems-4.8-1.1.3/bin/../lib/gcc/sparc-rtems/4.2.4/soft/libgcc.a(_umoddi3.o)
                              /opt/rtems-4.8-1.1.3/bin/../lib/gcc/sparc-rtems/4.2.4/../../../../sparc-rtems/lib/soft/libc.a(lib_a-vfprintf.o) (__umoddi3)
/opt/rtems-4.8-1.1.3/bin/../lib/gcc/sparc-rtems/4.2.4/soft/libgcc.a(_addsub_df.o)
                              /opt/rtems-4.8-1.1.3/bin/../lib/gcc/sparc-rtems/4.2.4/../../../../sparc-rtems/lib/soft/libc.a(lib_a-dtoa.o) (__subdf3)
/opt/rtems-4.8-1.1.3/bin/../lib/gcc/sparc-rtems/4.2.4/soft/libgcc.a(_div_df.o)
                              /opt/rtems-4.8-1.1.3/bin/../lib/gcc/sparc-rtems/4.2.4/../../../../sparc-rtems/lib/soft/libc.a(lib_a-dtoa.o) (__divdf3)
/opt/rtems-4.8-1.1.3/bin/../lib/gcc/sparc-rtems/4.2.4/soft/libgcc.a(_eq_df.o)
                              /opt/rtems-4.8-1.1.3/bin/../lib/gcc/sparc-rtems/4.2.4/../../../../sparc-rtems/lib/soft/libc.a(lib_a-vfprintf.o) (__eqdf2)
/opt/rtems-4.8-1.1.3/bin/../lib/gcc/sparc-rtems/4.2.4/soft/libgcc.a(_ne_df.o)
                              /opt/rtems-4.8-1.1.3/bin/../lib/gcc/sparc-rtems/4.2.4/../../../../sparc-rtems/lib/soft/libc.a(lib_a-vfprintf.o) (__nedf2)
/opt/rtems-4.8-1.1.3/bin/../lib/gcc/sparc-rtems/4.2.4/soft/libgcc.a(_gt_df.o)
                              /opt/rtems-4.8-1.1.3/bin/../lib/gcc/sparc-rtems/4.2.4/../../../../sparc-rtems/lib/soft/libc.a(lib_a-dtoa.o) (__gtdf2)
/opt/rtems-4.8-1.1.3/bin/../lib/gcc/sparc-rtems/4.2.4/soft/libgcc.a(_ge_df.o)
                              /opt/rtems-4.8-1.1.3/bin/../lib/gcc/sparc-rtems/4.2.4/../../../../sparc-rtems/lib/soft/libc.a(lib_a-dtoa.o) (__gedf2)
/opt/rtems-4.8-1.1.3/bin/../lib/gcc/sparc-rtems/4.2.4/soft/libgcc.a(_lt_df.o)
                              /opt/rtems-4.8-1.1.3/bin/../lib/gcc/sparc-rtems/4.2.4/../../../../sparc-rtems/lib/soft/libc.a(lib_a-vfprintf.o) (__ltdf2)
/opt/rtems-4.8-1.1.3/bin/../lib/gcc/sparc-rtems/4.2.4/soft/libgcc.a(_si_to_df.o)
                              /opt/rtems-4.8-1.1.3/bin/../lib/gcc/sparc-rtems/4.2.4/../../../../sparc-rtems/lib/soft/libc.a(lib_a-dtoa.o) (__floatsidf)
/opt/rtems-4.8-1.1.3/bin/../lib/gcc/sparc-rtems/4.2.4/soft/libgcc.a(_df_to_si.o)
                              /opt/rtems-4.8-1.1.3/bin/../lib/gcc/sparc-rtems/4.2.4/../../../../sparc-rtems/lib/soft/libc.a(lib_a-dtoa.o) (__fixdfsi)
/opt/rtems-4.8-1.1.3/bin/../lib/gcc/sparc-rtems/4.2.4/soft/libgcc.a(_fpcmp_parts_df.o)
                              /opt/rtems-4.8-1.1.3/bin/../lib/gcc/sparc-rtems/4.2.4/soft/libgcc.a(_eq_df.o) (__fpcmp_parts_d)
/opt/rtems-4.8/sparc-rtems/leon2/lib/librtemsbsp.a(cache.rel)
                              /opt/rtems-4.8/sparc-rtems/leon2/lib/librtemscpu.a(libscorecpu_a-cpu.o) (rtems_cache_invalidate_entire_instruction)
/opt/rtems-4.8/sparc-rtems/leon2/lib/librtemsbsp.a(libsupport_a-version.o)
                              /opt/rtems-4.8/sparc-rtems/leon2/lib/librtemscpu.a(libsapi_a-getversionstring.o) (_RTEMS_version)
/opt/rtems-4.8/sparc-rtems/leon2/lib/librtemscpu.a(libcsupport_a-fstat.o)
                              /opt/rtems-4.8-1.1.3/bin/../lib/gcc/sparc-rtems/4.2.4/../../../../sparc-rtems/lib/soft/libc.a(lib_a-makebuf.o) (_fstat_r)
/opt/rtems-4.8/sparc-rtems/leon2/lib/librtemscpu.a(libcsupport_a-getpid.o)
                              /opt/rtems-4.8-1.1.3/bin/../lib/gcc/sparc-rtems/4.2.4/../../../../sparc-rtems/lib/soft/libc.a(lib_a-raise.o) (_getpid_r)
/opt/rtems-4.8/sparc-rtems/leon2/lib/librtemscpu.a(libcsupport_a-isatty.o)
                              /opt/rtems-4.8-1.1.3/bin/../lib/gcc/sparc-rtems/4.2.4/../../../../sparc-rtems/lib/soft/libc.a(lib_a-makebuf.o) (isatty)
/opt/rtems-4.8/sparc-rtems/leon2/lib/librtemscpu.a(libcsupport_a-lseek.o)
                              /opt/rtems-4.8-1.1.3/bin/../lib/gcc/sparc-rtems/4.2.4/../../../../sparc-rtems/lib/soft/libc.a(lib_a-stdio.o) (_lseek_r)
/opt/rtems-4.8/sparc-rtems/leon2/lib/librtemscpu.a(libcsupport_a-read.o)
                              /opt/rtems-4.8-1.1.3/bin/../lib/gcc/sparc-rtems/4.2.4/../../../../sparc-rtems/lib/soft/libc.a(lib_a-stdio.o) (_read_r)
/opt/rtems-4.8/sparc-rtems/leon2/lib/librtemscpu.a(libcsupport_a-write_r.o)
                              /opt/rtems-4.8-1.1.3/bin/../lib/gcc/sparc-rtems/4.2.4/../../../../sparc-rtems/lib/soft/libc.a(lib_a-stdio.o) (_write_r)
/opt/rtems-4.8/sparc-rtems/leon2/lib/librtemscpu.a(libposix_a-kill.o)
                              /opt/rtems-4.8-1.1.3/bin/../lib/gcc/sparc-rtems/4.2.4/../../../../sparc-rtems/lib/soft/libc.a(lib_a-raise.o) (_kill_r)
/opt/rtems-4.8/sparc-rtems/leon2/lib/librtemscpu.a(libposix_a-killinfo.o)
                              /opt/rtems-4.8/sparc-rtems/leon2/lib/librtemscpu.a(libposix_a-kill.o) (killinfo)
/opt/rtems-4.8/sparc-rtems/leon2/lib/librtemscpu.a(libposix_a-psignalsetprocesssignals.o)
                              /opt/rtems-4.8/sparc-rtems/leon2/lib/librtemscpu.a(libposix_a-killinfo.o) (_POSIX_signals_Set_process_signals)
/opt/rtems-4.8/sparc-rtems/leon2/lib/librtemscpu.a(libposix_a-psignalunblockthread.o)
                              /opt/rtems-4.8/sparc-rtems/leon2/lib/librtemscpu.a(libposix_a-killinfo.o) (_POSIX_signals_Unblock_thread)
/opt/rtems-4.8/sparc-rtems/leon2/lib/librtemscpu.a(libposix_a-pthreadkill.o)
                              /opt/rtems-4.8/sparc-rtems/leon2/lib/librtemscpu.a(libposix_a-killinfo.o) (pthread_kill)
/opt/rtems-4.8/sparc-rtems/leon2/lib/librtemscpu.a(libposix_a-pthreadself.o)
                              /opt/rtems-4.8/sparc-rtems/leon2/lib/librtemscpu.a(libposix_a-killinfo.o) (pthread_self)
/opt/rtems-4.8/sparc-rtems/leon2/lib/librtemscpu.a(libposix_a-types.o)
                              /opt/rtems-4.8/sparc-rtems/leon2/lib/librtemscpu.a(libposix_a-pthreadkill.o) (POSIX_BOTTOM_REACHED)
/opt/rtems-4.8/sparc-rtems/leon2/lib/librtemscpu.a(libcsupport_a-write.o)
                              /opt/rtems-4.8/sparc-rtems/leon2/lib/librtemscpu.a(libcsupport_a-write_r.o) (write)

Allocating common symbols
Common symbol       size              file

t_CountSemStats     0xc               libosal_rtems_rastaleon2.a(osstats.o)
_POSIX_RWLock_Information
                    0x4c              /opt/rtems-4.8/sparc-rtems/leon2/lib/librtemscpu.a(libsapi_a-posixapi.o)
_Region_Information
                    0x4c              /opt/rtems-4.8/sparc-rtems/leon2/lib/librtemscpu.a(librtems_a-regiondata.o)
_POSIX_signals_Vectors
                    0x180             /opt/rtems-4.8/sparc-rtems/leon2/lib/librtemscpu.a(libposix_a-psignal.o)
_CPU_ISR_Dispatch_disable
                    0x4               /opt/rtems-4.8/sparc-rtems/leon2/lib/librtemscpu.a(libsapi_a-exinit.o)
ifnet               0x4               /opt/rtems-4.8/sparc-rtems/leon2/lib/librtemscpu.a(libnetworking_a-if.o)
ip_id               0x2               /opt/rtems-4.8/sparc-rtems/leon2/lib/librtemscpu.a(libnetworking_a-ip_output.o)
ip_protox           0x100             /opt/rtems-4.8/sparc-rtems/leon2/lib/librtemscpu.a(libnetworking_a-ip_input.o)
zeroin_addr         0x4               /opt/rtems-4.8/sparc-rtems/leon2/lib/librtemscpu.a(libnetworking_a-in_pcb.o)
_IO_Number_of_drivers
                    0x4               /opt/rtems-4.8/sparc-rtems/leon2/lib/librtemscpu.a(libsapi_a-iodata.o)
ip_nat_ptr          0x4               /opt/rtems-4.8/sparc-rtems/leon2/lib/librtemscpu.a(libnetworking_a-ip_input.o)
max_protohdr        0x4               /opt/rtems-4.8/sparc-rtems/leon2/lib/librtemscpu.a(libnetworking_a-uipc_mbuf.o)
tcb                 0x4               /opt/rtems-4.8/sparc-rtems/leon2/lib/librtemscpu.a(libnetworking_a-tcp_input.o)
_POSIX_Threads_Information
                    0x4c              /opt/rtems-4.8/sparc-rtems/leon2/lib/librtemscpu.a(libsapi_a-posixapi.o)
tcpstat             0xf0              /opt/rtems-4.8/sparc-rtems/leon2/lib/librtemscpu.a(libnetworking_a-tcp_input.o)
_POSIX_Spinlock_Information
                    0x4c              /opt/rtems-4.8/sparc-rtems/leon2/lib/librtemscpu.a(libsapi_a-posixapi.o)
t_BinSemStats       0xc               libosal_rtems_rastaleon2.a(osstats.o)
nfs_diskless_valid  0x4               /opt/rtems-4.8/sparc-rtems/leon2/lib/librtemscpu.a(libnetworking_a-rtems_glue.o)
t_MutSemStats       0xc               libosal_rtems_rastaleon2.a(osstats.o)
sysctl__net_inet_children
                    0x4               /opt/rtems-4.8/sparc-rtems/leon2/lib/librtemscpu.a(libnetworking_a-in_proto.o)
ip_fw_ctl_ptr       0x4               /opt/rtems-4.8/sparc-rtems/leon2/lib/librtemscpu.a(libnetworking_a-ip_input.o)
RTEMS_Malloc_Heap   0x58              /opt/rtems-4.8/sparc-rtems/leon2/lib/librtemscpu.a(libcsupport_a-malloc.o)
_Timer_Information  0x4c              /opt/rtems-4.8/sparc-rtems/leon2/lib/librtemscpu.a(librtems_a-rtemstimerdata.o)
_POSIX_Semaphore_Information
                    0x4c              /opt/rtems-4.8/sparc-rtems/leon2/lib/librtemscpu.a(libsapi_a-posixapi.o)
rtems_termios_ttyMutex
                    0x4               /opt/rtems-4.8/sparc-rtems/leon2/lib/librtemscpu.a(libcsupport_a-termiosinitialize.o)
sysctl__net_link_generic_children
                    0x4               /opt/rtems-4.8/sparc-rtems/leon2/lib/librtemscpu.a(libnetworking_a-if.o)
_POSIX_Timer_Information
                    0x4c              /opt/rtems-4.8/sparc-rtems/leon2/lib/librtemscpu.a(libsapi_a-posixapi.o)
_Thread_Ready_chain
                    0x4               /opt/rtems-4.8/sparc-rtems/leon2/lib/librtemscpu.a(libsapi_a-exinit.o)
mclfree             0x4               /opt/rtems-4.8/sparc-rtems/leon2/lib/librtemscpu.a(libnetworking_a-uipc_mbuf.o)
_Thread_Ticks_per_timeslice
                    0x4               /opt/rtems-4.8/sparc-rtems/leon2/lib/librtemscpu.a(libsapi_a-exinit.o)
_CPU_Interrupt_stack_high
                    0x4               /opt/rtems-4.8/sparc-rtems/leon2/lib/librtemscpu.a(libsapi_a-exinit.o)
sysctl__net_inet_ip_portrange_children
                    0x4               /opt/rtems-4.8/sparc-rtems/leon2/lib/librtemscpu.a(libnetworking_a-in_pcb.o)
mbstat              0x21c             /opt/rtems-4.8/sparc-rtems/leon2/lib/librtemscpu.a(libnetworking_a-uipc_mbuf.o)
_POSIX_signals_Inactive_siginfo
                    0xc               /opt/rtems-4.8/sparc-rtems/leon2/lib/librtemscpu.a(libposix_a-psignal.o)
sysctl__net_link_ether_children
                    0x4               /opt/rtems-4.8/sparc-rtems/leon2/lib/librtemscpu.a(libnetworking_a-if_ethersubr.o)
_Objects_Information_table
                    0x14              /opt/rtems-4.8/sparc-rtems/leon2/lib/librtemscpu.a(libsapi_a-exinit.o)
rtems_termios_ttyTail
                    0x4               /opt/rtems-4.8/sparc-rtems/leon2/lib/librtemscpu.a(libcsupport_a-termiosinitialize.o)
tcbinfo             0x20              /opt/rtems-4.8/sparc-rtems/leon2/lib/librtemscpu.a(libnetworking_a-tcp_input.o)
_POSIX_Message_queue_Information
                    0x4c              /opt/rtems-4.8/sparc-rtems/leon2/lib/librtemscpu.a(libsapi_a-posixapi.o)
_Thread_BSP_context
                    0x88              /opt/rtems-4.8/sparc-rtems/leon2/lib/librtemscpu.a(libsapi_a-exinit.o)
_POSIX_signals_Wait_queue
                    0x40              /opt/rtems-4.8/sparc-rtems/leon2/lib/librtemscpu.a(libposix_a-psignal.o)
_Thread_Dispatch_disable_level
                    0x4               /opt/rtems-4.8/sparc-rtems/leon2/lib/librtemscpu.a(libsapi_a-exinit.o)
_User_extensions_Switches_list
                    0xc               /opt/rtems-4.8/sparc-rtems/leon2/lib/librtemscpu.a(libsapi_a-exinit.o)
_CPU_Interrupt_stack_low
                    0x4               /opt/rtems-4.8/sparc-rtems/leon2/lib/librtemscpu.a(libsapi_a-exinit.o)
_CPU_Table          0x28              /opt/rtems-4.8/sparc-rtems/leon2/lib/librtemscpu.a(libsapi_a-exinit.o)
_POSIX_Mutex_Information
                    0x4c              /opt/rtems-4.8/sparc-rtems/leon2/lib/librtemscpu.a(libsapi_a-posixapi.o)
rtems_libio_iops    0x4               /opt/rtems-4.8/sparc-rtems/leon2/lib/librtemscpu.a(libcsupport_a-libio_init.o)
rtems_filesystem_mount_table_control
                    0xc               /opt/rtems-4.8/sparc-rtems/leon2/lib/librtemscpu.a(libcsupport_a-mount.o)
rtems_termios_ttyHead
                    0x4               /opt/rtems-4.8/sparc-rtems/leon2/lib/librtemscpu.a(libcsupport_a-termiosinitialize.o)
_POSIX_Barrier_Information
                    0x4c              /opt/rtems-4.8/sparc-rtems/leon2/lib/librtemscpu.a(libsapi_a-posixapi.o)
RTEMS_Malloc_Sbrk_amount
                    0x4               /opt/rtems-4.8/sparc-rtems/leon2/lib/librtemscpu.a(libcsupport_a-malloc.o)
mbutl               0x4               /opt/rtems-4.8/sparc-rtems/leon2/lib/librtemscpu.a(libnetworking_a-uipc_mbuf.o)
sysctl__net_inet_udp_children
                    0x4               /opt/rtems-4.8/sparc-rtems/leon2/lib/librtemscpu.a(libnetworking_a-in_proto.o)
_TOD_Is_set         0x4               /opt/rtems-4.8/sparc-rtems/leon2/lib/librtemscpu.a(libsapi_a-exinit.o)
_Internal_Objects   0xc               /opt/rtems-4.8/sparc-rtems/leon2/lib/librtemscpu.a(libsapi_a-exinit.o)
sysctl__net_link_children
                    0x4               /opt/rtems-4.8/sparc-rtems/leon2/lib/librtemscpu.a(libnetworking_a-if.o)
Stack_check_Pattern
                    0x10              /opt/rtems-4.8/sparc-rtems/leon2/lib/librtemscpu.a(check.o)
_Workspace_Area     0x58              /opt/rtems-4.8/sparc-rtems/leon2/lib/librtemscpu.a(libsapi_a-exinit.o)
_Dual_ported_memory_Information
                    0x4c              /opt/rtems-4.8/sparc-rtems/leon2/lib/librtemscpu.a(librtems_a-dpmemdata.o)
mclrefcnt           0x4               /opt/rtems-4.8/sparc-rtems/leon2/lib/librtemscpu.a(libnetworking_a-uipc_mbuf.o)
rtems_libio_iop_freelist
                    0x4               /opt/rtems-4.8/sparc-rtems/leon2/lib/librtemscpu.a(libcsupport_a-libio_init.o)
_ISR_Vector_table   0x4               /opt/rtems-4.8/sparc-rtems/leon2/lib/librtemscpu.a(libsapi_a-exinit.o)
max_datalen         0x4               /opt/rtems-4.8/sparc-rtems/leon2/lib/librtemscpu.a(libnetworking_a-uipc_mbuf.o)
_Extension_Information
                    0x4c              /opt/rtems-4.8/sparc-rtems/leon2/lib/librtemscpu.a(libsapi_a-extensiondata.o)
_RTEMS_Objects      0x2c              /opt/rtems-4.8/sparc-rtems/leon2/lib/librtemscpu.a(libsapi_a-rtemsapi.o)
sysctl__kern_children
                    0x4               /opt/rtems-4.8/sparc-rtems/leon2/lib/librtemscpu.a(libnetworking_a-kern_mib.o)
in_ifaddr           0x4               /opt/rtems-4.8/sparc-rtems/leon2/lib/librtemscpu.a(libnetworking_a-ip_input.o)
max_hdr             0x4               /opt/rtems-4.8/sparc-rtems/leon2/lib/librtemscpu.a(libnetworking_a-uipc_mbuf.o)
_Semaphore_Information
                    0x4c              /opt/rtems-4.8/sparc-rtems/leon2/lib/librtemscpu.a(librtems_a-semdata.o)
sysctl__net_inet_igmp_children
                    0x4               /opt/rtems-4.8/sparc-rtems/leon2/lib/librtemscpu.a(libnetworking_a-in_proto.o)
sysctl__net_routetable_children
                    0x4               /opt/rtems-4.8/sparc-rtems/leon2/lib/librtemscpu.a(libnetworking_a-rtsock.o)
rt_tables           0x78              /opt/rtems-4.8/sparc-rtems/leon2/lib/librtemscpu.a(libnetworking_a-route.o)
ipstat              0x64              /opt/rtems-4.8/sparc-rtems/leon2/lib/librtemscpu.a(libnetworking_a-ip_input.o)
_TOD_Uptime         0x8               /opt/rtems-4.8/sparc-rtems/leon2/lib/librtemscpu.a(libsapi_a-exinit.o)
_Thread_Allocated_fp
                    0x4               /opt/rtems-4.8/sparc-rtems/leon2/lib/librtemscpu.a(libsapi_a-exinit.o)
sysctl__net_inet_icmp_children
                    0x4               /opt/rtems-4.8/sparc-rtems/leon2/lib/librtemscpu.a(libnetworking_a-in_proto.o)
the_networkSemaphore
                    0x4               /opt/rtems-4.8/sparc-rtems/leon2/lib/librtemscpu.a(libnetworking_a-rtems_glue.o)
max_linkhdr         0x4               /opt/rtems-4.8/sparc-rtems/leon2/lib/librtemscpu.a(libnetworking_a-uipc_mbuf.o)
_POSIX_signals_Pending
                    0x4               /opt/rtems-4.8/sparc-rtems/leon2/lib/librtemscpu.a(libposix_a-psignal.o)
loif                0xbc              /opt/rtems-4.8/sparc-rtems/leon2/lib/librtemscpu.a(libnetworking_a-if_loop.o)
smc91111            0x198             /opt/rtems-4.8/sparc-rtems/leon2/lib/librtemsbsp.a(libnetchip_a-smc91111.o)
_Thread_libc_reent  0x4               /opt/rtems-4.8/sparc-rtems/leon2/lib/librtemscpu.a(libsapi_a-exinit.o)
_Thread_Heir        0x4               /opt/rtems-4.8/sparc-rtems/leon2/lib/librtemscpu.a(libsapi_a-exinit.o)
_POSIX_Threads_User_initialization_threads
                    0x4               /opt/rtems-4.8/sparc-rtems/leon2/lib/librtemscpu.a(libsapi_a-posixapi.o)
ip_rsvpd            0x4               /opt/rtems-4.8/sparc-rtems/leon2/lib/librtemscpu.a(libnetworking_a-ip_input.o)
_POSIX_Keys_Information
                    0x4c              /opt/rtems-4.8/sparc-rtems/leon2/lib/librtemscpu.a(libsapi_a-posixapi.o)
sysctl__net_link_ether_inet_children
                    0x4               /opt/rtems-4.8/sparc-rtems/leon2/lib/librtemscpu.a(libnetworking_a-if_ether.o)
mmbfree             0x4               /opt/rtems-4.8/sparc-rtems/leon2/lib/librtemscpu.a(libnetworking_a-uipc_mbuf.o)
tcp_maxidle         0x4               /opt/rtems-4.8/sparc-rtems/leon2/lib/librtemscpu.a(libnetworking_a-tcp_timer.o)
leon2_isrs          0x80              /opt/libbackport/lib/libbackport_leon2-4.10-4.8.a(leon2_amba_bus.o)
udpstat             0x28              /opt/rtems-4.8/sparc-rtems/leon2/lib/librtemscpu.a(libnetworking_a-udp_usrreq.o)
sysctl__net_inet_ip_children
                    0x4               /opt/rtems-4.8/sparc-rtems/leon2/lib/librtemscpu.a(libnetworking_a-in_proto.o)
ip_nat_ctl_ptr      0x4               /opt/rtems-4.8/sparc-rtems/leon2/lib/librtemscpu.a(libnetworking_a-ip_input.o)
_Barrier_Information
                    0x4c              /opt/rtems-4.8/sparc-rtems/leon2/lib/librtemscpu.a(librtems_a-barrierdata.o)
_POSIX_Condition_variables_Information
                    0x4c              /opt/rtems-4.8/sparc-rtems/leon2/lib/librtemscpu.a(libsapi_a-posixapi.o)
_TOD_Now            0x8               /opt/rtems-4.8/sparc-rtems/leon2/lib/librtemscpu.a(libsapi_a-exinit.o)
t_PoolStats         0xc               libosal_rtems_rastaleon2.a(osstats.o)
_Configuration_Table
                    0x4               /opt/rtems-4.8/sparc-rtems/leon2/lib/librtemscpu.a(libsapi_a-exinit.o)
_ISR_Nest_level     0x4               /opt/rtems-4.8/sparc-rtems/leon2/lib/librtemscpu.a(libsapi_a-exinit.o)
icmplenPanicAvoided
                    0x4               /opt/rtems-4.8/sparc-rtems/leon2/lib/librtemscpu.a(libnetworking_a-ip_icmp.o)
smcconfig           0x38              libosal_rtems_rastaleon2.a(rtems-config.o)
sysctl__sysctl_next_children
                    0x4               /opt/rtems-4.8/sparc-rtems/leon2/lib/librtemscpu.a(libnetworking_a-kern_sysctl.o)
_Thread_Maximum_extensions
                    0x4               /opt/rtems-4.8/sparc-rtems/leon2/lib/librtemscpu.a(libsapi_a-exinit.o)
_Thread_Do_post_task_switch_extension
                    0x4               /opt/rtems-4.8/sparc-rtems/leon2/lib/librtemscpu.a(libsapi_a-exinit.o)
_RTEMS_tasks_Information
                    0x4c              /opt/rtems-4.8/sparc-rtems/leon2/lib/librtemscpu.a(librtems_a-taskdata.o)
rtems_bsdnet_log_priority
                    0x4               /opt/rtems-4.8/sparc-rtems/leon2/lib/librtemscpu.a(libnetworking_a-rtems_glue.o)
rawcb_list          0x4               /opt/rtems-4.8/sparc-rtems/leon2/lib/librtemscpu.a(libnetworking_a-raw_cb.o)
sysctl__sysctl_oiddescr_children
                    0x4               /opt/rtems-4.8/sparc-rtems/leon2/lib/librtemscpu.a(libnetworking_a-kern_sysctl.o)
_Priority_Major_bit_map
                    0x2               /opt/rtems-4.8/sparc-rtems/leon2/lib/librtemscpu.a(libsapi_a-exinit.o)
_RTEMS_Allocator_Mutex
                    0x4               /opt/rtems-4.8/sparc-rtems/leon2/lib/librtemscpu.a(libsapi_a-exinit.o)
_Watchdog_Sync_level
                    0x4               /opt/rtems-4.8/sparc-rtems/leon2/lib/librtemscpu.a(libsapi_a-exinit.o)
udb                 0x4               /opt/rtems-4.8/sparc-rtems/leon2/lib/librtemscpu.a(libnetworking_a-udp_usrreq.o)
rtems_bsdnet_ticks_per_second
                    0x4               /opt/rtems-4.8/sparc-rtems/leon2/lib/librtemscpu.a(libnetworking_a-rtems_glue.o)
sysctl__sysctl_oidfmt_children
                    0x4               /opt/rtems-4.8/sparc-rtems/leon2/lib/librtemscpu.a(libnetworking_a-kern_sysctl.o)
ipintrq             0x14              /opt/rtems-4.8/sparc-rtems/leon2/lib/librtemscpu.a(libnetworking_a-ip_input.o)
sysctl__net_inet_tcp_children
                    0x4               /opt/rtems-4.8/sparc-rtems/leon2/lib/librtemscpu.a(libnetworking_a-in_proto.o)
rtems_bsdnet_microseconds_per_tick
                    0x4               /opt/rtems-4.8/sparc-rtems/leon2/lib/librtemscpu.a(libnetworking_a-rtems_glue.o)
ifnet_addrs         0x4               /opt/rtems-4.8/sparc-rtems/leon2/lib/librtemscpu.a(libnetworking_a-if.o)
_Thread_Executing   0x4               /opt/rtems-4.8/sparc-rtems/leon2/lib/librtemscpu.a(libsapi_a-exinit.o)
tcp_now             0x4               /opt/rtems-4.8/sparc-rtems/leon2/lib/librtemscpu.a(libnetworking_a-tcp_input.o)
sysctl__net_children
                    0x4               /opt/rtems-4.8/sparc-rtems/leon2/lib/librtemscpu.a(libnetworking_a-kern_mib.o)
_Debug_Level        0x4               /opt/rtems-4.8/sparc-rtems/leon2/lib/librtemscpu.a(libsapi_a-exinit.o)
_Thread_Time_of_last_context_switch
                    0x8               /opt/rtems-4.8/sparc-rtems/leon2/lib/librtemscpu.a(libsapi_a-exinit.o)
calltodo            0x10              /opt/rtems-4.8/sparc-rtems/leon2/lib/librtemscpu.a(libnetworking_a-rtems_glue.o)
_Context_Switch_necessary
                    0x4               /opt/rtems-4.8/sparc-rtems/leon2/lib/librtemscpu.a(libsapi_a-exinit.o)
_Watchdog_Seconds_chain
                    0xc               /opt/rtems-4.8/sparc-rtems/leon2/lib/librtemscpu.a(libsapi_a-exinit.o)
_POSIX_Objects      0x34              /opt/rtems-4.8/sparc-rtems/leon2/lib/librtemscpu.a(libsapi_a-posixapi.o)
sysctl__children    0x4               /opt/rtems-4.8/sparc-rtems/leon2/lib/librtemscpu.a(libnetworking_a-kern_sysctl.o)
_Timer_Server       0x4               /opt/rtems-4.8/sparc-rtems/leon2/lib/librtemscpu.a(librtems_a-rtemstimerdata.o)
_Message_queue_Information
                    0x4c              /opt/rtems-4.8/sparc-rtems/leon2/lib/librtemscpu.a(librtems_a-msgdata.o)
_Watchdog_Ticks_chain
                    0xc               /opt/rtems-4.8/sparc-rtems/leon2/lib/librtemscpu.a(libsapi_a-exinit.o)
_System_state_Is_multiprocessing
                    0x4               /opt/rtems-4.8/sparc-rtems/leon2/lib/librtemscpu.a(libsapi_a-exinit.o)
t_TimerStats        0xc               libosal_rtems_rastaleon2.a(osstats.o)
_API_Mutex_Information
                    0x4c              /opt/rtems-4.8/sparc-rtems/leon2/lib/librtemscpu.a(libsapi_a-exinit.o)
_Priority_Bit_map   0x20              /opt/rtems-4.8/sparc-rtems/leon2/lib/librtemscpu.a(libsapi_a-exinit.o)
_Watchdog_Sync_count
                    0x4               /opt/rtems-4.8/sparc-rtems/leon2/lib/librtemscpu.a(libsapi_a-exinit.o)
_Watchdog_Ticks_since_boot
                    0x4               /opt/rtems-4.8/sparc-rtems/leon2/lib/librtemscpu.a(libsapi_a-exinit.o)
_ISR_Signals_to_thread_executing
                    0x4               /opt/rtems-4.8/sparc-rtems/leon2/lib/librtemscpu.a(libsapi_a-exinit.o)
t_TaskStats         0xc               libosal_rtems_rastaleon2.a(osstats.o)
RTEMS_Malloc_GC_list
                    0xc               /opt/rtems-4.8/sparc-rtems/leon2/lib/librtemscpu.a(libcsupport_a-malloc.o)
_POSIX_Threads_Number_of_initialization_threads
                    0x4               /opt/rtems-4.8/sparc-rtems/leon2/lib/librtemscpu.a(libsapi_a-posixapi.o)
rtems_ada_self      0x4               /opt/rtems-4.8/sparc-rtems/leon2/lib/librtemscpu.a(libsapi_a-exinit.o)
_Thread_Internal_information
                    0x4c              /opt/rtems-4.8/sparc-rtems/leon2/lib/librtemscpu.a(libsapi_a-exinit.o)
_TOD_Microseconds_per_tick
                    0x4               /opt/rtems-4.8/sparc-rtems/leon2/lib/librtemscpu.a(libsapi_a-exinit.o)
_System_state_Current
                    0x4               /opt/rtems-4.8/sparc-rtems/leon2/lib/librtemscpu.a(libsapi_a-exinit.o)
ip_fw_chk_ptr       0x4               /opt/rtems-4.8/sparc-rtems/leon2/lib/librtemscpu.a(libnetworking_a-ip_input.o)
rtems_panic_in_progress
                    0x4               /opt/rtems-4.8/sparc-rtems/leon2/lib/librtemscpu.a(libcsupport_a-error.o)
tcp_iss             0x4               /opt/rtems-4.8/sparc-rtems/leon2/lib/librtemscpu.a(libnetworking_a-tcp_input.o)
_Watchdog_Nanoseconds_since_tick_handler
                    0x4               /opt/rtems-4.8/sparc-rtems/leon2/lib/librtemscpu.a(libsapi_a-exinit.o)
_IO_Driver_address_table
                    0x4               /opt/rtems-4.8/sparc-rtems/leon2/lib/librtemscpu.a(libsapi_a-iodata.o)
route_cb            0x14              /opt/rtems-4.8/sparc-rtems/leon2/lib/librtemscpu.a(libnetworking_a-route.o)
_Partition_Information
                    0x4c              /opt/rtems-4.8/sparc-rtems/leon2/lib/librtemscpu.a(librtems_a-partdata.o)
_POSIX_Message_queue_Information_fds
                    0x4c              /opt/rtems-4.8/sparc-rtems/leon2/lib/librtemscpu.a(libsapi_a-posixapi.o)
_Thread_Idle        0x4               /opt/rtems-4.8/sparc-rtems/leon2/lib/librtemscpu.a(libsapi_a-exinit.o)
rtems_global_user_env
                    0x40              /opt/rtems-4.8/sparc-rtems/leon2/lib/librtemscpu.a(libcsupport_a-base_fs.o)
_POSIX_signals_Siginfo
                    0x180             /opt/rtems-4.8/sparc-rtems/leon2/lib/librtemscpu.a(libposix_a-psignal.o)
tcp_ccgen           0x4               /opt/rtems-4.8/sparc-rtems/leon2/lib/librtemscpu.a(libnetworking_a-tcp_input.o)
_CPU_Null_fp_context
                    0x88              /opt/rtems-4.8/sparc-rtems/leon2/lib/librtemscpu.a(libsapi_a-exinit.o)
sysctl__sysctl_children
                    0x4               /opt/rtems-4.8/sparc-rtems/leon2/lib/librtemscpu.a(libnetworking_a-kern_mib.o)
Internal_errors_What_happened
                    0xc               /opt/rtems-4.8/sparc-rtems/leon2/lib/librtemscpu.a(libsapi_a-exinit.o)
_Event_Sync_state   0x4               /opt/rtems-4.8/sparc-rtems/leon2/lib/librtemscpu.a(librtems_a-eventdata.o)
_User_extensions_List
                    0xc               /opt/rtems-4.8/sparc-rtems/leon2/lib/librtemscpu.a(libsapi_a-exinit.o)
Stack_check_Interrupt_stack
                    0x8               /opt/rtems-4.8/sparc-rtems/leon2/lib/librtemscpu.a(check.o)
rtems_libio_semaphore
                    0x4               /opt/rtems-4.8/sparc-rtems/leon2/lib/librtemscpu.a(libcsupport_a-libio_init.o)
domains             0x4               /opt/rtems-4.8/sparc-rtems/leon2/lib/librtemscpu.a(libnetworking_a-uipc_domain.o)
_Rate_monotonic_Information
                    0x4c              /opt/rtems-4.8/sparc-rtems/leon2/lib/librtemscpu.a(librtems_a-ratemondata.o)
icmpstat            0x174             /opt/rtems-4.8/sparc-rtems/leon2/lib/librtemscpu.a(libnetworking_a-ip_icmp.o)
_API_extensions_List
                    0xc               /opt/rtems-4.8/sparc-rtems/leon2/lib/librtemscpu.a(libsapi_a-exinit.o)
udbinfo             0x20              /opt/rtems-4.8/sparc-rtems/leon2/lib/librtemscpu.a(libnetworking_a-udp_usrreq.o)
t_QueueStats        0xc               libosal_rtems_rastaleon2.a(osstats.o)
sysctl__sysctl_name_children
                    0x4               /opt/rtems-4.8/sparc-rtems/leon2/lib/librtemscpu.a(libnetworking_a-kern_sysctl.o)

Memory Configuration

Name             Origin             Length             Attributes
rom              0x00000000         0x10000000
ram              0x40000000         0x40000000
sdram            0x42000000         0x40000000
*default*        0x00000000         0xffffffff

Linker script and memory map

LOAD /opt/rtems-4.8/sparc-rtems/leon2/lib/start.o
LOAD /opt/rtems-4.8-1.1.3/bin/../lib/gcc/sparc-rtems/4.2.4/crti.o
LOAD /opt/rtems-4.8-1.1.3/bin/../lib/gcc/sparc-rtems/4.2.4/crtbegin.o
LOAD /home/aitor/workspace/rasta-sw/osal-repo/trunk/samples/misc/soclient.o
LOAD libosal_rtems_rastaleon2.a
LOAD /opt/rtems-4.8-1.1.3/bin/../lib/gcc/sparc-rtems/4.2.4/../../../../sparc-rtems/lib/soft/libm.a
                0x00080000                HeapSize = 0x80000
LOAD /opt/libbackport/lib/libbackport_leon2-4.10-4.8.a
LOAD /opt/rtems-4.8-1.1.3/bin/../lib/gcc/sparc-rtems/4.2.4/soft/libgcc.a
START GROUP
LOAD /opt/rtems-4.8/sparc-rtems/leon2/lib/librtemsbsp.a
LOAD /opt/rtems-4.8/sparc-rtems/leon2/lib/librtemscpu.a
LOAD /opt/rtems-4.8/sparc-rtems/leon2/lib/librtems++.a
LOAD /opt/rtems-4.8-1.1.3/bin/../lib/gcc/sparc-rtems/4.2.4/soft/libsupc++.a
LOAD /opt/rtems-4.8/sparc-rtems/leon2/lib/libftpd.a
LOAD /opt/rtems-4.8/sparc-rtems/leon2/lib/libhttpd.a
LOAD /opt/rtems-4.8/sparc-rtems/leon2/lib/libpppd.a
LOAD /opt/rtems-4.8/sparc-rtems/leon2/lib/libshttpd.a
LOAD /opt/rtems-4.8/sparc-rtems/leon2/lib/libtelnetd.a
LOAD /opt/rtems-4.8/sparc-rtems/leon2/lib/libz.a
LOAD /opt/rtems-4.8-1.1.3/bin/../lib/gcc/sparc-rtems/4.2.4/../../../../sparc-rtems/lib/soft/libc.a
LOAD /opt/rtems-4.8-1.1.3/bin/../lib/gcc/sparc-rtems/4.2.4/soft/libgcc.a
END GROUP
LOAD /opt/rtems-4.8-1.1.3/bin/../lib/gcc/sparc-rtems/4.2.4/soft/libgcc.a
LOAD /opt/rtems-4.8-1.1.3/bin/../lib/gcc/sparc-rtems/4.2.4/crtend.o
LOAD /opt/rtems-4.8-1.1.3/bin/../lib/gcc/sparc-rtems/4.2.4/crtn.o
                0x00000000                __DYNAMIC = 0x0
                0x00200000                _PROM_SIZE = 0x200000
                0x02000000                _RAM_SIZE = 0x2000000
                0x40000000                _RAM_START = 0x40000000
                0x42000000                _RAM_END = (_RAM_START + _RAM_SIZE)
                0x00000000                _PROM_START = 0x0
                0x00200000                _PROM_END = (_PROM_START + _PROM_SIZE)
                0x00000000                PROM_START = _PROM_START
                0x00200000                PROM_SIZE = _PROM_SIZE
                0x00200000                PROM_END = _PROM_END
                0x40000000                RAM_START = _RAM_START
                0x02000000                RAM_SIZE = _RAM_SIZE
                0x42000000                RAM_END = _RAM_END
                0x80000000                _LEON_REG = 0x80000000
                0x80000000                LEON_REG = 0x80000000

.text           0x40000000    0x5b180
 CREATE_OBJECT_SYMBOLS
                0x40000000                text_start = .
                0x40000000                _text_start = .
 *(.text*)
 .text          0x40000000     0x10ec /opt/rtems-4.8/sparc-rtems/leon2/lib/start.o
                0x400010e0                BSP_fatal_return
                0x400007e0                CLOCK_SPEED
                0x400007c0                _ERC32_MEC_Timer_Control_Mirror
                0x40001000                hard_reset
                0x40000000                trap_table
                0x400007c0                rdb_start
                0x40000000                start
 .text          0x400010ec        0x0 /opt/rtems-4.8-1.1.3/bin/../lib/gcc/sparc-rtems/4.2.4/crti.o
 .text          0x400010ec       0xf4 /opt/rtems-4.8-1.1.3/bin/../lib/gcc/sparc-rtems/4.2.4/crtbegin.o
 .text          0x400011e0      0x40c /home/aitor/workspace/rasta-sw/osal-repo/trunk/samples/misc/soclient.o
                0x400013a8                socket_bind
                0x4000132c                socket_recv
                0x40001268                socket_recvfrom
                0x400011e0                main
                0x40001250                socket_close
                0x400012a4                socket_sendto
                0x40001480                socket_connect
                0x400013e0                socket_create
                0x4000136c                socket_send
 .text          0x400015ec      0x318 libosal_rtems_rastaleon2.a(osapi.o)
                0x40001700                show_error_code
                0x40001660                OS_Init
                0x400016c0                OS_Start
 .text          0x40001904     0x1290 libosal_rtems_rastaleon2.a(osmut.o)
                0x40001b68                OS_MutSemGetInfo
                0x40001e38                OS_MutSemDelete
                0x40002164                OS_MutSemCreate
                0x400019bc                OS_MutSemTryTake
                0x40001904                OS_MutSemTimedWait
                0x40001a60                OS_MutSemTake
                0x40002aec                OS_MutSemInit
                0x40001ae8                OS_MutSemGive
 .text          0x40002b94     0x129c libosal_rtems_rastaleon2.a(ostask.o)
                0x400037cc                OS_TaskCreate
                0x40002e98                OS_TaskGetInfo
                0x40003654                OS_TaskSuspend
                0x40003364                OS_TaskDelete
                0x40002c2c                OS_TaskJoin
                0x40003500                OS_TaskResume
                0x4000314c                OS_TaskExit
                0x40002dd0                OS_TaskSetPriority
                0x40002bb8                OS_TaskGetId
                0x40003c58                OS_TaskMonotonicCreate
                0x40002c60                OS_TaskInit
                0x40002be8                OS_TaskGetSlot
                0x40002c4c                OS_TaskYield
                0x40002c08                OS_TaskSetSlot
                0x40002b94                __os_errno_addr
 .text          0x40003e30      0x234 libosal_rtems_rastaleon2.a(rtems-config.o)
                0x40003f50                Init
                0x40003e68                system_init
                0x40003e30                system_init_rastatmtc
                0x40004044                system_init2
                0x40003e4c                system_init_rastaio
 .text          0x40004064        0x8 libosal_rtems_rastaleon2.a(osstats.o)
                0x40004064                osal_stats_print
 .text          0x4000406c      0x1c4 /opt/libbackport/lib/libbackport_leon2-4.10-4.8.a(ambapp_bus_leon2.o)
                0x400040c4                ambapp_leon2_int_mask
                0x400040dc                ambapp_leon2_int_clear
                0x4000410c                ambapp_leon2_int_enable
                0x4000406c                ambapp_leon2_get_params
                0x40004174                ambapp_leon2_init1
                0x400040f4                ambapp_leon2_int_disable
                0x4000413c                ambapp_leon2_int_register
                0x40004218                ambapp_leon2_register
                0x400040ac                ambapp_leon2_int_unmask
                0x40004164                ambapp_leon2_init2
                0x40004154                ambapp_leon2_remove
                0x40004124                ambapp_leon2_int_unregister
 .text          0x40004230      0xb2c /opt/libbackport/lib/libbackport_leon2-4.10-4.8.a(ambapp_bus.o)
                0x40004788                ambapp_freq_calc
                0x40004bf8                ambapp_dev_register
                0x4000444c                ambapp_int_enable
                0x40004640                ambapp_bus_init2
                0x40004584                ambapp_int_mask
                0x40004330                ambapp_dev_id_compare
                0x4000488c                ambapp_get_params
                0x400044b4                ambapp_int_disable
                0x4000451c                ambapp_int_clear
                0x4000437c                ambapp_int_register
                0x40004650                ambapp_bus_init1
                0x400043e4                ambapp_int_unregister
                0x40004758                ambapp_bus_init
                0x4000486c                ambapp_freq_get
                0x400045e0                ambapp_int_unmask
                0x400046fc                ambapp_ids_register
                0x40004a60                ambapp_core_register
                0x400048e0                ambapp_freq_register
                0x40004648                ambapp_bus_remove
                0x40004230                ambapp_unite
                0x40004924                ambapp_dev_fixup
 .text          0x40004d5c       0xec /opt/libbackport/lib/libbackport_leon2-4.10-4.8.a(ambapp_names.o)
                0x40004d5c                ambapp_device_id2str
                0x40004df0                ambapp_vendor_id2str
 .text          0x40004e48      0x9ac /opt/libbackport/lib/libbackport_leon2-4.10-4.8.a(at697_pci.o)
                0x40004e48                at697pci_read_config_dword
                0x400052f4                at697pci_dma_to_pci_1k
                0x400050a0                at697pci_write_config_word
                0x40005128                at697pci_write_config_byte
                0x400054e0                at697pci_init2
                0x400057d4                at697pci_register_drv
                0x40004f3c                at697pci_read_config_word
                0x4000519c                at697_pci_get_assigned_irq
                0x400056e8                at697pci_init1
                0x400051cc                at697pci_hw_init
                0x40005268                at697pci_dma_from_pci_1k
                0x40004fc4                at697pci_write_config_dword
                0x40004f8c                at697pci_read_config_byte
                0x40005380                at697pci_dma_to_pci
                0x40005430                at697pci_dma_from_pci
                0x40005580                at697pci_init
 .text          0x400057f4     0x1d30 /opt/libbackport/lib/libbackport_leon2-4.10-4.8.a(b1553brm.o)
                0x40005cac                b1553brm_init1
                0x400059b4                b1553brm_print_dev
                0x400067ac                b1553brm_register_drv
                0x40005830                b1553brm_remove
                0x4000633c                b1553brm_register_io
                0x400066dc                b1553brm_init2
                0x40005c74                b1553brm_print
                0x4000604c                b1553brm_device_init
 .text          0x40007524      0x4c0 /opt/libbackport/lib/libbackport_leon2-4.10-4.8.a(drvmgr_drvinf.o)
                0x40007524                rtems_drvmgr_get_dev
                0x40007580                rtems_drvmgr_get_freq
                0x400077a4                rtems_drvmgr_interrupt_clear
                0x4000772c                rtems_drvmgr_interrupt_unregister
                0x400078cc                rtems_drvmgr_mmap_translate
                0x40007870                rtems_drvmgr_interrupt_mask
                0x4000764c                rtems_drvmgr_interrupt_enable
                0x40007970                rtems_drvmgr_get_dev_prefix
                0x400075dc                rtems_drvmgr_interrupt_register
                0x400076bc                rtems_drvmgr_interrupt_disable
                0x40007814                rtems_drvmgr_interrupt_unmask
 .text          0x400079e4      0xb4c /opt/libbackport/lib/libbackport_leon2-4.10-4.8.a(drvmgr.o)
                0x40007a88                rtems_drvmgr_for_each_dev
                0x40007f40                rtems_drvmgr_dev_unregister
                0x40007a18                rtems_drvmgr_insert_dev_into_drv
                0x40007b54                rtems_drvmgr_alloc_bus
                0x40007c4c                rtems_drvmgr_drv_register
                0x40008198                rtems_drvmgr_dev_register
                0x40007e00                rtems_drvmgr_bus_register
                0x400083a4                rtems_drvmgr_init
                0x40007be4                rtems_drvmgr_alloc_dev
                0x40007b1c                rtems_drvmgr_bus_res_add
                0x400079e4                rtems_drvmgr_root_drv_register
 .text          0x40008530      0x5e0 /opt/libbackport/lib/libbackport_leon2-4.10-4.8.a(drvmgr_print.o)
                0x40008974                rtems_drvmgr_dev_print
                0x400087a8                rtems_drvmgr_print_devs
                0x40008a0c                rtems_drvmgr_print_topo
                0x40008684                rtems_drvmgr_print_buses
                0x40008530                rtems_drvmgr_print_mem
                0x40008a44                rtems_drvmgr_print_drvs
 .text          0x40008b10      0x18c /opt/libbackport/lib/libbackport_leon2-4.10-4.8.a(drvmgr_res.o)
                0x40008bd8                rtems_drvmgr_key_get
                0x40008c64                rtems_drvmgr_dev_key_get
                0x40008b10                rtems_drvmgr_keys_get
                0x40008c24                rtems_drvmgr_key_val_get
 .text          0x40008c9c      0x86c /opt/libbackport/lib/libbackport_leon2-4.10-4.8.a(gr_701.o)
                0x400092ec                gr701_init1
                0x40008ff4                gr701_init2
                0x40008f1c                ambapp_gr701_int_unregister
                0x40009028                gr701_hw_init
                0x40008de0                ambapp_gr701_int_clear
                0x40008c9c                gr701_set_resources
                0x40008e24                ambapp_gr701_int_disable
                0x40008f74                ambapp_gr701_int_register
                0x40008ce8                gr701_print_dev
                0x40008ea0                ambapp_gr701_int_enable
                0x40008cbc                ambapp_gr701_get_params
                0x40009480                gr701_interrupt
                0x40008da8                gr701_print
                0x400094f0                gr701_register_drv
                0x40008cb0                gr701_dev_find
 .text          0x40009508     0x187c /opt/libbackport/lib/libbackport_leon2-4.10-4.8.a(grcan.o)
                0x40009b78                grcan_device_init
                0x4000ac5c                grcan_init1
                0x40009ea8                grcan_register_io
                0x4000ad6c                grcan_register_drv
                0x4000ac9c                grcan_init2
 .text          0x4000ad84      0x868 /opt/libbackport/lib/libbackport_leon2-4.10-4.8.a(grpci.o)
                0x4000ad84                grpci_read_config_dword
                0x4000b274                grpci_dma_to_pci
                0x4000b490                grpci_init1
                0x4000aeb0                grpci_read_config_byte
                0x4000b040                grpci_write_config_byte
                0x4000b2cc                grpci_init2
                0x4000aee8                grpci_write_config_dword
                0x4000b0e4                grpci_hw_init
                0x4000afb8                grpci_write_config_word
                0x4000ae60                grpci_read_config_word
                0x4000b2dc                grpci_init
                0x4000b0b4                grpci_get_assigned_irq
                0x4000b5d4                grpci_register_drv
                0x4000b2a0                grpci_dma_from_pci
 .text          0x4000b5ec      0x980 /opt/libbackport/lib/libbackport_leon2-4.10-4.8.a(gr_rasta_adcdac.o)
                0x4000bed0                gr_rasta_adcdac_isr
                0x4000bf54                gr_rasta_adcdac_register_drv
                0x4000b600                gr_rasta_adcdac_dev_find
                0x4000b944                gr_rasta_adcdac_init2
                0x4000b8c4                ambapp_rasta_adcdac_int_register
                0x4000b978                gr_rasta_adcdac_hw_init
                0x4000bd38                gr_rasta_adcdac_init1
                0x4000b86c                ambapp_rasta_adcdac_int_unregister
                0x4000b7f0                ambapp_rasta_adcdac_int_enable
                0x4000b5ec                gr_rasta_adcdac_set_resources
                0x4000b730                ambapp_rasta_adcdac_int_clear
                0x4000b60c                ambapp_rasta_adcdac_get_params
                0x4000b6f8                gr_rasta_adcdac_print
                0x4000b634                gr_rasta_adcdac_print_dev
                0x4000b774                ambapp_rasta_adcdac_int_disable
 .text          0x4000bf6c      0x9a0 /opt/libbackport/lib/libbackport_leon2-4.10-4.8.a(gr_rasta_io.o)
                0x4000bf80                gr_rasta_io_dev_find
                0x4000c0b0                ambapp_rasta_io_int_clear
                0x4000c6d8                gr_rasta_io_init1
                0x4000c0f4                ambapp_rasta_io_int_disable
                0x4000c078                gr_rasta_io_print
                0x4000bf6c                gr_rasta_io_set_resources
                0x4000c8f4                gr_rasta_io_register_drv
                0x4000c870                gr_rasta_io_isr
                0x4000c1ec                ambapp_rasta_io_int_unregister
                0x4000bf8c                ambapp_rasta_io_get_params
                0x4000c244                ambapp_rasta_io_int_register
                0x4000c2c4                gr_rasta_io_init2
                0x4000c2f8                gr_rasta_io_hw_init
                0x4000bfb4                gr_rasta_io_print_dev
                0x4000c170                ambapp_rasta_io_int_enable
 .text          0x4000c90c      0xa28 /opt/libbackport/lib/libbackport_leon2-4.10-4.8.a(gr_rasta_tmtc.o)
                0x4000cbd8                ambapp_rasta_tmtc_int_register
                0x4000d31c                gr_rasta_tmtc_register_drv
                0x4000ca44                ambapp_rasta_tmtc_int_clear
                0x4000cc8c                gr_rasta_tmtc_hw_init
                0x4000c920                gr_rasta_tmtc_dev_find
                0x4000c92c                gr_rasta_tmtc_print_dev
                0x4000cb04                ambapp_rasta_tmtc_int_enable
                0x4000ca18                ambapp_rasta_tmtc_get_params
                0x4000d298                gr_rasta_tmtc_isr
                0x4000d100                gr_rasta_tmtc_init1
                0x4000c90c                gr_rasta_tmtc_set_resources
                0x4000cb80                ambapp_rasta_tmtc_int_unregister
                0x4000c9e0                gr_rasta_tmtc_print
                0x4000cc58                gr_rasta_tmtc_init2
                0x4000ca88                ambapp_rasta_tmtc_int_disable
 .text          0x4000d334     0x2054 /opt/libbackport/lib/libbackport_leon2-4.10-4.8.a(grspw.o)
                0x4000e560                grspw_init2
                0x4000d740                grspw_device_init
                0x4000e6a4                grspw_register_drv
                0x4000d548                grspw_print
                0x4000d4a0                grspw_print_dev
                0x4000da20                grspw_register_io
                0x4000e660                grspw_init1
 .text          0x4000f388     0x1a70 /opt/libbackport/lib/libbackport_leon2-4.10-4.8.a(grtc.o)
                0x4000f94c                grtc_register_drv
 .text          0x40010df8     0x12e4 /opt/libbackport/lib/libbackport_leon2-4.10-4.8.a(grtm.o)
                0x400110c4                grtm_register_drv
 .text          0x400120dc      0x590 /opt/libbackport/lib/libbackport_leon2-4.10-4.8.a(leon2_amba_bus.o)
                0x400120ec                leon2_amba_unite
                0x4001240c                leon2_amba_dev_register
                0x400120dc                leon2_amba_init2
                0x40012234                leon2_amba_int_unmask
                0x400121e8                leon2_amba_get_irq
                0x40012354                leon2_amba_int_register
                0x400122f4                leon2_amba_int_enable
                0x400121b4                leon2_amba_isr
                0x40012384                leon2_amba_init1
                0x40012294                leon2_amba_int_clear
                0x40012264                leon2_amba_int_mask
                0x400121a4                leon2_amba_dev_id_compare
                0x400120e4                leon2_amba_remove
                0x400122c4                leon2_amba_int_disable
                0x40012568                leon2_amba_bus_init
                0x40012324                leon2_amba_int_unregister
                0x40012640                drv_mgr_leon2_init
 .text          0x4001266c       0x9c /opt/libbackport/lib/libbackport_leon2-4.10-4.8.a(network_interface_add.o)
                0x4001266c                network_interface_add
 .text          0x40012708      0x544 /opt/libbackport/lib/libbackport_leon2-4.10-4.8.a(pci_bus.o)
                0x40012830                pcibus_init2
                0x40012800                pcibus_get_params
                0x40012a6c                pcibus_int_disable
                0x40012acc                pcibus_int_unregister
                0x40012b2c                pcibus_dev_register
                0x400128b4                pcibus_for_each
                0x40012afc                pcibus_int_register
                0x40012838                pcibus_init1
                0x40012a0c                pcibus_bus_init
                0x400129ec                pcibus_devs_register
                0x40012a9c                pcibus_int_enable
                0x40012a3c                pcibus_int_clear
                0x40012708                pcibus_unite
                0x40012818                pcibus_dev_id_compare
 .text          0x40012c4c      0x65c /opt/libbackport/lib/libbackport_leon2-4.10-4.8.a(pcif.o)
                0x40012e34                pcif_write_config_byte
                0x40013014                pcif_init2
                0x40012ed8                pcif_hw_init
                0x40012d58                pcif_write_config_dword
                0x40013290                pcif_register_drv
                0x400131a0                pcif_init1
                0x40012cc8                pcif_read_config_word
                0x40012dac                pcif_write_config_word
                0x40013034                pcif_init
                0x40012d1c                pcif_read_config_byte
                0x40012ea8                pcif_get_assigned_irq
                0x40012c4c                pcif_read_config_dword
 .text          0x400132a8     0x16c8 /opt/libbackport/lib/libbackport_leon2-4.10-4.8.a(pci.o)
                0x40014014                pci_dev_create
                0x400134b4                pci_master_enable
                0x40013450                pci_io_enable
                0x400132a8                pci_res_reorder
                0x40014404                pci_res_free
                0x40013518                pci_set_bar
                0x400139e4                pci_find_bar
                0x4001371c                pci_register_drv
                0x400133ec                pci_mem_enable
                0x4001430c                init_pci
                0x400138d0                pci_res_insert
                0x4001405c                pci_find_devs
                0x4001379c                pci_alloc_res
                0x40014448                pci_dev_free
                0x40013b4c                pci_find_res
                0x400144e0                pci_print
                0x400133b0                pci_res_size
                0x40013710                BusCountPCI
 .text          0x40014970      0x17c /opt/libbackport/lib/libbackport_leon2-4.10-4.8.a(ambapp_show.o)
                0x400149b0                ambapp_dev_print
                0x40014970                ambapp_print
 .text          0x40014aec      0x108 /opt/libbackport/lib/libbackport_leon2-4.10-4.8.a(drvmgr_list.o)
                0x40014b08                rtems_drvmgr_list_add_head
                0x40014b68                rtems_drvmgr_list_remove_head
                0x40014b90                rtems_drvmgr_list_remove
                0x40014b34                rtems_drvmgr_list_add_tail
                0x40014afc                rtems_drvmgr_list_empty
                0x40014aec                rtems_drvmgr_list_init
 .text          0x40014bf4       0xe8 /opt/rtems-4.8-1.1.3/bin/../lib/gcc/sparc-rtems/4.2.4/soft/libgcc.a(_mulsi3.o)
                0x40014bf4                .umul
 .text          0x40014cdc      0x2b0 /opt/rtems-4.8-1.1.3/bin/../lib/gcc/sparc-rtems/4.2.4/soft/libgcc.a(_divsi3.o)
                0x40014cdc                .udiv
                0x40014ce4                .div
 .text          0x40014f8c      0x2b0 /opt/rtems-4.8-1.1.3/bin/../lib/gcc/sparc-rtems/4.2.4/soft/libgcc.a(_modsi3.o)
                0x40014f8c                .urem
                0x40014f94                .rem
 .text          0x4001523c      0x378 /opt/rtems-4.8-1.1.3/bin/../lib/gcc/sparc-rtems/4.2.4/soft/libgcc.a(_mul_df.o)
                0x4001523c                __muldf3
 .text          0x400155b4        0x0 /opt/rtems-4.8-1.1.3/bin/../lib/gcc/sparc-rtems/4.2.4/soft/libgcc.a(_thenan_df.o)
 .text          0x400155b4      0x144 /opt/rtems-4.8-1.1.3/bin/../lib/gcc/sparc-rtems/4.2.4/soft/libgcc.a(_usi_to_df.o)
                0x400155b4                __floatunsidf
 .text          0x400156f8       0xd0 /opt/rtems-4.8-1.1.3/bin/../lib/gcc/sparc-rtems/4.2.4/soft/libgcc.a(_muldi3.o)
                0x400156f8                __muldi3
 .text          0x400157c8       0x78 /opt/rtems-4.8-1.1.3/bin/../lib/gcc/sparc-rtems/4.2.4/soft/libgcc.a(_clzsi2.o)
                0x400157c8                __clzsi2
 .text          0x40015840      0x2a4 /opt/rtems-4.8-1.1.3/bin/../lib/gcc/sparc-rtems/4.2.4/soft/libgcc.a(_pack_df.o)
                0x40015840                __pack_d
 .text          0x40015ae4      0x12c /opt/rtems-4.8-1.1.3/bin/../lib/gcc/sparc-rtems/4.2.4/soft/libgcc.a(_unpack_df.o)
                0x40015ae4                __unpack_d
 .text          0x40015c10        0x0 /opt/rtems-4.8-1.1.3/bin/../lib/gcc/sparc-rtems/4.2.4/soft/libgcc.a(_clz.o)
 .text          0x40015c10     0x1aa4 /opt/rtems-4.8/sparc-rtems/leon2/lib/librtemsbsp.a(amba.rel)
                0x40015ec0                amba_find_apbslv
                0x400169e8                amba_print_dev
                0x400163f8                amba_find_ahbslvs
                0x40016f34                ambapp_for_each
                0x40017334                ambapp_find_ahbslv
                0x40016988                amba_apb_print_dev
                0x40016dc4                ambapp_dev_match_options
                0x40016b7c                ambapp_addr_from
                0x40015f64                amba_find_next_apbslv
                0x40016cd0                ambapp_apb_dev_init
                0x400173e4                ambapp_scan
                0x40017180                ambapp_free_dev
                0x400172d0                ambapp_find_ahbslvs_next
                0x40016bec                ambapp_ahb_dev_init
                0x4001723c                ambapp_find_apbslvs_next
                0x40016034                amba_find_apbslvs
                0x40016a40                amba_print_conf
                0x40016188                amba_find_ahbslv
                0x40015c80                amba_scan
                0x4001682c                amba_find_ahbmsts
                0x400166f0                amba_find_next_ahbmst
                0x40015e58                amba_get_number_apbslv_devices
                0x400172b8                ambapp_find_apbslvs
                0x4001734c                ambapp_find_ahbslvs
                0x40017188                ambapp_dev_find_match
                0x4001656c                amba_get_number_ahbmst_devices
                0x40016120                amba_get_number_ahbslv_devices
                0x4001728c                ambapp_find_apbslv
                0x400172a4                ambapp_find_apbslv_next
                0x40016d8c                ambapp_has_been_scanned
                0x40017158                ambapp_alloc_dev
                0x40017364                ambapp_find_parent
                0x40016d58                ambapp_add_scanned_bus
                0x400165d4                amba_find_ahbmst
                0x40017390                ambapp_alloc_dev_struct
                0x400162bc                amba_find_next_ahbslv
                0x40017320                ambapp_find_ahbslv_next
 .text          0x400176b4      0x18c /opt/rtems-4.8/sparc-rtems/leon2/lib/librtemsbsp.a(clock.rel)
                0x400176b4                bsp_clock_nanoseconds_since_last_tick
                0x400176e0                Clock_exit
                0x400177a0                Clock_isr
                0x40017710                Install_clock
                0x400177c0                Clock_control
                0x40017774                Clock_initialize
 .text          0x40017840      0x2c0 /opt/rtems-4.8/sparc-rtems/leon2/lib/librtemsbsp.a(console.rel)
                0x400178c0                console_control
                0x40017910                console_open
                0x40017880                console_write_support
                0x400178e8                console_read
                0x400178d4                console_write
                0x40017968                console_initialize
                0x400178fc                console_close
                0x40017a48                console_inbyte_nonblocking
                0x40017a00                console_outbyte_polled
 .text          0x40017b00       0x5c /opt/rtems-4.8/sparc-rtems/leon2/lib/librtemsbsp.a(leon_smc91111.rel)
                0x40017b00                rtems_smc91111_driver_attach_leon2
 .text          0x40017b5c     0x2c64 /opt/rtems-4.8/sparc-rtems/leon2/lib/librtemsbsp.a(libnetchip_a-smc91111.o)
                0x40019128                lan91cxx_interrupt_handler
                0x40017e1c                lan91cxx_hardware_init
                0x40017b94                _rtems_smc91111_driver_attach
                0x4001977c                smc91111_txDaemon
 .text          0x4001a7c0      0x15c /opt/rtems-4.8/sparc-rtems/leon2/lib/librtemsbsp.a(reg_win.rel)
                0x4001a870                window_flush_trap_handler
                0x4001a7c0                window_overflow_trap_handler
                0x4001a818                window_underflow_trap_handler
 .text          0x4001a91c      0xc20 /opt/rtems-4.8/sparc-rtems/leon2/lib/librtemsbsp.a(startup.rel)
                0x4001b210                genirq_set_active
                0x4001b090                BSP_shared_interrupt_connect
                0x4001b2bc                genirq_disable
                0x4001b35c                genirq_unregister
                0x4001ad34                bsp_spurious_handler
                0x4001aa20                bsp_pretasking_hook
                0x4001b1a8                BSP_shared_interrupt_init
                0x4001b0b0                BSP_shared_interrupt_unregister
                0x4001a92c                bsp_libc_init
                0x4001af30                BSP_shared_interrupt_mask
                0x4001aa6c                boot_card
                0x4001a970                bsp_postdriver_hook
                0x4001b48c                genirq_destroy
                0x4001b2a8                genirq_enable
                0x4001ab78                _BSP_Thread_Idle_body
                0x4001aca0                bsp_spurious_initialize
                0x4001b1e8                genirq_check
                0x4001a980                bsp_start
                0x4001a91c                bsp_cleanup
                0x4001aee8                BSP_shared_interrupt_unmask
                0x4001b4f8                genirq_init
                0x4001ab94                sbrk
                0x4001af78                BSP_shared_interrupt_disable
                0x4001b2d0                genirq_doirq
                0x4001b418                genirq_register
                0x4001b1cc                BSP_shared_interrupt_isr
                0x4001aea4                BSP_shared_interrupt_clear
                0x4001abb0                set_vector
                0x4001b004                BSP_shared_interrupt_enable
                0x4001b134                BSP_shared_interrupt_register
 .text          0x4001b53c       0x64 /opt/rtems-4.8/sparc-rtems/leon2/lib/librtemsbsp.a(syscall.rel)
                0x4001b590                sparc_enable_interrupts
                0x4001b53c                syscall
                0x4001b580                sparc_disable_interrupts
 .text          0x4001b5a0      0x478 /opt/rtems-4.8/sparc-rtems/leon2/lib/librtemscpu.a(check.o)
                0x4001b5a0                rtems_stack_checker_begin_extension
                0x4001b754                rtems_stack_checker_report_usage_with_plugin
                0x4001b644                Stack_check_Dump_threads_usage
                0x4001b7bc                rtems_stack_checker_report_usage
                0x4001b978                rtems_stack_checker_create_extension
                0x4001b7d8                Stack_check_report_blown_task
                0x4001b5e0                Stack_check_find_high_water_mark
                0x4001b8d8                Stack_check_Initialize
                0x4001b9a8                rtems_stack_checker_switch_extension
                0x4001b840                rtems_stack_checker_is_blown
 .text          0x4001ba18      0x13c /opt/rtems-4.8/sparc-rtems/leon2/lib/librtemscpu.a(ioman.o)
                0x4001bb24                rtems_io_register_name
                0x4001ba18                rtems_io_lookup_name
 .text          0x4001bb54      0x284 /opt/rtems-4.8/sparc-rtems/leon2/lib/librtemscpu.a(libc_a-inet_addr.o)
                0x4001bdb0                inet_addr
                0x4001bb54                inet_aton
 .text          0x4001bdd8      0x374 /opt/rtems-4.8/sparc-rtems/leon2/lib/librtemscpu.a(libc_a-inet_pton.o)
                0x4001bed8                inet_pton
 .text          0x4001c14c       0x18 /opt/rtems-4.8/sparc-rtems/leon2/lib/librtemscpu.a(libc_a-recv.o)
                0x4001c14c                recv
 .text          0x4001c164       0x18 /opt/rtems-4.8/sparc-rtems/leon2/lib/librtemscpu.a(libc_a-send.o)
                0x4001c164                send
 .text          0x4001c17c       0x2c /opt/rtems-4.8/sparc-rtems/leon2/lib/librtemscpu.a(libcsupport_a-__assert.o)
                0x4001c17c                __assert
 .text          0x4001c1a8       0xc4 /opt/rtems-4.8/sparc-rtems/leon2/lib/librtemscpu.a(libcsupport_a-close.o)
                0x4001c258                _close_r
                0x4001c1a8                close
 .text          0x4001c26c      0x238 /opt/rtems-4.8/sparc-rtems/leon2/lib/librtemscpu.a(libcsupport_a-eval.o)
                0x4001c26c                rtems_filesystem_evaluate_parent
                0x4001c32c                rtems_filesystem_evaluate_path
 .text          0x4001c4a4      0x2ec /opt/rtems-4.8/sparc-rtems/leon2/lib/librtemscpu.a(libcsupport_a-libio.o)
                0x4001c4a4                rtems_libio_to_fcntl_flags
                0x4001c664                rtems_libio_allocate
                0x4001c608                rtems_libio_free
                0x4001c500                rtems_libio_is_file_open
                0x4001c75c                rtems_libio_fcntl_flags
                0x4001c584                rtems_libio_is_open_files_in_fs
 .text          0x4001c790       0xd8 /opt/rtems-4.8/sparc-rtems/leon2/lib/librtemscpu.a(libcsupport_a-libio_init.o)
                0x4001c790                rtems_libio_init
 .text          0x4001c868      0x448 /opt/rtems-4.8/sparc-rtems/leon2/lib/librtemscpu.a(libcsupport_a-malloc.o)
                0x4001c868                malloc_dump
                0x4001c91c                malloc
                0x4001cb7c                _realloc_r
                0x4001cb94                calloc
                0x4001c908                _free_r
                0x4001ca60                realloc
                0x4001cbc8                _calloc_r
                0x4001ca4c                _malloc_r
                0x4001c870                malloc_walk
                0x4001cbe0                RTEMS_Malloc_Initialize
                0x4001c878                free
 .text          0x4001ccb0       0x28 /opt/rtems-4.8/sparc-rtems/leon2/lib/librtemscpu.a(libcsupport_a-mkdir.o)
                0x4001ccb0                mkdir
 .text          0x4001ccd8      0x180 /opt/rtems-4.8/sparc-rtems/leon2/lib/librtemscpu.a(libcsupport_a-mknod.o)
                0x4001ccd8                mknod
 .text          0x4001ce58      0x298 /opt/rtems-4.8/sparc-rtems/leon2/lib/librtemscpu.a(libcsupport_a-newlibc.o)
                0x4001cf40                libc_create_hook
                0x4001ce58                libc_init
                0x4001ce78                libc_delete_hook
                0x4001cee8                newlib_free_buffers
 .text          0x4001d0f0       0x7c /opt/rtems-4.8/sparc-rtems/leon2/lib/librtemscpu.a(libcsupport_a-open_dev_console.o)
                0x4001d0f0                open_dev_console
 .text          0x4001d16c      0x3d4 /opt/rtems-4.8/sparc-rtems/leon2/lib/librtemscpu.a(libcsupport_a-printk.o)
                0x4001d240                vprintk
                0x4001d510                printk
 .text          0x4001d540       0x30 /opt/rtems-4.8/sparc-rtems/leon2/lib/librtemscpu.a(libcsupport_a-printk_plugin.o)
                0x4001d540                printk_plugin
 .text          0x4001d570     0x1f50 /opt/rtems-4.8/sparc-rtems/leon2/lib/librtemscpu.a(libcsupport_a-termios.o)
                0x4001d7a4                rtems_termios_dequeue_characters
                0x4001e4cc                rtems_termios_read
                0x4001d820                rtems_termios_enqueue_raw_characters
                0x4001ece8                rtems_termios_close
                0x4001d570                rtems_termios_bufsize
                0x4001eec4                rtems_termios_open
                0x4001e8cc                rtems_termios_ioctl
                0x4001d590                rtems_termios_rxirq_occured
                0x4001e364                rtems_termios_write
                0x4001d5a8                rtems_termios_refill_transmitter
                0x4001db74                rtems_termios_puts
 .text          0x4001f4c0       0x50 /opt/rtems-4.8/sparc-rtems/leon2/lib/librtemscpu.a(libcsupport_a-termiosinitialize.o)
                0x4001f4c0                rtems_termios_initialize
 .text          0x4001f510      0xfc4 /opt/rtems-4.8/sparc-rtems/leon2/lib/librtemscpu.a(libnetworking_a-if.o)
                0x4002014c                if_attach
                0x4001fa24                if_down
                0x4001f714                ifaof_ifpforaddr
                0x4001f5b8                ifunit
                0x4001fa00                if_up
                0x40020488                ifinit
                0x4001f8a0                ifa_ifwithdstaddr
                0x4001ff64                ifa_ifwithnet
                0x4001f510                ifpromisc
                0x4001f944                ifa_ifwithaddr
                0x4001faac                ifioctl
 .text          0x400204d4      0xb80 /opt/rtems-4.8/sparc-rtems/leon2/lib/librtemscpu.a(libnetworking_a-if_ethersubr.o)
                0x400204d4                ether_crc32_le
                0x400205a8                ether_ioctl
                0x40020b2c                ether_sprintf
                0x40020cb4                ether_output
                0x40020914                ether_addmulti
                0x40020694                ether_ifattach
                0x40020744                ether_delmulti
                0x40020b74                ether_input
                0x40020534                ether_crc32_be
 .text          0x40021054      0x32c /opt/rtems-4.8/sparc-rtems/leon2/lib/librtemscpu.a(libnetworking_a-if_loop.o)
                0x40021308                rtems_bsdnet_loopattach
                0x400211b4                looutput
 .text          0x40021380     0x1a38 /opt/rtems-4.8/sparc-rtems/leon2/lib/librtemscpu.a(libnetworking_a-ip_input.o)
                0x40021444                ip_savecontrol
                0x40021604                ip_drain
                0x40021410                ip_rsvp_done
                0x40022ce0                ip_srcroute
                0x40021538                ip_stripoptions
                0x40022ac4                ipintr
                0x40022b4c                ip_init
                0x40021688                ip_slowtimo
                0x40021398                ip_rsvp_init
                0x40021a88                ip_input
 .text          0x40022db8       0xb4 /opt/rtems-4.8/sparc-rtems/leon2/lib/librtemscpu.a(libnetworking_a-ip_mroute.o)
                0x40022de8                ip_rsvp_vif_init
                0x40022dc8                _ip_mrouter_done
                0x40022df0                ip_rsvp_vif_done
                0x40022dd0                _ip_mforward
                0x40022de0                _ip_mcast_src
                0x40022dd8                _mrt_ioctl
                0x40022e00                ipip_input
                0x40022dc0                _ip_mrouter_get
                0x40022db8                _ip_mrouter_set
                0x40022df8                ip_rsvp_force_done
                0x40022e10                rsvp_input
 .text          0x40022e6c     0x1c10 /opt/rtems-4.8/sparc-rtems/leon2/lib/librtemscpu.a(libnetworking_a-ip_output.o)
                0x40023c24                ip_output
                0x4002300c                ip_ctloutput
                0x40022fbc                ip_freemoptions
 .text          0x40024a7c        0x0 /opt/rtems-4.8/sparc-rtems/leon2/lib/librtemscpu.a(libnetworking_a-kern_mib.o)
 .text          0x40024a7c     0x1894 /opt/rtems-4.8/sparc-rtems/leon2/lib/librtemscpu.a(libnetworking_a-kern_sysctl.o)
                0x40025578                sysctl_ctx_entry_del
                0x40025b44                __sysctl
                0x40025e94                sysctl_handle_string
                0x40024af0                sysctl_ctx_entry_find
                0x40024e10                sysctl_find_oid
                0x40024d6c                sysctl_handle_long
                0x40024a94                sysctl_unregister_oid
                0x40026054                sysctl_register_all
                0x400253c0                sysctl_ctx_entry_add
                0x40026094                sysctl_add_oid
                0x40025434                sysctl_remove_oid
                0x40025f5c                sysctl_register_oid
                0x40025ddc                sysctl_handle_opaque
                0x40026220                sysctl_ctx_free
                0x40025884                kernel_sysctl
                0x40024ad0                sysctl_ctx_init
                0x40025994                kernel_sysctlbyname
                0x40024d00                sysctl_handle_int
                0x40024dcc                sysctl_wire_old_buffer
                0x40025a20                userland_sysctl
 .text          0x40026310     0x1914 /opt/rtems-4.8/sparc-rtems/leon2/lib/librtemscpu.a(libnetworking_a-radix.o)
                0x40027300                rn_delete
                0x40026588                rn_match
                0x40027000                rn_addmask
                0x40026364                rn_refines
                0x40026e50                rn_init
                0x40027ba4                rn_lookup
                0x400277a0                rn_addroute
                0x40026d3c                rn_inithead
 .text          0x40027c24      0xbb4 /opt/rtems-4.8/sparc-rtems/leon2/lib/librtemscpu.a(libnetworking_a-raw_ip.o)
                0x4002822c                rip_usrreq
                0x40028050                rip_output
                0x40027e1c                rip_ctloutput
                0x400287a0                rip_init
                0x400284fc                rip_input
 .text          0x400287d8     0x1258 /opt/rtems-4.8/sparc-rtems/leon2/lib/librtemscpu.a(libnetworking_a-route.o)
                0x400288d4                rtfree
                0x400299d0                route_init
                0x40029750                rtredirect
                0x40028b74                ifa_ifwithroute
                0x40028c54                rtrequest
                0x40028a14                rtalloc1
                0x40028894                ifafree
                0x400293ac                rt_setgate
                0x40029134                rtinit
                0x40029938                rtalloc_ign
                0x400287d8                rtioctl
                0x40029984                rtalloc
 .text          0x40029a30     0x179c /opt/rtems-4.8/sparc-rtems/leon2/lib/librtemscpu.a(libnetworking_a-rtems_glue.o)
                0x40029ef0                soconnwakeup
                0x40029de4                rtems_bsdnet_newproc
                0x4002a768                rtems_bsdnet_rtrequest
                0x40029a8c                rtems_bsdnet_parse_driver_name
                0x40029f68                rtems_bsdnet_semaphore_obtain
                0x4002a3d0                rtems_bsdnet_ifconfig
                0x40029c40                microtime
                0x4002aa0c                rtems_bsdnet_malloc
                0x40029db0                wakeup
                0x4002a1e4                rtems_bsdnet_semaphore_release
                0x40029dc8                sb_lock
                0x4002a730                rtems_bsdnet_attach
                0x40029ec0                rtems_bsdnet_free
                0x40029b9c                rtems_bsdnet_random
                0x40029be4                rtems_bsdnet_seconds_since_boot
                0x4002a7b8                rtems_bsdnet_event_receive
                0x4002aa74                rtems_bsdnet_initialize_network
                0x40029c0c                hzto
                0x4002a318                m_mballoc
                0x40029a30                in_cksum_hdr
                0x4002a8f0                soconnsleep
                0x40029f18                sowakeup
                0x4002a260                m_clalloc
                0x40029c90                rtems_bsdnet_log
                0x4002a6f8                rtems_bsdnet_detach
                0x40029ed0                rtems_bsdnet_schednetisr
                0x40029ccc                rtems_bsdnet_timeout
                0x4002a984                sbwait
 .text          0x4002b1cc       0x10 /opt/rtems-4.8/sparc-rtems/leon2/lib/librtemscpu.a(libnetworking_a-rtems_malloc_mbuf.o)
                0x4002b1cc                rtems_bsdnet_malloc_mbuf
 .text          0x4002b1dc      0x424 /opt/rtems-4.8/sparc-rtems/leon2/lib/librtemscpu.a(libnetworking_a-rtems_showifstat.o)
                0x4002b22c                rtems_bsdnet_show_if_stats
 .text          0x4002b600      0x490 /opt/rtems-4.8/sparc-rtems/leon2/lib/librtemscpu.a(libnetworking_a-rtems_showroute.o)
                0x4002b600                rtems_bsdnet_show_inet_routes
 .text          0x4002ba90     0x1188 /opt/rtems-4.8/sparc-rtems/leon2/lib/librtemscpu.a(libnetworking_a-rtems_syscall.o)
                0x4002c98c                connect
                0x4002c204                recvfrom
                0x4002cb98                socket
                0x4002c510                accept
                0x4002bb08                sysctl
                0x4002cb04                bind
                0x4002becc                setsockopt
                0x4002c298                sendmsg
                0x4002c46c                sendto
                0x4002c934                listen
                0x4002c4b0                shutdown
                0x4002bc8c                getpeername
                0x4002bca0                getsockopt
                0x4002bf9c                recvmsg
                0x4002bc78                getsockname
 .text          0x4002cc18     0x13a4 /opt/rtems-4.8/sparc-rtems/leon2/lib/librtemscpu.a(libnetworking_a-rtsock.o)
                0x4002df38                rt_missmsg
                0x4002de90                rt_ifmsg
                0x4002dc90                rt_newaddrmsg
 .text          0x4002dfbc       0xd0 /opt/rtems-4.8/sparc-rtems/leon2/lib/librtemscpu.a(libnetworking_a-sghostname.o)
                0x4002e000                sethostname
                0x4002dfbc                gethostname
 .text          0x4002e08c      0x404 /opt/rtems-4.8/sparc-rtems/leon2/lib/librtemscpu.a(libnetworking_a-uipc_domain.o)
                0x4002e1ec                pfctlinput
                0x4002e08c                pffindtype
                0x4002e378                domaininit
                0x4002e110                pffindproto
 .text          0x4002e490     0x1970 /opt/rtems-4.8/sparc-rtems/leon2/lib/librtemscpu.a(libnetworking_a-uipc_mbuf.o)
                0x4002e604                m_freem
                0x4002e490                m_reclaim
                0x4002e92c                m_retryhdr
                0x4002eb14                m_split
                0x4002e510                m_free
                0x4002f424                m_copym
                0x4002fbb0                m_pullup
                0x4002f284                m_copydata
                0x4002ea6c                m_retry
                0x4002f704                m_copyback
                0x4002e704                m_adj
                0x4002e85c                m_cat
                0x4002e9d8                m_gethdr
                0x4002f378                m_getclr
                0x4002f1f4                m_get
                0x4002ee2c                m_copypacket
                0x4002f0e4                m_prepend
                0x4002f860                m_devget
 .text          0x4002fe00     0x2104 /opt/rtems-4.8/sparc-rtems/leon2/lib/librtemscpu.a(libnetworking_a-uipc_socket.o)
                0x40030bb4                soreceive
                0x40030804                soaccept
                0x400307bc                soshutdown
                0x4002fe94                soabort
                0x40030854                sofree
                0x4002feb4                soconnect2
                0x40030298                sosetopt
                0x4002ff14                soconnect
                0x400306bc                sorflush
                0x4002fe24                solisten
                0x4002fed8                sodisconnect
                0x4002fe00                sobind
                0x40030948                soclose
                0x4002ff8c                sogetopt
                0x40031814                sosend
                0x40030ab4                socreate
                0x4002ff84                sohasoutofband
 .text          0x40031f04     0x15c0 /opt/rtems-4.8/sparc-rtems/leon2/lib/librtemscpu.a(libnetworking_a-uipc_socket2.o)
                0x40032418                pru_listen_notsupp
                0x40032408                pru_connect2_notsupp
                0x4003248c                sbdrop
                0x40032da0                socantrcvmore
                0x40032430                pru_sense_null
                0x4003307c                soisdisconnecting
                0x40032420                pru_rcvd_notsupp
                0x40032410                pru_control_notsupp
                0x400331c4                sodropablereq
                0x400327fc                soreserve
                0x400327e0                sbrelease
                0x40031f94                sbdroprecord
                0x40032400                pru_accept_notsupp
                0x400330d4                soisconnected
                0x40031f18                sbreserve
                0x40032d20                sbappend
                0x40032c54                sbappendrecord
                0x40032894                sbappendcontrol
                0x40033024                soisdisconnected
                0x40032440                sbcreatecontrol
                0x40032770                sbflush
                0x40032e00                sonewconn1
                0x400332d0                sbappendaddr
                0x40032de0                socantsendmore
                0x40031f04                soisconnecting
                0x400329c8                sbcompress
                0x40032428                pru_rcvoob_notsupp
                0x40032b5c                sbinsertoob
 .text          0x400334c4      0x1b0 /opt/rtems-4.8/sparc-rtems/leon2/lib/librtemscpu.a(librtems_a-clockget.o)
                0x400334d8                rtems_clock_get
 .text          0x40033674       0x20 /opt/rtems-4.8/sparc-rtems/leon2/lib/librtemscpu.a(librtems_a-clocksetnsecshandler.o)
                0x40033674                rtems_clock_set_nanoseconds_extension
 .text          0x40033694       0x5c /opt/rtems-4.8/sparc-rtems/leon2/lib/librtemscpu.a(librtems_a-clocktick.o)
                0x40033694                rtems_clock_tick
 .text          0x400336f0       0x90 /opt/rtems-4.8/sparc-rtems/leon2/lib/librtemscpu.a(librtems_a-eventreceive.o)
                0x400336f0                rtems_event_receive
 .text          0x40033780      0x1a8 /opt/rtems-4.8/sparc-rtems/leon2/lib/librtemscpu.a(librtems_a-eventseize.o)
                0x40033780                _Event_Seize
 .text          0x40033928       0xfc /opt/rtems-4.8/sparc-rtems/leon2/lib/librtemscpu.a(librtems_a-eventsend.o)
                0x40033928                rtems_event_send
 .text          0x40033a24      0x120 /opt/rtems-4.8/sparc-rtems/leon2/lib/librtemscpu.a(librtems_a-eventsurrender.o)
                0x40033a24                _Event_Surrender
 .text          0x40033b44      0x134 /opt/rtems-4.8/sparc-rtems/leon2/lib/librtemscpu.a(librtems_a-eventtimeout.o)
                0x40033b44                _Event_Timeout
 .text          0x40033c78       0x48 /opt/rtems-4.8/sparc-rtems/leon2/lib/librtemscpu.a(librtems_a-intrcatch.o)
                0x40033c78                rtems_interrupt_catch
 .text          0x40033cc0      0x148 /opt/rtems-4.8/sparc-rtems/leon2/lib/librtemscpu.a(librtems_a-ratemoncreate.o)
                0x40033cc0                rtems_rate_monotonic_create
 .text          0x40033e08        0x0 /opt/rtems-4.8/sparc-rtems/leon2/lib/librtemscpu.a(librtems_a-ratemondata.o)
 .text          0x40033e08       0xc8 /opt/rtems-4.8/sparc-rtems/leon2/lib/librtemscpu.a(librtems_a-ratemondelete.o)
                0x40033e08                rtems_rate_monotonic_delete
 .text          0x40033ed0      0x400 /opt/rtems-4.8/sparc-rtems/leon2/lib/librtemscpu.a(librtems_a-ratemonperiod.o)
                0x40033ed0                _Rate_monotonic_Update_statistics
                0x40034038                rtems_rate_monotonic_period
 .text          0x400342d0       0xc8 /opt/rtems-4.8/sparc-rtems/leon2/lib/librtemscpu.a(librtems_a-ratemontimeout.o)
                0x400342d0                _Rate_monotonic_Timeout
 .text          0x40034398       0x10 /opt/rtems-4.8/sparc-rtems/leon2/lib/librtemscpu.a(librtems_a-rtemsobjectgetname.o)
                0x40034398                rtems_object_get_name
 .text          0x400343a8      0x210 /opt/rtems-4.8/sparc-rtems/leon2/lib/librtemscpu.a(librtems_a-semcreate.o)
                0x400343a8                rtems_semaphore_create
 .text          0x400345b8        0x0 /opt/rtems-4.8/sparc-rtems/leon2/lib/librtemscpu.a(librtems_a-semdata.o)
 .text          0x400345b8      0x12c /opt/rtems-4.8/sparc-rtems/leon2/lib/librtemscpu.a(librtems_a-semdelete.o)
                0x400345b8                rtems_semaphore_delete
 .text          0x400346e4       0x98 /opt/rtems-4.8/sparc-rtems/leon2/lib/librtemscpu.a(librtems_a-semflush.o)
                0x400346e4                rtems_semaphore_flush
 .text          0x4003477c      0x338 /opt/rtems-4.8/sparc-rtems/leon2/lib/librtemscpu.a(librtems_a-semobtain.o)
                0x4003477c                rtems_semaphore_obtain
 .text          0x40034ab4       0xe4 /opt/rtems-4.8/sparc-rtems/leon2/lib/librtemscpu.a(librtems_a-semrelease.o)
                0x40034ab4                rtems_semaphore_release
 .text          0x40034b98       0x50 /opt/rtems-4.8/sparc-rtems/leon2/lib/librtemscpu.a(librtems_a-semtranslatereturncode.o)
                0x40034b98                _Semaphore_Translate_core_mutex_return_code
                0x40034bc0                _Semaphore_Translate_core_semaphore_return_code
 .text          0x40034be8      0x168 /opt/rtems-4.8/sparc-rtems/leon2/lib/librtemscpu.a(librtems_a-taskcreate.o)
                0x40034be8                rtems_task_create
 .text          0x40034d50        0x0 /opt/rtems-4.8/sparc-rtems/leon2/lib/librtemscpu.a(librtems_a-taskdata.o)
 .text          0x40034d50      0x158 /opt/rtems-4.8/sparc-rtems/leon2/lib/librtemscpu.a(librtems_a-taskdelete.o)
                0x40034d50                rtems_task_delete
 .text          0x40034ea8       0x60 /opt/rtems-4.8/sparc-rtems/leon2/lib/librtemscpu.a(librtems_a-taskident.o)
                0x40034ea8                rtems_task_ident
 .text          0x40034f08       0xdc /opt/rtems-4.8/sparc-rtems/leon2/lib/librtemscpu.a(librtems_a-taskinitusers.o)
                0x40034f08                _RTEMS_tasks_Initialize_user_tasks_body
 .text          0x40034fe4       0xf4 /opt/rtems-4.8/sparc-rtems/leon2/lib/librtemscpu.a(librtems_a-taskresume.o)
                0x40034fe4                rtems_task_resume
 .text          0x400350d8      0x138 /opt/rtems-4.8/sparc-rtems/leon2/lib/librtemscpu.a(librtems_a-tasksetpriority.o)
                0x400350d8                rtems_task_set_priority
 .text          0x40035210      0x10c /opt/rtems-4.8/sparc-rtems/leon2/lib/librtemscpu.a(librtems_a-taskstart.o)
                0x40035210                rtems_task_start
 .text          0x4003531c       0xf4 /opt/rtems-4.8/sparc-rtems/leon2/lib/librtemscpu.a(librtems_a-tasksuspend.o)
                0x4003531c                rtems_task_suspend
 .text          0x40035410      0x17c /opt/rtems-4.8/sparc-rtems/leon2/lib/librtemscpu.a(librtems_a-taskvariableadd.o)
                0x40035410                rtems_task_variable_add
 .text          0x4003558c       0x98 /opt/rtems-4.8/sparc-rtems/leon2/lib/librtemscpu.a(librtems_a-taskwakeafter.o)
                0x4003558c                rtems_task_wake_after
 .text          0x40035624      0x22c /opt/rtems-4.8/sparc-rtems/leon2/lib/librtemscpu.a(libsapi_a-exinit.o)
                0x40035624                rtems_initialize_executive_late
                0x40035644                rtems_initialize_executive_early
 .text          0x40035850       0x34 /opt/rtems-4.8/sparc-rtems/leon2/lib/librtemscpu.a(libsapi_a-extension.o)
                0x40035850                _Extension_Manager_initialization
 .text          0x40035884        0x0 /opt/rtems-4.8/sparc-rtems/leon2/lib/librtemscpu.a(libsapi_a-extensiondata.o)
 .text          0x40035884       0x1c /opt/rtems-4.8/sparc-rtems/leon2/lib/librtemscpu.a(libsapi_a-fatal.o)
                0x40035884                rtems_fatal_error_occurred
 .text          0x400358a0        0xc /opt/rtems-4.8/sparc-rtems/leon2/lib/librtemscpu.a(libsapi_a-getversionstring.o)
                0x400358a0                rtems_get_version_string
 .text          0x400358ac       0xfc /opt/rtems-4.8/sparc-rtems/leon2/lib/librtemscpu.a(libsapi_a-io.o)
                0x400358ac                _IO_Initialize_all_drivers
                0x400358f0                _IO_Manager_initialization
 .text          0x400359a8        0x0 /opt/rtems-4.8/sparc-rtems/leon2/lib/librtemscpu.a(libsapi_a-iodata.o)
 .text          0x400359a8       0x54 /opt/rtems-4.8/sparc-rtems/leon2/lib/librtemscpu.a(libsapi_a-ioinitialize.o)
                0x400359a8                rtems_io_initialize
 .text          0x400359fc      0x150 /opt/rtems-4.8/sparc-rtems/leon2/lib/librtemscpu.a(libsapi_a-ioregisterdriver.o)
                0x400359fc                rtems_io_register_driver
 .text          0x40035b4c       0x90 /opt/rtems-4.8/sparc-rtems/leon2/lib/librtemscpu.a(libsapi_a-posixapi.o)
                0x40035b4c                _POSIX_API_Initialize
 .text          0x40035bdc       0x7c /opt/rtems-4.8/sparc-rtems/leon2/lib/librtemscpu.a(libsapi_a-rtemsapi.o)
                0x40035bdc                _RTEMS_API_Initialize
 .text          0x40035c58      0x128 /opt/rtems-4.8/sparc-rtems/leon2/lib/librtemscpu.a(libscore_a-apiext.o)
                0x40035c58                _API_extensions_Initialization
                0x40035ce0                _API_extensions_Run_predriver
                0x40035cc4                _API_extensions_Add
                0x40035c74                _API_extensions_Run_postdriver
                0x40035d30                _API_extensions_Run_postswitch
 .text          0x40035d80       0x30 /opt/rtems-4.8/sparc-rtems/leon2/lib/librtemscpu.a(libscore_a-chainappend.o)
                0x40035d80                _Chain_Append
 .text          0x40035db0       0x4c /opt/rtems-4.8/sparc-rtems/leon2/lib/librtemscpu.a(libscore_a-chainget.o)
                0x40035db0                _Chain_Get
 .text          0x40035dfc       0xc8 /opt/rtems-4.8/sparc-rtems/leon2/lib/librtemscpu.a(libscore_a-coremutex.o)
                0x40035dfc                _CORE_mutex_Initialize
 .text          0x40035ec4       0x10 /opt/rtems-4.8/sparc-rtems/leon2/lib/librtemscpu.a(libscore_a-coremutexflush.o)
                0x40035ec4                _CORE_mutex_Flush
 .text          0x40035ed4       0x90 /opt/rtems-4.8/sparc-rtems/leon2/lib/librtemscpu.a(libscore_a-coremutexseize.o)
                0x40035ed4                _CORE_mutex_Seize_interrupt_blocking
 .text          0x40035f64      0x170 /opt/rtems-4.8/sparc-rtems/leon2/lib/librtemscpu.a(libscore_a-coremutexsurrender.o)
                0x40035f64                _CORE_mutex_Surrender
 .text          0x400360d4       0x3c /opt/rtems-4.8/sparc-rtems/leon2/lib/librtemscpu.a(libscore_a-coresem.o)
                0x400360d4                _CORE_semaphore_Initialize
 .text          0x40036110       0x10 /opt/rtems-4.8/sparc-rtems/leon2/lib/librtemscpu.a(libscore_a-coresemflush.o)
                0x40036110                _CORE_semaphore_Flush
 .text          0x40036120       0x60 /opt/rtems-4.8/sparc-rtems/leon2/lib/librtemscpu.a(libscore_a-coresemsurrender.o)
                0x40036120                _CORE_semaphore_Surrender
 .text          0x40036180       0x3c /opt/rtems-4.8/sparc-rtems/leon2/lib/librtemscpu.a(libscore_a-coretod.o)
                0x40036180                _TOD_Handler_initialization
 .text          0x400361bc       0x64 /opt/rtems-4.8/sparc-rtems/leon2/lib/librtemscpu.a(libscore_a-coretodget.o)
                0x400361bc                _TOD_Get
 .text          0x40036220       0x64 /opt/rtems-4.8/sparc-rtems/leon2/lib/librtemscpu.a(libscore_a-coretodgetuptime.o)
                0x40036220                _TOD_Get_uptime
 .text          0x40036284       0x88 /opt/rtems-4.8/sparc-rtems/leon2/lib/librtemscpu.a(libscore_a-coretodtickle.o)
                0x40036284                _TOD_Tickle_ticks
 .text          0x4003630c      0x234 /opt/rtems-4.8/sparc-rtems/leon2/lib/librtemscpu.a(libscore_a-heap.o)
                0x400363bc                _Heap_Calc_block_size
                0x4003630c                _Heap_Block_allocate
                0x4003640c                _Heap_Initialize
 .text          0x40036540       0xc8 /opt/rtems-4.8/sparc-rtems/leon2/lib/librtemscpu.a(libscore_a-heapallocate.o)
                0x40036540                _Heap_Allocate
 .text          0x40036608      0x1cc /opt/rtems-4.8/sparc-rtems/leon2/lib/librtemscpu.a(libscore_a-heapfree.o)
                0x40036608                _Heap_Free
 .text          0x400367d4       0x40 /opt/rtems-4.8/sparc-rtems/leon2/lib/librtemscpu.a(libscore_a-interr.o)
                0x400367d4                _Internal_error_Occurred
 .text          0x40036814       0x74 /opt/rtems-4.8/sparc-rtems/leon2/lib/librtemscpu.a(libscore_a-isr.o)
                0x40036814                _ISR_Handler_initialization
 .text          0x40036888       0x9c /opt/rtems-4.8/sparc-rtems/leon2/lib/librtemscpu.a(libscore_a-iterateoverthreads.o)
                0x40036888                rtems_iterate_over_all_threads
 .text          0x40036924       0x38 /opt/rtems-4.8/sparc-rtems/leon2/lib/librtemscpu.a(libscore_a-object.o)
                0x40036924                _Objects_Handler_initialization
 .text          0x4003695c       0xb4 /opt/rtems-4.8/sparc-rtems/leon2/lib/librtemscpu.a(libscore_a-objectallocate.o)
                0x4003695c                _Objects_Allocate
 .text          0x40036a10      0x384 /opt/rtems-4.8/sparc-rtems/leon2/lib/librtemscpu.a(libscore_a-objectextendinformation.o)
                0x40036a10                _Objects_Extend_information
 .text          0x40036d94       0x94 /opt/rtems-4.8/sparc-rtems/leon2/lib/librtemscpu.a(libscore_a-objectfree.o)
                0x40036d94                _Objects_Free
 .text          0x40036e28       0x9c /opt/rtems-4.8/sparc-rtems/leon2/lib/librtemscpu.a(libscore_a-objectget.o)
                0x40036e28                _Objects_Get
 .text          0x40036ec4       0x78 /opt/rtems-4.8/sparc-rtems/leon2/lib/librtemscpu.a(libscore_a-objectgetisr.o)
                0x40036ec4                _Objects_Get_isr_disable
 .text          0x40036f3c      0x150 /opt/rtems-4.8/sparc-rtems/leon2/lib/librtemscpu.a(libscore_a-objectgetnameasstring.o)
                0x40036f3c                _Objects_Get_name_as_string
 .text          0x4003708c       0xd8 /opt/rtems-4.8/sparc-rtems/leon2/lib/librtemscpu.a(libscore_a-objectinitializeinformation.o)
                0x4003708c                _Objects_Initialize_information
 .text          0x40037164       0xf0 /opt/rtems-4.8/sparc-rtems/leon2/lib/librtemscpu.a(libscore_a-objectnametoid.o)
                0x40037164                _Objects_Name_to_id
 .text          0x40037254      0x140 /opt/rtems-4.8/sparc-rtems/leon2/lib/librtemscpu.a(libscore_a-objectshrinkinformation.o)
                0x40037254                _Objects_Shrink_information
 .text          0x40037394      0x268 /opt/rtems-4.8/sparc-rtems/leon2/lib/librtemscpu.a(libscore_a-pheapallocate.o)
                0x40037394                _Protected_heap_Allocate
 .text          0x400375fc      0x270 /opt/rtems-4.8/sparc-rtems/leon2/lib/librtemscpu.a(libscore_a-pheapextend.o)
                0x400375fc                _Protected_heap_Extend
 .text          0x4003786c      0x268 /opt/rtems-4.8/sparc-rtems/leon2/lib/librtemscpu.a(libscore_a-pheapfree.o)
                0x4003786c                _Protected_heap_Free
 .text          0x40037ad4      0x26c /opt/rtems-4.8/sparc-rtems/leon2/lib/librtemscpu.a(libscore_a-pheapgetblocksize.o)
                0x40037ad4                _Protected_heap_Get_block_size
 .text          0x40037d40      0x274 /opt/rtems-4.8/sparc-rtems/leon2/lib/librtemscpu.a(libscore_a-pheapresizeblock.o)
                0x40037d40                _Protected_heap_Resize_block
 .text          0x40037fb4       0xf4 /opt/rtems-4.8/sparc-rtems/leon2/lib/librtemscpu.a(libscore_a-thread.o)
                0x40037fb4                _Thread_Handler_initialization
 .text          0x400380a8      0x1bc /opt/rtems-4.8/sparc-rtems/leon2/lib/librtemscpu.a(libscore_a-threadchangepriority.o)
                0x400380a8                _Thread_Change_priority
 .text          0x40038264       0xdc /opt/rtems-4.8/sparc-rtems/leon2/lib/librtemscpu.a(libscore_a-threadclearstate.o)
                0x40038264                _Thread_Clear_state
 .text          0x40038340       0xd8 /opt/rtems-4.8/sparc-rtems/leon2/lib/librtemscpu.a(libscore_a-threadclose.o)
                0x40038340                _Thread_Close
 .text          0x40038418       0xac /opt/rtems-4.8/sparc-rtems/leon2/lib/librtemscpu.a(libscore_a-threadcreateidle.o)
                0x40038418                _Thread_Create_idle
 .text          0x400384c4       0xa4 /opt/rtems-4.8/sparc-rtems/leon2/lib/librtemscpu.a(libscore_a-threaddelayended.o)
                0x400384c4                _Thread_Delay_ended
 .text          0x40038568      0x198 /opt/rtems-4.8/sparc-rtems/leon2/lib/librtemscpu.a(libscore_a-threaddispatch.o)
                0x40038568                _Thread_Dispatch
 .text          0x40038700        0x4 /opt/rtems-4.8/sparc-rtems/leon2/lib/librtemscpu.a(libscore_a-threadidlebody.o)
                0x40038700                _Thread_Idle_body
 .text          0x40038704      0x224 /opt/rtems-4.8/sparc-rtems/leon2/lib/librtemscpu.a(libscore_a-threadinitialize.o)
                0x40038704                _Thread_Initialize
 .text          0x40038928       0x8c /opt/rtems-4.8/sparc-rtems/leon2/lib/librtemscpu.a(libscore_a-threadq.o)
                0x40038928                _Thread_queue_Initialize
 .text          0x400389b4       0x3c /opt/rtems-4.8/sparc-rtems/leon2/lib/librtemscpu.a(libscore_a-threadqdequeue.o)
                0x400389b4                _Thread_queue_Dequeue
 .text          0x400389f0       0xe0 /opt/rtems-4.8/sparc-rtems/leon2/lib/librtemscpu.a(libscore_a-threadqdequeuefifo.o)
                0x400389f0                _Thread_queue_Dequeue_fifo
 .text          0x40038ad0      0x17c /opt/rtems-4.8/sparc-rtems/leon2/lib/librtemscpu.a(libscore_a-threadqdequeuepriority.o)
                0x40038ad0                _Thread_queue_Dequeue_priority
 .text          0x40038c4c       0x84 /opt/rtems-4.8/sparc-rtems/leon2/lib/librtemscpu.a(libscore_a-threadqenqueue.o)
                0x40038c4c                _Thread_queue_Enqueue_with_handler
 .text          0x40038cd0       0xe0 /opt/rtems-4.8/sparc-rtems/leon2/lib/librtemscpu.a(libscore_a-threadqenqueuefifo.o)
                0x40038cd0                _Thread_queue_Enqueue_fifo
 .text          0x40038db0      0x2f8 /opt/rtems-4.8/sparc-rtems/leon2/lib/librtemscpu.a(libscore_a-threadqenqueuepriority.o)
                0x40038db0                _Thread_queue_Enqueue_priority
 .text          0x400390a8       0x98 /opt/rtems-4.8/sparc-rtems/leon2/lib/librtemscpu.a(libscore_a-threadqextractwithproxy.o)
                0x400390a8                _Thread_queue_Extract_with_proxy
 .text          0x40039140       0x20 /opt/rtems-4.8/sparc-rtems/leon2/lib/librtemscpu.a(libscore_a-threadqflush.o)
                0x40039140                _Thread_queue_Flush
 .text          0x40039160       0x7c /opt/rtems-4.8/sparc-rtems/leon2/lib/librtemscpu.a(libscore_a-threadqrequeue.o)
                0x40039160                _Thread_queue_Requeue
 .text          0x400391dc       0xd8 /opt/rtems-4.8/sparc-rtems/leon2/lib/librtemscpu.a(libscore_a-threadqtimeout.o)
                0x400391dc                _Thread_queue_Timeout
 .text          0x400392b4      0x120 /opt/rtems-4.8/sparc-rtems/leon2/lib/librtemscpu.a(libscore_a-threadresume.o)
                0x400392b4                _Thread_Resume
 .text          0x400393d4       0x68 /opt/rtems-4.8/sparc-rtems/leon2/lib/librtemscpu.a(libscore_a-threadsetpriority.o)
                0x400393d4                _Thread_Set_priority
 .text          0x4003943c      0x1a4 /opt/rtems-4.8/sparc-rtems/leon2/lib/librtemscpu.a(libscore_a-threadsetstate.o)
                0x4003943c                _Thread_Set_state
 .text          0x400395e0       0x98 /opt/rtems-4.8/sparc-rtems/leon2/lib/librtemscpu.a(libscore_a-threadsettransient.o)
                0x400395e0                _Thread_Set_transient
 .text          0x40039678       0x6c /opt/rtems-4.8/sparc-rtems/leon2/lib/librtemscpu.a(libscore_a-threadstackallocate.o)
                0x40039678                _Thread_Stack_Allocate
 .text          0x400396e4       0x44 /opt/rtems-4.8/sparc-rtems/leon2/lib/librtemscpu.a(libscore_a-threadstackfree.o)
                0x400396e4                _Thread_Stack_Free
 .text          0x40039728       0x48 /opt/rtems-4.8/sparc-rtems/leon2/lib/librtemscpu.a(libscore_a-threadstart.o)
                0x40039728                _Thread_Start
 .text          0x40039770       0x54 /opt/rtems-4.8/sparc-rtems/leon2/lib/librtemscpu.a(libscore_a-threadstartmultitasking.o)
                0x40039770                _Thread_Start_multitasking
 .text          0x400397c4      0x1b4 /opt/rtems-4.8/sparc-rtems/leon2/lib/librtemscpu.a(libscore_a-threadsuspend.o)
                0x400397c4                _Thread_Suspend
 .text          0x40039978       0xac /opt/rtems-4.8/sparc-rtems/leon2/lib/librtemscpu.a(libscore_a-threadtickletimeslice.o)
                0x40039978                _Thread_Tickle_timeslice
 .text          0x40039a24       0xa8 /opt/rtems-4.8/sparc-rtems/leon2/lib/librtemscpu.a(libscore_a-threadyieldprocessor.o)
                0x40039a24                _Thread_Yield_processor
 .text          0x40039acc       0x68 /opt/rtems-4.8/sparc-rtems/leon2/lib/librtemscpu.a(libscore_a-timespecaddto.o)
                0x40039acc                _Timespec_Add_to
 .text          0x40039b34       0x44 /opt/rtems-4.8/sparc-rtems/leon2/lib/librtemscpu.a(libscore_a-timespecgreaterthan.o)
                0x40039b34                _Timespec_Greater_than
 .text          0x40039b78       0x44 /opt/rtems-4.8/sparc-rtems/leon2/lib/librtemscpu.a(libscore_a-timespeclessthan.o)
                0x40039b78                _Timespec_Less_than
 .text          0x40039bbc       0x58 /opt/rtems-4.8/sparc-rtems/leon2/lib/librtemscpu.a(libscore_a-timespecsubtract.o)
                0x40039bbc                _Timespec_Subtract
 .text          0x40039c14       0x9c /opt/rtems-4.8/sparc-rtems/leon2/lib/librtemscpu.a(libscore_a-userext.o)
                0x40039c14                _User_extensions_Handler_initialization
 .text          0x40039cb0       0x4c /opt/rtems-4.8/sparc-rtems/leon2/lib/librtemscpu.a(libscore_a-userextaddset.o)
                0x40039cb0                _User_extensions_Add_set
 .text          0x40039cfc       0xec /opt/rtems-4.8/sparc-rtems/leon2/lib/librtemscpu.a(libscore_a-userextthreadbegin.o)
                0x40039d9c                _User_extensions_Thread_exitted
                0x40039d4c                _User_extensions_Fatal
                0x40039cfc                _User_extensions_Thread_begin
 .text          0x40039de8       0x64 /opt/rtems-4.8/sparc-rtems/leon2/lib/librtemscpu.a(libscore_a-userextthreadcreate.o)
                0x40039de8                _User_extensions_Thread_create
 .text          0x40039e4c       0x50 /opt/rtems-4.8/sparc-rtems/leon2/lib/librtemscpu.a(libscore_a-userextthreaddelete.o)
                0x40039e4c                _User_extensions_Thread_delete
 .text          0x40039e9c       0x50 /opt/rtems-4.8/sparc-rtems/leon2/lib/librtemscpu.a(libscore_a-userextthreadstart.o)
                0x40039e9c                _User_extensions_Thread_start
 .text          0x40039eec       0x48 /opt/rtems-4.8/sparc-rtems/leon2/lib/librtemscpu.a(libscore_a-userextthreadswitch.o)
                0x40039eec                _User_extensions_Thread_switch
 .text          0x40039f34       0x4c /opt/rtems-4.8/sparc-rtems/leon2/lib/librtemscpu.a(libscore_a-watchdog.o)
                0x40039f34                _Watchdog_Handler_initialization
 .text          0x40039f80      0x15c /opt/rtems-4.8/sparc-rtems/leon2/lib/librtemscpu.a(libscore_a-watchdoginsert.o)
                0x40039f80                _Watchdog_Insert
 .text          0x4003a0dc       0xd8 /opt/rtems-4.8/sparc-rtems/leon2/lib/librtemscpu.a(libscore_a-watchdogremove.o)
                0x4003a0dc                _Watchdog_Remove
 .text          0x4003a1b4       0xd4 /opt/rtems-4.8/sparc-rtems/leon2/lib/librtemscpu.a(libscore_a-watchdogtickle.o)
                0x4003a1b4                _Watchdog_Tickle
 .text          0x4003a288       0xd4 /opt/rtems-4.8/sparc-rtems/leon2/lib/librtemscpu.a(libscore_a-wkspace.o)
                0x4003a288                _Workspace_Allocate_or_fatal_error
                0x4003a2b8                _Workspace_Handler_initialization
 .text          0x4003a35c      0x164 /opt/rtems-4.8/sparc-rtems/leon2/lib/librtemscpu.a(libscorecpu_a-cpu.o)
                0x4003a370                _CPU_Context_Initialize
                0x4003a498                _CPU_Initialize
                0x4003a458                _CPU_ISR_install_vector
                0x4003a3c8                _CPU_ISR_install_raw_handler
                0x4003a35c                _CPU_ISR_Get_level
 .text          0x4003a4c0      0x51c /opt/rtems-4.8/sparc-rtems/leon2/lib/librtemscpu.a(libscorecpu_a-cpu_asm.o)
                0x4003a61c                _CPU_Context_restore_heir
                0x4003a70c                _ISR_Handler
                0x4003a5c8                _CPU_Context_switch
                0x4003a8a4                _ISR_Dispatch
                0x4003a6fc                _CPU_Context_restore
                0x4003a544                _CPU_Context_restore_fp
                0x4003a4c0                _CPU_Context_save_fp
 .text          0x4003a9dc       0x24 /opt/rtems-4.8/sparc-rtems/leon2/lib/librtemscpu.a(miniimfs_init.o)
                0x4003a9dc                miniIMFS_initialize
 .text          0x4003aa00      0x8a4 /opt/rtems-4.8/sparc-rtems/leon2/lib/librtemscpu.a(imfs_eval.o)
                0x4003ae1c                IMFS_evaluate_sym_link
                0x4003aa94                IMFS_evaluate_permission
                0x4003af08                IMFS_evaluate_link
                0x4003afd0                IMFS_evaluate_for_make
                0x4003aa1c                IMFS_Set_handlers
                0x4003ab0c                IMFS_evaluate_hard_link
                0x4003ab78                IMFS_eval_path
 .text          0x4003b2a4       0xc8 /opt/rtems-4.8/sparc-rtems/leon2/lib/librtemscpu.a(imfs_getchild.o)
                0x4003b2a4                IMFS_find_match_in_dir
 .text          0x4003b36c      0x138 /opt/rtems-4.8/sparc-rtems/leon2/lib/librtemscpu.a(imfs_gtkn.o)
                0x4003b36c                IMFS_get_token
 .text          0x4003b4a4        0x0 /opt/rtems-4.8/sparc-rtems/leon2/lib/librtemscpu.a(imfs_handlers_device.o)
 .text          0x4003b4a4        0x0 /opt/rtems-4.8/sparc-rtems/leon2/lib/librtemscpu.a(imfs_handlers_link.o)
 .text          0x4003b4a4       0xd4 /opt/rtems-4.8/sparc-rtems/leon2/lib/librtemscpu.a(imfs_initsupp.o)
                0x4003b4a4                IMFS_initialize_support
 .text          0x4003b578       0xcc /opt/rtems-4.8/sparc-rtems/leon2/lib/librtemscpu.a(imfs_mknod.o)
                0x4003b578                IMFS_mknod
 .text          0x4003b644        0xc /opt/rtems-4.8/sparc-rtems/leon2/lib/librtemscpu.a(imfs_ntype.o)
                0x4003b644                IMFS_node_type
 .text          0x4003b650       0xb8 /opt/rtems-4.8/sparc-rtems/leon2/lib/librtemscpu.a(imfs_rmnod.o)
                0x4003b650                IMFS_rmnod
 .text          0x4003b708       0xa8 /opt/rtems-4.8/sparc-rtems/leon2/lib/librtemscpu.a(imfs_stat.o)
                0x4003b708                IMFS_stat
 .text          0x4003b7b0       0x5c /opt/rtems-4.8/sparc-rtems/leon2/lib/librtemscpu.a(libc_a-inet_ntoa.o)
                0x4003b7b0                inet_ntoa
 .text          0x4003b80c      0x374 /opt/rtems-4.8/sparc-rtems/leon2/lib/librtemscpu.a(libc_a-inet_ntop.o)
                0x4003b870                inet_ntop
 .text          0x4003bb80       0x8c /opt/rtems-4.8/sparc-rtems/leon2/lib/librtemscpu.a(libcsupport_a-__gettod.o)
                0x4003bbf4                _gettimeofday_r
                0x4003bb80                gettimeofday
                0x4003bbe4                _gettimeofday
 .text          0x4003bc0c       0x28 /opt/rtems-4.8/sparc-rtems/leon2/lib/librtemscpu.a(libcsupport_a-assoclocalbyremote.o)
                0x4003bc0c                rtems_assoc_local_by_remote
 .text          0x4003bc34       0x58 /opt/rtems-4.8/sparc-rtems/leon2/lib/librtemscpu.a(libcsupport_a-assoclocalbyremotebitfield.o)
                0x4003bc34                rtems_assoc_local_by_remote_bitfield
 .text          0x4003bc8c       0x8c /opt/rtems-4.8/sparc-rtems/leon2/lib/librtemscpu.a(libcsupport_a-assocptrbyremote.o)
                0x4003bc8c                rtems_assoc_ptr_by_remote
 .text          0x4003bd18      0x170 /opt/rtems-4.8/sparc-rtems/leon2/lib/librtemscpu.a(libcsupport_a-base_fs.o)
                0x4003bd18                rtems_filesystem_initialize
 .text          0x4003be88      0x23c /opt/rtems-4.8/sparc-rtems/leon2/lib/librtemscpu.a(libcsupport_a-error.o)
                0x4003c060                rtems_panic
                0x4003c094                rtems_error
                0x4003be88                rtems_status_text
 .text          0x4003c0c4        0x0 /opt/rtems-4.8/sparc-rtems/leon2/lib/librtemscpu.a(libcsupport_a-fs_null_handlers.o)
 .text          0x4003c0c4       0x10 /opt/rtems-4.8/sparc-rtems/leon2/lib/librtemscpu.a(libcsupport_a-getegid.o)
                0x4003c0c4                getegid
 .text          0x4003c0d4       0x10 /opt/rtems-4.8/sparc-rtems/leon2/lib/librtemscpu.a(libcsupport_a-geteuid.o)
                0x4003c0d4                geteuid
 .text          0x4003c0e4       0xbc /opt/rtems-4.8/sparc-rtems/leon2/lib/librtemscpu.a(libcsupport_a-ioctl.o)
                0x4003c0e4                ioctl
 .text          0x4003c1a0      0x11c /opt/rtems-4.8/sparc-rtems/leon2/lib/librtemscpu.a(libcsupport_a-libio_sockets.o)
                0x4003c22c                rtems_bsdnet_fdToSocket
                0x4003c1a0                rtems_bsdnet_makeFdForSocket
 .text          0x4003c2bc      0x2d8 /opt/rtems-4.8/sparc-rtems/leon2/lib/librtemscpu.a(libcsupport_a-mount.o)
                0x4003c2bc                init_fs_mount_table
                0x4003c2dc                mount
 .text          0x4003c594       0x84 /opt/rtems-4.8/sparc-rtems/leon2/lib/librtemscpu.a(libcsupport_a-newlibc_exit.o)
                0x4003c600                _exit
                0x4003c594                libc_wrapup
 .text          0x4003c618      0x334 /opt/rtems-4.8/sparc-rtems/leon2/lib/librtemscpu.a(libcsupport_a-open.o)
                0x4003c930                _open_r
                0x4003c618                open
 .text          0x4003c94c     0x1060 /opt/rtems-4.8/sparc-rtems/leon2/lib/librtemscpu.a(libnetworking_a-if_ether.o)
                0x4003d080                arpresolve
                0x4003d2d4                arpintr
                0x4003d968                arp_ifinit
 .text          0x4003d9ac     0x1184 /opt/rtems-4.8/sparc-rtems/leon2/lib/librtemscpu.a(libnetworking_a-in.o)
                0x4003da14                in_delmulti
                0x4003e15c                in_control
                0x4003e0a0                in_broadcast
                0x4003dfe8                in_localaddr
                0x4003dab8                in_addmulti
                0x4003d9ac                in_canforward
 .text          0x4003eb30      0x334 /opt/rtems-4.8/sparc-rtems/leon2/lib/librtemscpu.a(libnetworking_a-in_cksum.o)
                0x4003eb30                in_cksum
 .text          0x4003ee64     0x10a4 /opt/rtems-4.8/sparc-rtems/leon2/lib/librtemscpu.a(libnetworking_a-in_pcb.o)
                0x4003fde0                in_pcballoc
                0x4003ee64                in_pcbnotify
                0x4003efb0                in_pcblookup
                0x4003f920                in_pcbbind
                0x4003f4c0                in_setpeeraddr
                0x4003f560                in_losing
                0x4003f6dc                in_pcbladdr
                0x4003f4fc                in_setsockaddr
                0x4003f5fc                in_pcbdetach
                0x4003f0cc                in_pcblookuphash
                0x4003fcc0                in_pcbconnect
                0x4003f6a0                in_pcbdisconnect
                0x4003f27c                in_pcbrehash
 .text          0x4003ff08        0x0 /opt/rtems-4.8/sparc-rtems/leon2/lib/librtemscpu.a(libnetworking_a-in_proto.o)
 .text          0x4003ff08      0x620 /opt/rtems-4.8/sparc-rtems/leon2/lib/librtemscpu.a(libnetworking_a-in_rmx.o)
                0x4003ff08                in_rtqdrain
                0x400400a0                in_inithead
 .text          0x40040528      0xd3c /opt/rtems-4.8/sparc-rtems/leon2/lib/librtemscpu.a(libnetworking_a-ip_icmp.o)
                0x400409e8                icmp_input
                0x400405a4                ip_next_mtu
                0x40040fc4                icmp_error
                0x40040628                iptime
 .text          0x40041264      0x258 /opt/rtems-4.8/sparc-rtems/leon2/lib/librtemscpu.a(libnetworking_a-kern_subr.o)
                0x4004138c                uiomove
                0x40041264                phashinit
                0x40041314                hashinit
 .text          0x400414bc      0x3dc /opt/rtems-4.8/sparc-rtems/leon2/lib/librtemscpu.a(libnetworking_a-raw_usrreq.o)
                0x40041510                raw_ctlinput
                0x40041518                raw_usrreq
                0x400416f8                raw_input
                0x40041504                raw_init
 .text          0x40041898       0x18 /opt/rtems-4.8/sparc-rtems/leon2/lib/librtemscpu.a(libnetworking_a-rtems_bsdnet_malloc_starvation.o)
                0x40041898                rtems_bsdnet_malloc_starvation
 .text          0x400418b0     0x28a8 /opt/rtems-4.8/sparc-rtems/leon2/lib/librtemscpu.a(libnetworking_a-tcp_input.o)
                0x40041a98                tcp_mss
                0x40041a64                tcp_mssopt
                0x400423d4                tcp_input
 .text          0x40044158      0xebc /opt/rtems-4.8/sparc-rtems/leon2/lib/librtemscpu.a(libnetworking_a-tcp_output.o)
                0x40044158                tcp_setpersist
                0x400441e8                tcp_output
 .text          0x40045014      0xc24 /opt/rtems-4.8/sparc-rtems/leon2/lib/librtemscpu.a(libnetworking_a-tcp_subr.o)
                0x40045660                tcp_close
                0x40045394                tcp_gettaocache
                0x40045a64                tcp_respond
                0x40045330                tcp_rtlookup
                0x400454e0                tcp_ctlinput
                0x40045014                tcp_drain
                0x4004501c                tcp_quench
                0x40045924                tcp_init
                0x400459b0                tcp_template
                0x4004503c                tcp_newtcpcb
                0x400453d0                tcp_mtudisc
                0x400458a0                tcp_drop
 .text          0x40045c38      0x4e8 /opt/rtems-4.8/sparc-rtems/leon2/lib/librtemscpu.a(libnetworking_a-tcp_timer.o)
                0x40045c38                tcp_canceltimers
                0x40045c4c                tcp_fasttimo
                0x4004600c                tcp_slowtimo
                0x40045ccc                tcp_timers
 .text          0x40046120      0xcc0 /opt/rtems-4.8/sparc-rtems/leon2/lib/librtemscpu.a(libnetworking_a-tcp_usrreq.o)
                0x40046ae8                tcp_ctloutput
 .text          0x40046de0      0xdb8 /opt/rtems-4.8/sparc-rtems/leon2/lib/librtemscpu.a(libnetworking_a-udp_usrreq.o)
                0x40047070                udp_usrreq
                0x400475bc                udp_input
                0x40047584                udp_init
                0x40047484                udp_ctlinput
 .text          0x40047b98       0x30 /opt/rtems-4.8/sparc-rtems/leon2/lib/librtemscpu.a(libposix_a-cond.o)
                0x40047b98                _POSIX_Condition_variables_Manager_initialization
 .text          0x40047bc8       0x30 /opt/rtems-4.8/sparc-rtems/leon2/lib/librtemscpu.a(libposix_a-key.o)
                0x40047bc8                _POSIX_Key_Manager_initialization
 .text          0x40047bf8       0x58 /opt/rtems-4.8/sparc-rtems/leon2/lib/librtemscpu.a(libposix_a-mqueue.o)
                0x40047bf8                _POSIX_Message_queue_Manager_initialization
 .text          0x40047c50       0x30 /opt/rtems-4.8/sparc-rtems/leon2/lib/librtemscpu.a(libposix_a-mutex.o)
                0x40047c50                _POSIX_Mutex_Manager_initialization
 .text          0x40047c80       0x30 /opt/rtems-4.8/sparc-rtems/leon2/lib/librtemscpu.a(libposix_a-pbarrier.o)
                0x40047c80                _POSIX_Barrier_Manager_initialization
 .text          0x40047cb0       0x30 /opt/rtems-4.8/sparc-rtems/leon2/lib/librtemscpu.a(libposix_a-prwlock.o)
                0x40047cb0                _POSIX_RWLock_Manager_initialization
 .text          0x40047ce0      0x17c /opt/rtems-4.8/sparc-rtems/leon2/lib/librtemscpu.a(libposix_a-psignal.o)
                0x40047e4c                _POSIX_signals_Abnormal_termination_handler
                0x40047ce0                _POSIX_signals_Manager_Initialization
                0x40047d78                _POSIX_signals_Post_switch_extension
 .text          0x40047e5c       0xd4 /opt/rtems-4.8/sparc-rtems/leon2/lib/librtemscpu.a(libposix_a-psignalchecksignal.o)
                0x40047e5c                _POSIX_signals_Check_signal
 .text          0x40047f30      0x168 /opt/rtems-4.8/sparc-rtems/leon2/lib/librtemscpu.a(libposix_a-psignalclearsignals.o)
                0x40047f30                _POSIX_signals_Clear_signals
 .text          0x40048098       0x30 /opt/rtems-4.8/sparc-rtems/leon2/lib/librtemscpu.a(libposix_a-pspin.o)
                0x40048098                _POSIX_Spinlock_Manager_initialization
 .text          0x400480c8      0x348 /opt/rtems-4.8/sparc-rtems/leon2/lib/librtemscpu.a(libposix_a-pthread.o)
                0x400480f0                _POSIX_Threads_Manager_initialization
                0x400481b8                _POSIX_Threads_Create_extension
                0x40048334                _POSIX_Threads_Sporadic_budget_TSR
                0x40048144                _POSIX_Threads_Delete_extension
                0x400482e4                _POSIX_Threads_Sporadic_budget_callout
                0x400480c8                _POSIX_Threads_Initialize_user_threads
                0x400483e4                _POSIX_Threads_Exitted_extension
 .text          0x40048410       0xb4 /opt/rtems-4.8/sparc-rtems/leon2/lib/librtemscpu.a(libposix_a-pthreadexit.o)
                0x40048410                pthread_exit
 .text          0x400484c4       0x34 /opt/rtems-4.8/sparc-rtems/leon2/lib/librtemscpu.a(libposix_a-ptimer.o)
                0x400484c4                _POSIX_Timer_Manager_initialization
 .text          0x400484f8       0x34 /opt/rtems-4.8/sparc-rtems/leon2/lib/librtemscpu.a(libposix_a-semaphore.o)
                0x400484f8                _POSIX_Semaphore_Manager_initialization
 .text          0x4004852c       0x34 /opt/rtems-4.8/sparc-rtems/leon2/lib/librtemscpu.a(libposix_a-sigemptyset.o)
                0x4004852c                sigemptyset
 .text          0x40048560       0x34 /opt/rtems-4.8/sparc-rtems/leon2/lib/librtemscpu.a(librtems_a-barrier.o)
                0x40048560                _Barrier_Manager_initialization
 .text          0x40048594        0x0 /opt/rtems-4.8/sparc-rtems/leon2/lib/librtemscpu.a(librtems_a-barrierdata.o)
 .text          0x40048594       0x34 /opt/rtems-4.8/sparc-rtems/leon2/lib/librtemscpu.a(librtems_a-dpmem.o)
                0x40048594                _Dual_ported_memory_Manager_initialization
 .text          0x400485c8        0x0 /opt/rtems-4.8/sparc-rtems/leon2/lib/librtemscpu.a(librtems_a-dpmemdata.o)
 .text          0x400485c8       0x10 /opt/rtems-4.8/sparc-rtems/leon2/lib/librtemscpu.a(librtems_a-event.o)
                0x400485c8                _Event_Manager_initialization
 .text          0x400485d8        0x0 /opt/rtems-4.8/sparc-rtems/leon2/lib/librtemscpu.a(librtems_a-eventdata.o)
 .text          0x400485d8        0x8 /opt/rtems-4.8/sparc-rtems/leon2/lib/librtemscpu.a(librtems_a-intr.o)
                0x400485d8                _Interrupt_Manager_initialization
 .text          0x400485e0       0x34 /opt/rtems-4.8/sparc-rtems/leon2/lib/librtemscpu.a(librtems_a-msg.o)
                0x400485e0                _Message_queue_Manager_initialization
 .text          0x40048614        0x0 /opt/rtems-4.8/sparc-rtems/leon2/lib/librtemscpu.a(librtems_a-msgdata.o)
 .text          0x40048614       0x34 /opt/rtems-4.8/sparc-rtems/leon2/lib/librtemscpu.a(librtems_a-part.o)
                0x40048614                _Partition_Manager_initialization
 .text          0x40048648        0x0 /opt/rtems-4.8/sparc-rtems/leon2/lib/librtemscpu.a(librtems_a-partdata.o)
 .text          0x40048648       0x34 /opt/rtems-4.8/sparc-rtems/leon2/lib/librtemscpu.a(librtems_a-ratemon.o)
                0x40048648                _Rate_monotonic_Manager_initialization
 .text          0x4004867c       0x34 /opt/rtems-4.8/sparc-rtems/leon2/lib/librtemscpu.a(librtems_a-region.o)
                0x4004867c                _Region_Manager_initialization
 .text          0x400486b0        0x0 /opt/rtems-4.8/sparc-rtems/leon2/lib/librtemscpu.a(librtems_a-regiondata.o)
 .text          0x400486b0       0x3c /opt/rtems-4.8/sparc-rtems/leon2/lib/librtemscpu.a(librtems_a-rtemstimer.o)
                0x400486b0                _Timer_Manager_initialization
 .text          0x400486ec        0x0 /opt/rtems-4.8/sparc-rtems/leon2/lib/librtemscpu.a(librtems_a-rtemstimerdata.o)
 .text          0x400486ec       0x34 /opt/rtems-4.8/sparc-rtems/leon2/lib/librtemscpu.a(librtems_a-sem.o)
                0x400486ec                _Semaphore_Manager_initialization
 .text          0x40048720        0x8 /opt/rtems-4.8/sparc-rtems/leon2/lib/librtemscpu.a(librtems_a-signal.o)
                0x40048720                _Signal_Manager_initialization
 .text          0x40048728      0x2ac /opt/rtems-4.8/sparc-rtems/leon2/lib/librtemscpu.a(librtems_a-tasks.o)
                0x40048728                _RTEMS_tasks_Start_extension
                0x40048750                _RTEMS_tasks_Switch_extension
                0x40048828                _RTEMS_tasks_Post_switch_extension
                0x400488a8                _RTEMS_tasks_Create_extension
                0x400487b8                _RTEMS_tasks_Initialize_user_tasks
                0x400487e0                _RTEMS_tasks_Manager_initialization
                0x40048918                _RTEMS_tasks_Delete_extension
 .text          0x400489d4       0x4c /opt/rtems-4.8/sparc-rtems/leon2/lib/librtemscpu.a(libsapi_a-debug.o)
                0x400489d4                rtems_debug_enable
                0x400489fc                _Debug_Manager_initialization
                0x400489e8                rtems_debug_disable
                0x40048a10                _Debug_Is_enabled
 .text          0x40048a20       0x48 /opt/rtems-4.8/sparc-rtems/leon2/lib/librtemscpu.a(libsapi_a-exshutdown.o)
                0x40048a20                rtems_shutdown_executive
 .text          0x40048a68       0x60 /opt/rtems-4.8/sparc-rtems/leon2/lib/librtemscpu.a(libscore_a-chain.o)
                0x40048a68                _Chain_Initialize
 .text          0x40048ac8       0x28 /opt/rtems-4.8/sparc-rtems/leon2/lib/librtemscpu.a(libscore_a-chainextract.o)
                0x40048ac8                _Chain_Extract
 .text          0x40048af0       0xcc /opt/rtems-4.8/sparc-rtems/leon2/lib/librtemscpu.a(libscore_a-heapextend.o)
                0x40048af0                _Heap_Extend
 .text          0x40048bbc      0x238 /opt/rtems-4.8/sparc-rtems/leon2/lib/librtemscpu.a(libscore_a-heapresizeblock.o)
                0x40048bbc                _Heap_Resize_block
 .text          0x40048df4       0x8c /opt/rtems-4.8/sparc-rtems/leon2/lib/librtemscpu.a(libscore_a-heapsizeofuserarea.o)
                0x40048df4                _Heap_Size_of_user_area
 .text          0x40048e80       0x10 /opt/rtems-4.8/sparc-rtems/leon2/lib/librtemscpu.a(libscore_a-objectcomparenameraw.o)
                0x40048e80                _Objects_Compare_name_raw
 .text          0x40048e90       0x28 /opt/rtems-4.8/sparc-rtems/leon2/lib/librtemscpu.a(libscore_a-objectcomparenamestring.o)
                0x40048e90                _Objects_Compare_name_string
 .text          0x40048eb8       0x64 /opt/rtems-4.8/sparc-rtems/leon2/lib/librtemscpu.a(libscore_a-threadloadenv.o)
                0x40048eb8                _Thread_Load_environment
 .text          0x40048f1c       0x3c /opt/rtems-4.8/sparc-rtems/leon2/lib/librtemscpu.a(libscore_a-threadqextract.o)
                0x40048f1c                _Thread_queue_Extract
 .text          0x40048f58       0x8c /opt/rtems-4.8/sparc-rtems/leon2/lib/librtemscpu.a(libscore_a-threadqextractfifo.o)
                0x40048f58                _Thread_queue_Extract_fifo
 .text          0x40048fe4       0xec /opt/rtems-4.8/sparc-rtems/leon2/lib/librtemscpu.a(libscore_a-threadqextractpriority.o)
                0x40048fe4                _Thread_queue_Extract_priority_helper
 .text          0x400490d0      0x138 /opt/rtems-4.8/sparc-rtems/leon2/lib/librtemscpu.a(libscore_a-threadready.o)
                0x400490d0                _Thread_Ready
 .text          0x40049208       0x9c /opt/rtems-4.8/sparc-rtems/leon2/lib/librtemscpu.a(libscore_a-threadresettimeslice.o)
                0x40049208                _Thread_Reset_timeslice
 .text          0x400492a4       0x78 /opt/rtems-4.8/sparc-rtems/leon2/lib/librtemscpu.a(libscore_a-timespectoticks.o)
                0x400492a4                _Timespec_To_ticks
 .text          0x4004931c       0x3c /opt/rtems-4.8/sparc-rtems/leon2/lib/librtemscpu.a(libscore_a-userextaddapiset.o)
                0x4004931c                _User_extensions_Add_API_set
 .text          0x40049358      0x1e4 /opt/rtems-4.8/sparc-rtems/leon2/lib/librtemscpu.a(deviceio.o)
                0x400493e0                device_write
                0x40049394                device_ioctl
                0x400494ec                device_open
                0x400494a0                device_close
                0x40049358                device_lseek
                0x40049440                device_read
 .text          0x4004953c        0x0 /opt/rtems-4.8/sparc-rtems/leon2/lib/librtemscpu.a(imfs_config.o)
 .text          0x4004953c      0x1a4 /opt/rtems-4.8/sparc-rtems/leon2/lib/librtemscpu.a(imfs_creat.o)
                0x40049558                IMFS_create_node
 .text          0x400496e0       0x88 /opt/rtems-4.8/sparc-rtems/leon2/lib/librtemscpu.a(imfs_fchmod.o)
                0x400496e0                IMFS_fchmod
 .text          0x40049768       0x34 /opt/rtems-4.8/sparc-rtems/leon2/lib/librtemscpu.a(libcsupport_a-assocnamebylocal.o)
                0x40049768                rtems_assoc_name_by_local
 .text          0x4004979c       0x8c /opt/rtems-4.8/sparc-rtems/leon2/lib/librtemscpu.a(libcsupport_a-assocptrbylocal.o)
                0x4004979c                rtems_assoc_ptr_by_local
 .text          0x40049828       0x28 /opt/rtems-4.8/sparc-rtems/leon2/lib/librtemscpu.a(libcsupport_a-assocremotebylocal.o)
                0x40049828                rtems_assoc_remote_by_local
 .text          0x40049850      0x11c /opt/rtems-4.8/sparc-rtems/leon2/lib/librtemscpu.a(libcsupport_a-ftruncate.o)
                0x40049850                ftruncate
 .text          0x4004996c      0x944 /opt/rtems-4.8/sparc-rtems/leon2/lib/librtemscpu.a(libnetworking_a-igmp.o)
                0x40049b64                igmp_fasttimo
                0x40049c54                igmp_leavegroup
                0x40049d34                igmp_joingroup
                0x4004996c                igmp_slowtimo
                0x40049eb4                igmp_input
                0x40049dc0                igmp_init
 .text          0x4004a2b0       0xb8 /opt/rtems-4.8/sparc-rtems/leon2/lib/librtemscpu.a(libnetworking_a-raw_cb.o)
                0x4004a2b0                raw_disconnect
                0x4004a2f4                raw_attach
                0x4004a2b8                raw_detach
 .text          0x4004a368       0xd8 /opt/rtems-4.8/sparc-rtems/leon2/lib/librtemscpu.a(libposix_a-keyrundestructors.o)
                0x4004a368                _POSIX_Keys_Run_destructors
 .text          0x4004a440       0x40 /opt/rtems-4.8/sparc-rtems/leon2/lib/librtemscpu.a(libposix_a-psignalclearprocesssignals.o)
                0x4004a440                _POSIX_signals_Clear_process_signals
 .text          0x4004a480      0x1a4 /opt/rtems-4.8/sparc-rtems/leon2/lib/librtemscpu.a(librtems_a-taskmode.o)
                0x4004a480                rtems_task_mode
 .text          0x4004a624       0x58 /opt/rtems-4.8/sparc-rtems/leon2/lib/librtemscpu.a(libsapi_a-ioclose.o)
                0x4004a624                rtems_io_close
 .text          0x4004a67c       0x58 /opt/rtems-4.8/sparc-rtems/leon2/lib/librtemscpu.a(libsapi_a-iocontrol.o)
                0x4004a67c                rtems_io_control
 .text          0x4004a6d4       0x58 /opt/rtems-4.8/sparc-rtems/leon2/lib/librtemscpu.a(libsapi_a-ioopen.o)
                0x4004a6d4                rtems_io_open
 .text          0x4004a72c       0x58 /opt/rtems-4.8/sparc-rtems/leon2/lib/librtemscpu.a(libsapi_a-ioread.o)
                0x4004a72c                rtems_io_read
 .text          0x4004a784       0x58 /opt/rtems-4.8/sparc-rtems/leon2/lib/librtemscpu.a(libsapi_a-iowrite.o)
                0x4004a784                rtems_io_write
 .text          0x4004a7dc       0x58 /opt/rtems-4.8/sparc-rtems/leon2/lib/librtemscpu.a(libscore_a-threadevaluatemode.o)
                0x4004a7dc                _Thread_Evaluate_mode
 .text          0x4004a834      0x1c8 /opt/rtems-4.8/sparc-rtems/leon2/lib/librtemscpu.a(libscore_a-threadhandler.o)
                0x4004a834                _Thread_Handler
 .text          0x4004a9fc        0xc /opt/rtems-4.8/sparc-rtems/leon2/lib/librtemscpu.a(libcsupport_a-assocnamebad.o)
                0x4004a9fc                rtems_assoc_name_bad
 .text          0x4004aa08       0x18 /opt/rtems-4.8-1.1.3/bin/../lib/gcc/sparc-rtems/4.2.4/../../../../sparc-rtems/lib/soft/libc.a(lib_a-abort.o)
                0x4004aa08                abort
 .text          0x4004aa20       0x20 /opt/rtems-4.8-1.1.3/bin/../lib/gcc/sparc-rtems/4.2.4/../../../../sparc-rtems/lib/soft/libc.a(lib_a-atexit.o)
                0x4004aa20                atexit
 .text          0x4004aa40       0x10 /opt/rtems-4.8-1.1.3/bin/../lib/gcc/sparc-rtems/4.2.4/../../../../sparc-rtems/lib/soft/libc.a(lib_a-bcmp.o)
                0x4004aa40                bcmp
 .text          0x4004aa50        0x0 /opt/rtems-4.8-1.1.3/bin/../lib/gcc/sparc-rtems/4.2.4/../../../../sparc-rtems/lib/soft/libc.a(lib_a-ctype_.o)
 .text          0x4004aa50        0xc /opt/rtems-4.8-1.1.3/bin/../lib/gcc/sparc-rtems/4.2.4/../../../../sparc-rtems/lib/soft/libc.a(lib_a-errno.o)
                0x4004aa50                __errno
 .text          0x4004aa5c       0x3c /opt/rtems-4.8-1.1.3/bin/../lib/gcc/sparc-rtems/4.2.4/../../../../sparc-rtems/lib/soft/libc.a(lib_a-exit.o)
                0x4004aa5c                exit
 .text          0x4004aa98      0x12c /opt/rtems-4.8-1.1.3/bin/../lib/gcc/sparc-rtems/4.2.4/../../../../sparc-rtems/lib/soft/libc.a(lib_a-fclose.o)
                0x4004aa98                _fclose_r
                0x4004aba8                fclose
 .text          0x4004abc4      0x1cc /opt/rtems-4.8-1.1.3/bin/../lib/gcc/sparc-rtems/4.2.4/../../../../sparc-rtems/lib/soft/libc.a(lib_a-fflush.o)
                0x4004abc4                fflush
 .text          0x4004ad90       0x48 /opt/rtems-4.8-1.1.3/bin/../lib/gcc/sparc-rtems/4.2.4/../../../../sparc-rtems/lib/soft/libc.a(lib_a-fileno.o)
                0x4004ad90                fileno
 .text          0x4004add8      0x2b0 /opt/rtems-4.8-1.1.3/bin/../lib/gcc/sparc-rtems/4.2.4/../../../../sparc-rtems/lib/soft/libc.a(lib_a-findfp.o)
                0x4004ae50                __sinit
                0x4004af50                __sfmoreglue
                0x4004af38                _cleanup
                0x4004af20                _cleanup_r
                0x4004af00                __fp_lock_all
                0x4004ae30                __sfp_lock_acquire
                0x4004afa8                __sfp
                0x4004ae48                __sinit_lock_release
                0x4004aee0                __fp_unlock_all
                0x4004ae38                __sfp_lock_release
                0x4004ae40                __sinit_lock_acquire
 .text          0x4004b088       0x30 /opt/rtems-4.8-1.1.3/bin/../lib/gcc/sparc-rtems/4.2.4/../../../../sparc-rtems/lib/soft/libc.a(lib_a-fprintf.o)
                0x4004b088                fprintf
 .text          0x4004b0b8      0x108 /opt/rtems-4.8-1.1.3/bin/../lib/gcc/sparc-rtems/4.2.4/../../../../sparc-rtems/lib/soft/libc.a(lib_a-fwalk.o)
                0x4004b13c                _fwalk
                0x4004b0b8                _fwalk_reent
 .text          0x4004b1c0       0x14 /opt/rtems-4.8-1.1.3/bin/../lib/gcc/sparc-rtems/4.2.4/../../../../sparc-rtems/lib/soft/libc.a(lib_a-gmtime_r.o)
                0x4004b1c0                gmtime_r
 .text          0x4004b1d4        0x0 /opt/rtems-4.8-1.1.3/bin/../lib/gcc/sparc-rtems/4.2.4/../../../../sparc-rtems/lib/soft/libc.a(lib_a-impure.o)
 .text          0x4004b1d4       0x9c /opt/rtems-4.8-1.1.3/bin/../lib/gcc/sparc-rtems/4.2.4/../../../../sparc-rtems/lib/soft/libc.a(lib_a-memcmp.o)
                0x4004b1d4                memcmp
 .text          0x4004b270       0xb4 /opt/rtems-4.8-1.1.3/bin/../lib/gcc/sparc-rtems/4.2.4/../../../../sparc-rtems/lib/soft/libc.a(lib_a-memcpy.o)
                0x4004b270                memcpy
 .text          0x4004b324       0xac /opt/rtems-4.8-1.1.3/bin/../lib/gcc/sparc-rtems/4.2.4/../../../../sparc-rtems/lib/soft/libc.a(lib_a-memset.o)
                0x4004b324                memset
 .text          0x4004b3d0      0x770 /opt/rtems-4.8-1.1.3/bin/../lib/gcc/sparc-rtems/4.2.4/../../../../sparc-rtems/lib/soft/libc.a(lib_a-mktm_r.o)
                0x4004b3d0                __tzcalc_limits
                0x4004b620                _mktm_r
 .text          0x4004bb40       0x70 /opt/rtems-4.8-1.1.3/bin/../lib/gcc/sparc-rtems/4.2.4/../../../../sparc-rtems/lib/soft/libc.a(lib_a-printf.o)
                0x4004bb40                printf
                0x4004bb7c                _printf_r
 .text          0x4004bbb0       0x34 /opt/rtems-4.8-1.1.3/bin/../lib/gcc/sparc-rtems/4.2.4/../../../../sparc-rtems/lib/soft/libc.a(lib_a-putchar.o)
                0x4004bbb0                putchar
                0x4004bbd0                _putchar_r
 .text          0x4004bbe4       0x84 /opt/rtems-4.8-1.1.3/bin/../lib/gcc/sparc-rtems/4.2.4/../../../../sparc-rtems/lib/soft/libc.a(lib_a-puts.o)
                0x4004bbe4                _puts_r
                0x4004bc4c                puts
 .text          0x4004bc68       0x38 /opt/rtems-4.8-1.1.3/bin/../lib/gcc/sparc-rtems/4.2.4/../../../../sparc-rtems/lib/soft/libc.a(lib_a-raise.o)
                0x4004bc68                _raise_r
                0x4004bc84                raise
 .text          0x4004bca0      0x1e0 /opt/rtems-4.8-1.1.3/bin/../lib/gcc/sparc-rtems/4.2.4/../../../../sparc-rtems/lib/soft/libc.a(lib_a-reent.o)
                0x4004bd2c                cleanup_glue
                0x4004bd54                _reclaim_reent
                0x4004bca0                _wrapup_reent
 .text          0x4004be80      0x120 /opt/rtems-4.8-1.1.3/bin/../lib/gcc/sparc-rtems/4.2.4/../../../../sparc-rtems/lib/soft/libc.a(lib_a-snprintf.o)
                0x4004be80                snprintf
                0x4004bf18                _snprintf_r
 .text          0x4004bfa0       0xc8 /opt/rtems-4.8-1.1.3/bin/../lib/gcc/sparc-rtems/4.2.4/../../../../sparc-rtems/lib/soft/libc.a(lib_a-sprintf.o)
                0x4004c008                _sprintf_r
                0x4004bfa0                sprintf
 .text          0x4004c068      0x120 /opt/rtems-4.8-1.1.3/bin/../lib/gcc/sparc-rtems/4.2.4/../../../../sparc-rtems/lib/soft/libc.a(lib_a-stdio.o)
                0x4004c084                __sseek
                0x4004c138                __sread
                0x4004c068                __sclose
                0x4004c0dc                __swrite
 .text          0x4004c188      0x100 /opt/rtems-4.8-1.1.3/bin/../lib/gcc/sparc-rtems/4.2.4/../../../../sparc-rtems/lib/soft/libc.a(lib_a-strchr.o)
                0x4004c188                strchr
 .text          0x4004c288       0xc0 /opt/rtems-4.8-1.1.3/bin/../lib/gcc/sparc-rtems/4.2.4/../../../../sparc-rtems/lib/soft/libc.a(lib_a-strcmp.o)
                0x4004c288                strcmp
 .text          0x4004c348       0x80 /opt/rtems-4.8-1.1.3/bin/../lib/gcc/sparc-rtems/4.2.4/../../../../sparc-rtems/lib/soft/libc.a(lib_a-strcpy.o)
                0x4004c348                strcpy
 .text          0x4004c3c8       0x1c /opt/rtems-4.8-1.1.3/bin/../lib/gcc/sparc-rtems/4.2.4/../../../../sparc-rtems/lib/soft/libc.a(lib_a-strdup.o)
                0x4004c3c8                strdup
 .text          0x4004c3e4       0x38 /opt/rtems-4.8-1.1.3/bin/../lib/gcc/sparc-rtems/4.2.4/../../../../sparc-rtems/lib/soft/libc.a(lib_a-strdup_r.o)
                0x4004c3e4                _strdup_r
 .text          0x4004c41c      0x664 /opt/rtems-4.8-1.1.3/bin/../lib/gcc/sparc-rtems/4.2.4/../../../../sparc-rtems/lib/soft/libc.a(lib_a-strerror.o)
                0x4004c638                strerror
 .text          0x4004ca80       0x7c /opt/rtems-4.8-1.1.3/bin/../lib/gcc/sparc-rtems/4.2.4/../../../../sparc-rtems/lib/soft/libc.a(lib_a-strlcpy.o)
                0x4004ca80                strlcpy
 .text          0x4004cafc       0x80 /opt/rtems-4.8-1.1.3/bin/../lib/gcc/sparc-rtems/4.2.4/../../../../sparc-rtems/lib/soft/libc.a(lib_a-strlen.o)
                0x4004cafc                strlen
 .text          0x4004cb7c      0x128 /opt/rtems-4.8-1.1.3/bin/../lib/gcc/sparc-rtems/4.2.4/../../../../sparc-rtems/lib/soft/libc.a(lib_a-strncmp.o)
                0x4004cb7c                strncmp
 .text          0x4004cca4      0x108 /opt/rtems-4.8-1.1.3/bin/../lib/gcc/sparc-rtems/4.2.4/../../../../sparc-rtems/lib/soft/libc.a(lib_a-strncpy.o)
                0x4004cca4                strncpy
 .text          0x4004cdac       0x10 /opt/rtems-4.8-1.1.3/bin/../lib/gcc/sparc-rtems/4.2.4/../../../../sparc-rtems/lib/soft/libc.a(lib_a-tzlock.o)
                0x4004cdb4                __tz_unlock
                0x4004cdac                __tz_lock
 .text          0x4004cdbc        0x0 /opt/rtems-4.8-1.1.3/bin/../lib/gcc/sparc-rtems/4.2.4/../../../../sparc-rtems/lib/soft/libc.a(lib_a-tzvars.o)
 .text          0x4004cdbc        0x8 /opt/rtems-4.8-1.1.3/bin/../lib/gcc/sparc-rtems/4.2.4/../../../../sparc-rtems/lib/soft/libc.a(lib_a-u_strerr.o)
                0x4004cdbc                _user_strerror
 .text          0x4004cdc4     0x218c /opt/rtems-4.8-1.1.3/bin/../lib/gcc/sparc-rtems/4.2.4/../../../../sparc-rtems/lib/soft/libc.a(lib_a-vfprintf.o)
                0x4004cf70                _vfprintf_r
                0x4004ef28                vfprintf
 .text          0x4004ef50       0x40 /opt/rtems-4.8-1.1.3/bin/../lib/gcc/sparc-rtems/4.2.4/../../../../sparc-rtems/lib/soft/libc.a(lib_a-vprintf.o)
                0x4004ef6c                vprintf
                0x4004ef50                _vprintf_r
 .text          0x4004ef90       0x80 /opt/rtems-4.8-1.1.3/bin/../lib/gcc/sparc-rtems/4.2.4/../../../../sparc-rtems/lib/soft/libc.a(lib_a-wcrtomb.o)
                0x4004ef90                _wcrtomb_r
                0x4004efe8                wcrtomb
 .text          0x4004f010      0x168 /opt/rtems-4.8-1.1.3/bin/../lib/gcc/sparc-rtems/4.2.4/../../../../sparc-rtems/lib/soft/libc.a(lib_a-wcsrtombs.o)
                0x4004f010                _wcsrtombs_r
                0x4004f148                wcsrtombs
 .text          0x4004f178      0x404 /opt/rtems-4.8-1.1.3/bin/../lib/gcc/sparc-rtems/4.2.4/../../../../sparc-rtems/lib/soft/libc.a(lib_a-wctomb_r.o)
                0x4004f178                _wctomb_r
 .text          0x4004f57c      0x138 /opt/rtems-4.8-1.1.3/bin/../lib/gcc/sparc-rtems/4.2.4/../../../../sparc-rtems/lib/soft/libc.a(lib_a-wsetup.o)
                0x4004f57c                __swsetup
 .text          0x4004f6b4       0xe8 /opt/rtems-4.8-1.1.3/bin/../lib/gcc/sparc-rtems/4.2.4/../../../../sparc-rtems/lib/soft/libc.a(lib_a-__atexit.o)
                0x4004f6b4                __register_exitproc
 .text          0x4004f79c      0x140 /opt/rtems-4.8-1.1.3/bin/../lib/gcc/sparc-rtems/4.2.4/../../../../sparc-rtems/lib/soft/libc.a(lib_a-__call_atexit.o)
                0x4004f79c                __call_exitprocs
 .text          0x4004f8dc     0x16d4 /opt/rtems-4.8-1.1.3/bin/../lib/gcc/sparc-rtems/4.2.4/../../../../sparc-rtems/lib/soft/libc.a(lib_a-dtoa.o)
                0x4004fb4c                _dtoa_r
 .text          0x40050fb0      0x460 /opt/rtems-4.8-1.1.3/bin/../lib/gcc/sparc-rtems/4.2.4/../../../../sparc-rtems/lib/soft/libc.a(lib_a-fvwrite.o)
                0x40050fb0                __sfvwrite_r
 .text          0x40051410        0xc /opt/rtems-4.8-1.1.3/bin/../lib/gcc/sparc-rtems/4.2.4/../../../../sparc-rtems/lib/soft/libc.a(lib_a-gettzinfo.o)
                0x40051410                __gettzinfo
 .text          0x4005141c       0xb8 /opt/rtems-4.8-1.1.3/bin/../lib/gcc/sparc-rtems/4.2.4/../../../../sparc-rtems/lib/soft/libc.a(lib_a-locale.o)
                0x4005144c                _setlocale_r
                0x4005141c                __locale_charset
                0x40051428                _localeconv_r
                0x400514b4                setlocale
                0x40051434                localeconv
 .text          0x400514d4      0x174 /opt/rtems-4.8-1.1.3/bin/../lib/gcc/sparc-rtems/4.2.4/../../../../sparc-rtems/lib/soft/libc.a(lib_a-makebuf.o)
                0x400514d4                __smakebuf
 .text          0x40051648      0x110 /opt/rtems-4.8-1.1.3/bin/../lib/gcc/sparc-rtems/4.2.4/../../../../sparc-rtems/lib/soft/libc.a(lib_a-memchr.o)
                0x40051648                memchr
 .text          0x40051758      0x10c /opt/rtems-4.8-1.1.3/bin/../lib/gcc/sparc-rtems/4.2.4/../../../../sparc-rtems/lib/soft/libc.a(lib_a-memmove.o)
                0x40051758                memmove
 .text          0x40051864      0xec4 /opt/rtems-4.8-1.1.3/bin/../lib/gcc/sparc-rtems/4.2.4/../../../../sparc-rtems/lib/soft/libc.a(lib_a-mprec.o)
                0x40051c68                _mprec_log10
                0x40051d34                __any_on
                0x40051de4                _Balloc
                0x40051bd4                __ratio
                0x40052454                __i2b
                0x40051ab8                __b2d
                0x40052660                __s2b
                0x400519e0                __mcmp
                0x40051890                __hi0bits
                0x40052558                __pow5mult
                0x40052110                __lshift
                0x40052238                __multiply
                0x40051e8c                __d2b
                0x40051cc4                __copybits
                0x40051a4c                __ulp
                0x40051fb0                __mdiff
                0x40051914                __lo0bits
                0x40052478                __multadd
                0x40051864                _Bfree
 .text          0x40052728      0x188 /opt/rtems-4.8-1.1.3/bin/../lib/gcc/sparc-rtems/4.2.4/../../../../sparc-rtems/lib/soft/libc.a(lib_a-putc.o)
                0x400527f4                _putc_r
                0x40052728                putc
 .text          0x400528b0       0x38 /opt/rtems-4.8-1.1.3/bin/../lib/gcc/sparc-rtems/4.2.4/../../../../sparc-rtems/lib/soft/libc.a(lib_a-s_isinfd.o)
                0x400528b0                __isinfd
 .text          0x400528e8       0x28 /opt/rtems-4.8-1.1.3/bin/../lib/gcc/sparc-rtems/4.2.4/../../../../sparc-rtems/lib/soft/libc.a(lib_a-s_isnand.o)
                0x400528e8                __isnand
 .text          0x40052910      0x144 /opt/rtems-4.8-1.1.3/bin/../lib/gcc/sparc-rtems/4.2.4/../../../../sparc-rtems/lib/soft/libc.a(lib_a-wbuf.o)
                0x40052910                __swbuf_r
                0x40052a34                __swbuf
 .text          0x40052a54      0x37c /opt/rtems-4.8-1.1.3/bin/../lib/gcc/sparc-rtems/4.2.4/soft/libgcc.a(_udivdi3.o)
                0x40052a54                __udivdi3
 .text          0x40052dd0      0x388 /opt/rtems-4.8-1.1.3/bin/../lib/gcc/sparc-rtems/4.2.4/soft/libgcc.a(_umoddi3.o)
                0x40052dd0                __umoddi3
 .text          0x40053158      0x41c /opt/rtems-4.8-1.1.3/bin/../lib/gcc/sparc-rtems/4.2.4/soft/libgcc.a(_addsub_df.o)
                0x40053524                __adddf3
                0x400534c8                __subdf3
 .text          0x40053574      0x23c /opt/rtems-4.8-1.1.3/bin/../lib/gcc/sparc-rtems/4.2.4/soft/libgcc.a(_div_df.o)
                0x40053574                __divdf3
 .text          0x400537b0       0x64 /opt/rtems-4.8-1.1.3/bin/../lib/gcc/sparc-rtems/4.2.4/soft/libgcc.a(_eq_df.o)
                0x400537b0                __eqdf2
 .text          0x40053814       0x64 /opt/rtems-4.8-1.1.3/bin/../lib/gcc/sparc-rtems/4.2.4/soft/libgcc.a(_ne_df.o)
                0x40053814                __nedf2
 .text          0x40053878       0x64 /opt/rtems-4.8-1.1.3/bin/../lib/gcc/sparc-rtems/4.2.4/soft/libgcc.a(_gt_df.o)
                0x40053878                __gtdf2
 .text          0x400538dc       0x64 /opt/rtems-4.8-1.1.3/bin/../lib/gcc/sparc-rtems/4.2.4/soft/libgcc.a(_ge_df.o)
                0x400538dc                __gedf2
 .text          0x40053940       0x64 /opt/rtems-4.8-1.1.3/bin/../lib/gcc/sparc-rtems/4.2.4/soft/libgcc.a(_lt_df.o)
                0x40053940                __ltdf2
 .text          0x400539a4       0xc8 /opt/rtems-4.8-1.1.3/bin/../lib/gcc/sparc-rtems/4.2.4/soft/libgcc.a(_si_to_df.o)
                0x400539a4                __floatsidf
 .text          0x40053a6c       0xc4 /opt/rtems-4.8-1.1.3/bin/../lib/gcc/sparc-rtems/4.2.4/soft/libgcc.a(_df_to_si.o)
                0x40053a6c                __fixdfsi
 .text          0x40053b30      0x12c /opt/rtems-4.8-1.1.3/bin/../lib/gcc/sparc-rtems/4.2.4/soft/libgcc.a(_fpcmp_parts_df.o)
                0x40053b30                __fpcmp_parts_d
 .text          0x40053c5c       0xe4 /opt/rtems-4.8/sparc-rtems/leon2/lib/librtemsbsp.a(cache.rel)
                0x40053cb8                rtems_cache_get_data_line_size
                0x40053c80                _CPU_cache_disable_instruction
                0x40053c70                _CPU_cache_unfreeze_instruction
                0x40053ca0                rtems_cache_invalidate_multiple_data_lines
                0x40053d00                rtems_cache_enable_instruction
                0x40053cd8                rtems_cache_disable_data
                0x40053c5c                _CPU_cache_invalidate_entire_instruction
                0x40053c98                rtems_cache_flush_multiple_data_lines
                0x40053cc0                rtems_cache_freeze_data
                0x40053cd0                rtems_cache_enable_data
                0x40053cb0                rtems_cache_invalidate_entire_data
                0x40053cc8                rtems_cache_unfreeze_data
                0x40053d20                rtems_cache_freeze_instruction
                0x40053c78                _CPU_cache_enable_instruction
                0x40053ce8                rtems_cache_get_instruction_line_size
                0x40053c68                _CPU_cache_freeze_instruction
                0x40053c88                rtems_cache_aligned_malloc
                0x40053ca8                rtems_cache_flush_entire_data
                0x40053cf0                rtems_cache_disable_instruction
                0x40053ce0                rtems_cache_invalidate_multiple_instruction_lines
                0x40053d10                rtems_cache_unfreeze_instruction
                0x40053d30                rtems_cache_invalidate_entire_instruction
 .text          0x40053d40        0x0 /opt/rtems-4.8/sparc-rtems/leon2/lib/librtemsbsp.a(libsupport_a-version.o)
 .text          0x40053d40      0x134 /opt/rtems-4.8/sparc-rtems/leon2/lib/librtemscpu.a(libcsupport_a-fstat.o)
                0x40053e5c                _fstat_r
                0x40053d40                fstat
 .text          0x40053e74       0x18 /opt/rtems-4.8/sparc-rtems/leon2/lib/librtemscpu.a(libcsupport_a-getpid.o)
                0x40053e74                getpid
                0x40053e7c                _getpid_r
 .text          0x40053e8c       0x40 /opt/rtems-4.8/sparc-rtems/leon2/lib/librtemscpu.a(libcsupport_a-isatty.o)
                0x40053e8c                isatty
 .text          0x40053ecc      0x124 /opt/rtems-4.8/sparc-rtems/leon2/lib/librtemscpu.a(libcsupport_a-lseek.o)
                0x40053fd4                _lseek_r
                0x40053ecc                lseek
 .text          0x40053ff0      0x108 /opt/rtems-4.8/sparc-rtems/leon2/lib/librtemscpu.a(libcsupport_a-read.o)
                0x400540dc                _read_r
                0x40053ff0                read
 .text          0x400540f8       0x1c /opt/rtems-4.8/sparc-rtems/leon2/lib/librtemscpu.a(libcsupport_a-write_r.o)
                0x400540f8                _write_r
 .text          0x40054114       0x2c /opt/rtems-4.8/sparc-rtems/leon2/lib/librtemscpu.a(libposix_a-kill.o)
                0x40054128                _kill_r
                0x40054114                kill
 .text          0x40054140      0x39c /opt/rtems-4.8/sparc-rtems/leon2/lib/librtemscpu.a(libposix_a-killinfo.o)
                0x40054140                killinfo
 .text          0x400544dc       0x40 /opt/rtems-4.8/sparc-rtems/leon2/lib/librtemscpu.a(libposix_a-psignalsetprocesssignals.o)
                0x400544dc                _POSIX_signals_Set_process_signals
 .text          0x4005451c      0x12c /opt/rtems-4.8/sparc-rtems/leon2/lib/librtemscpu.a(libposix_a-psignalunblockthread.o)
                0x4005451c                _POSIX_signals_Unblock_thread
 .text          0x40054648      0x138 /opt/rtems-4.8/sparc-rtems/leon2/lib/librtemscpu.a(libposix_a-pthreadkill.o)
                0x40054648                pthread_kill
 .text          0x40054780       0x10 /opt/rtems-4.8/sparc-rtems/leon2/lib/librtemscpu.a(libposix_a-pthreadself.o)
                0x40054780                pthread_self
 .text          0x40054790       0x78 /opt/rtems-4.8/sparc-rtems/leon2/lib/librtemscpu.a(libposix_a-types.o)
                0x40054790                POSIX_NOT_IMPLEMENTED
                0x400547e0                POSIX_MP_NOT_IMPLEMENTED
                0x400547b8                POSIX_BOTTOM_REACHED
 .text          0x40054808       0xec /opt/rtems-4.8/sparc-rtems/leon2/lib/librtemscpu.a(libcsupport_a-write.o)
                0x40054808                write
 .text          0x400548f4       0x48 /opt/rtems-4.8-1.1.3/bin/../lib/gcc/sparc-rtems/4.2.4/crtend.o
 .text          0x4005493c        0x0 /opt/rtems-4.8-1.1.3/bin/../lib/gcc/sparc-rtems/4.2.4/crtn.o
                0x40054940                . = ALIGN (0x10)
 *fill*         0x4005493c        0x4 00
                0x40054940                . = ALIGN (0x10)
                0x40054940                __start_set_sysctl_set = .
 *(set_sysctl_*)
 set_sysctl_set
                0x40054940        0x8 /opt/rtems-4.8/sparc-rtems/leon2/lib/librtemscpu.a(libnetworking_a-if.o)
 set_sysctl_set
                0x40054948        0x4 /opt/rtems-4.8/sparc-rtems/leon2/lib/librtemscpu.a(libnetworking_a-if_ethersubr.o)
 set_sysctl_set
                0x4005494c       0x1c /opt/rtems-4.8/sparc-rtems/leon2/lib/librtemscpu.a(libnetworking_a-ip_input.o)
 set_sysctl_set
                0x40054968       0x18 /opt/rtems-4.8/sparc-rtems/leon2/lib/librtemscpu.a(libnetworking_a-kern_mib.o)
 set_sysctl_set
                0x40054980       0x18 /opt/rtems-4.8/sparc-rtems/leon2/lib/librtemscpu.a(libnetworking_a-kern_sysctl.o)
 set_sysctl_set
                0x40054998        0x4 /opt/rtems-4.8/sparc-rtems/leon2/lib/librtemscpu.a(libnetworking_a-rtsock.o)
 set_sysctl_set
                0x4005499c        0x4 /opt/rtems-4.8/sparc-rtems/leon2/lib/librtemscpu.a(libnetworking_a-uipc_socket.o)
 set_sysctl_set
                0x400549a0        0x8 /opt/rtems-4.8/sparc-rtems/leon2/lib/librtemscpu.a(libnetworking_a-uipc_socket2.o)
 set_sysctl_set
                0x400549a8       0x1c /opt/rtems-4.8/sparc-rtems/leon2/lib/librtemscpu.a(libnetworking_a-if_ether.o)
 set_sysctl_set
                0x400549c4        0x4 /opt/rtems-4.8/sparc-rtems/leon2/lib/librtemscpu.a(libnetworking_a-in.o)
 set_sysctl_set
                0x400549c8       0x1c /opt/rtems-4.8/sparc-rtems/leon2/lib/librtemscpu.a(libnetworking_a-in_pcb.o)
 set_sysctl_set
                0x400549e4       0x18 /opt/rtems-4.8/sparc-rtems/leon2/lib/librtemscpu.a(libnetworking_a-in_proto.o)
 set_sysctl_set
                0x400549fc        0xc /opt/rtems-4.8/sparc-rtems/leon2/lib/librtemscpu.a(libnetworking_a-in_rmx.o)
 set_sysctl_set
                0x40054a08       0x10 /opt/rtems-4.8/sparc-rtems/leon2/lib/librtemscpu.a(libnetworking_a-ip_icmp.o)
 set_sysctl_set
                0x40054a18        0x8 /opt/rtems-4.8/sparc-rtems/leon2/lib/librtemscpu.a(libnetworking_a-tcp_input.o)
 set_sysctl_set
                0x40054a20        0x8 /opt/rtems-4.8/sparc-rtems/leon2/lib/librtemscpu.a(libnetworking_a-tcp_subr.o)
 set_sysctl_set
                0x40054a28       0x10 /opt/rtems-4.8/sparc-rtems/leon2/lib/librtemscpu.a(libnetworking_a-tcp_timer.o)
 set_sysctl_set
                0x40054a38        0x8 /opt/rtems-4.8/sparc-rtems/leon2/lib/librtemscpu.a(libnetworking_a-tcp_usrreq.o)
 set_sysctl_set
                0x40054a40       0x18 /opt/rtems-4.8/sparc-rtems/leon2/lib/librtemscpu.a(libnetworking_a-udp_usrreq.o)
 set_sysctl_set
                0x40054a58        0x4 /opt/rtems-4.8/sparc-rtems/leon2/lib/librtemscpu.a(libnetworking_a-igmp.o)
                0x40054a5c                __stop_set_sysctl_set = <code 342> (.)
 *(set_domain_*)
 set_domain_set
                0x40054a5c        0x4 /opt/rtems-4.8/sparc-rtems/leon2/lib/librtemscpu.a(libnetworking_a-rtsock.o)
 set_domain_set
                0x40054a60        0x4 /opt/rtems-4.8/sparc-rtems/leon2/lib/librtemscpu.a(libnetworking_a-in_proto.o)
 *(set_pseudo_*)
 *(.eh_frame)
 .eh_frame      0x40054a64        0x0 /opt/rtems-4.8-1.1.3/bin/../lib/gcc/sparc-rtems/4.2.4/crtbegin.o
 .eh_frame      0x40054a64       0x28 /opt/rtems-4.8-1.1.3/bin/../lib/gcc/sparc-rtems/4.2.4/soft/libgcc.a(_udivdi3.o)
 .eh_frame      0x40054a8c       0x18 /opt/rtems-4.8-1.1.3/bin/../lib/gcc/sparc-rtems/4.2.4/soft/libgcc.a(_umoddi3.o)
                                 0x28 (size before relaxing)
 .eh_frame      0x40054aa4        0x4 /opt/rtems-4.8-1.1.3/bin/../lib/gcc/sparc-rtems/4.2.4/crtend.o
                0x40054ab0                . = ALIGN (0x10)
 *fill*         0x40054aa8        0x8 00
 *(.gnu.linkonce.t*)
                0x40054ab0                __CTOR_LIST__ = .
                0x40054ab0        0x4 LONG 0x2 (((__CTOR_END__ - __CTOR_LIST__) / 0x4) - 0x2)
 *(.ctors)
 .ctors         0x40054ab4        0x4 /opt/rtems-4.8-1.1.3/bin/../lib/gcc/sparc-rtems/4.2.4/crtbegin.o
 .ctors         0x40054ab8        0x4 /opt/rtems-4.8-1.1.3/bin/../lib/gcc/sparc-rtems/4.2.4/crtend.o
                0x40054abc        0x4 LONG 0x0
                0x40054ac0                __CTOR_END__ = .
                0x40054ac0                __DTOR_LIST__ = .
                0x40054ac0        0x4 LONG 0x2 (((__DTOR_END__ - __DTOR_LIST__) / 0x4) - 0x2)
 *(.dtors)
 .dtors         0x40054ac4        0x4 /opt/rtems-4.8-1.1.3/bin/../lib/gcc/sparc-rtems/4.2.4/crtbegin.o
 .dtors         0x40054ac8        0x4 /opt/rtems-4.8-1.1.3/bin/../lib/gcc/sparc-rtems/4.2.4/crtend.o
                0x40054acc        0x4 LONG 0x0
                0x40054ad0                __DTOR_END__ = .
                0x40054ad0                _rodata_start = .
 *(.rodata*)
 .rodata.str1.8
                0x40054ad0       0xb3 /home/aitor/workspace/rasta-sw/osal-repo/trunk/samples/misc/soclient.o
                                 0xb8 (size before relaxing)
 *fill*         0x40054b83        0x5 00
 .rodata.str1.8
                0x40054b88      0x2bb libosal_rtems_rastaleon2.a(osapi.o)
                                0x2c0 (size before relaxing)
 .rodata        0x40054e43        0x0 libosal_rtems_rastaleon2.a(osapi.o)
 *fill*         0x40054e43        0x5 00
 .rodata.str1.8
                0x40054e48       0x26 libosal_rtems_rastaleon2.a(osmut.o)
                                 0x28 (size before relaxing)
 .rodata.str1.8
                0x00000000       0x28 libosal_rtems_rastaleon2.a(ostask.o)
 *fill*         0x40054e6e        0x2 00
 .rodata.str1.8
                0x40054e70      0x2be libosal_rtems_rastaleon2.a(rtems-config.o)
                                0x2c8 (size before relaxing)
 *fill*         0x4005512e        0x2 00
 .rodata.cst8   0x40055130        0x8 libosal_rtems_rastaleon2.a(rtems-config.o)
 .rodata.str1.8
                0x40055138       0x31 /opt/libbackport/lib/libbackport_leon2-4.10-4.8.a(ambapp_bus_leon2.o)
                                 0x40 (size before relaxing)
 *fill*         0x40055169        0x7 00
 .rodata.str1.8
                0x40055170       0x50 /opt/libbackport/lib/libbackport_leon2-4.10-4.8.a(ambapp_bus.o)
 .rodata.str1.8
                0x400551c0      0xcd6 /opt/libbackport/lib/libbackport_leon2-4.10-4.8.a(ambapp_names.o)
                                0xcd8 (size before relaxing)
 *fill*         0x40055e96        0x2 00
 .rodata.str1.8
                0x40055e98       0xc5 /opt/libbackport/lib/libbackport_leon2-4.10-4.8.a(at697_pci.o)
                                 0xc8 (size before relaxing)
 *fill*         0x40055f5d        0x3 00
 .rodata        0x40055f60       0x1c /opt/libbackport/lib/libbackport_leon2-4.10-4.8.a(at697_pci.o)
                0x40055f60                at697pci_access_functions
 *fill*         0x40055f7c        0x4 00
 .rodata.str1.8
                0x40055f80      0x57d /opt/libbackport/lib/libbackport_leon2-4.10-4.8.a(b1553brm.o)
                                0x580 (size before relaxing)
 .rodata        0x400564fd        0x0 /opt/libbackport/lib/libbackport_leon2-4.10-4.8.a(b1553brm.o)
 *fill*         0x400564fd        0x3 00
 .rodata.str1.8
                0x40056500        0x9 /opt/libbackport/lib/libbackport_leon2-4.10-4.8.a(drvmgr.o)
                                 0x10 (size before relaxing)
 *fill*         0x40056509        0x7 00
 .rodata.str1.8
                0x40056510      0x2d4 /opt/libbackport/lib/libbackport_leon2-4.10-4.8.a(drvmgr_print.o)
                                0x2e8 (size before relaxing)
 *fill*         0x400567e4        0x4 00
 .rodata.str1.8
                0x400567e8      0x193 /opt/libbackport/lib/libbackport_leon2-4.10-4.8.a(gr_701.o)
                                0x1b0 (size before relaxing)
 *fill*         0x4005697b        0x5 00
 .rodata.str1.8
                0x40056980      0x172 /opt/libbackport/lib/libbackport_leon2-4.10-4.8.a(grcan.o)
                                0x178 (size before relaxing)
 .rodata        0x40056af2        0x0 /opt/libbackport/lib/libbackport_leon2-4.10-4.8.a(grcan.o)
 *fill*         0x40056af2        0x6 00
 .rodata.str1.8
                0x40056af8       0x82 /opt/libbackport/lib/libbackport_leon2-4.10-4.8.a(grpci.o)
                                 0xa0 (size before relaxing)
 *fill*         0x40056b7a        0x2 00
 .rodata        0x40056b7c       0x1c /opt/libbackport/lib/libbackport_leon2-4.10-4.8.a(grpci.o)
                0x40056b7c                grpci_access_functions
 .rodata.str1.8
                0x40056b98      0x124 /opt/libbackport/lib/libbackport_leon2-4.10-4.8.a(gr_rasta_adcdac.o)
                                0x1f8 (size before relaxing)
 *fill*         0x40056cbc        0x4 00
 .rodata.str1.8
                0x40056cc0       0xa0 /opt/libbackport/lib/libbackport_leon2-4.10-4.8.a(gr_rasta_io.o)
                                0x1e0 (size before relaxing)
 .rodata.str1.8
                0x40056d60       0xa2 /opt/libbackport/lib/libbackport_leon2-4.10-4.8.a(gr_rasta_tmtc.o)
                                0x1d0 (size before relaxing)
 *fill*         0x40056e02        0x6 00
 .rodata.str1.8
                0x40056e08      0x20a /opt/libbackport/lib/libbackport_leon2-4.10-4.8.a(grspw.o)
                                0x258 (size before relaxing)
 .rodata        0x40057012        0x0 /opt/libbackport/lib/libbackport_leon2-4.10-4.8.a(grspw.o)
 *fill*         0x40057012        0x6 00
 .rodata.str1.8
                0x40057018      0x121 /opt/libbackport/lib/libbackport_leon2-4.10-4.8.a(grtc.o)
                                0x128 (size before relaxing)
 .rodata        0x40057139        0x0 /opt/libbackport/lib/libbackport_leon2-4.10-4.8.a(grtc.o)
 .rodata        0x40057139        0x0 /opt/libbackport/lib/libbackport_leon2-4.10-4.8.a(grtm.o)
 *fill*         0x40057139        0x7 00
 .rodata.str1.8
                0x40057140      0x109 /opt/libbackport/lib/libbackport_leon2-4.10-4.8.a(grtm.o)
                                0x110 (size before relaxing)
 *fill*         0x40057249        0x7 00
 .rodata.str1.8
                0x40057250       0x8f /opt/libbackport/lib/libbackport_leon2-4.10-4.8.a(leon2_amba_bus.o)
                                 0xa8 (size before relaxing)
 *fill*         0x400572df        0x1 00
 .rodata.str1.8
                0x400572e0       0x17 /opt/libbackport/lib/libbackport_leon2-4.10-4.8.a(pci_bus.o)
                                 0x18 (size before relaxing)
 *fill*         0x400572f7        0x1 00
 .rodata.str1.8
                0x400572f8       0x31 /opt/libbackport/lib/libbackport_leon2-4.10-4.8.a(pcif.o)
                                 0x90 (size before relaxing)
 *fill*         0x40057329        0x3 00
 .rodata        0x4005732c       0x1c /opt/libbackport/lib/libbackport_leon2-4.10-4.8.a(pcif.o)
                0x4005732c                pcif_access_functions
 .rodata.str1.8
                0x40057348      0x192 /opt/libbackport/lib/libbackport_leon2-4.10-4.8.a(pci.o)
                                0x1a0 (size before relaxing)
 *fill*         0x400574da        0x6 00
 .rodata.str1.8
                0x400574e0       0x58 /opt/libbackport/lib/libbackport_leon2-4.10-4.8.a(ambapp_show.o)
 .rodata        0x40057538        0x4 /opt/libbackport/lib/libbackport_leon2-4.10-4.8.a(ambapp_show.o)
 *fill*         0x4005753c        0x4 00
 .rodata        0x40057540       0x18 /opt/rtems-4.8-1.1.3/bin/../lib/gcc/sparc-rtems/4.2.4/soft/libgcc.a(_thenan_df.o)
                0x40057540                __thenan_df
 .rodata        0x40057558      0x100 /opt/rtems-4.8-1.1.3/bin/../lib/gcc/sparc-rtems/4.2.4/soft/libgcc.a(_clz.o)
                0x40057558                __clz_tab
 .rodata.str1.8
                0x40057658       0xd1 /opt/rtems-4.8/sparc-rtems/leon2/lib/librtemsbsp.a(amba.rel)
                                 0xd8 (size before relaxing)
 *fill*         0x40057729        0x3 00
 .rodata        0x4005772c       0x20 /opt/rtems-4.8/sparc-rtems/leon2/lib/librtemsbsp.a(console.rel)
 *fill*         0x4005774c        0x4 00
 .rodata.str1.8
                0x40057750       0xce /opt/rtems-4.8/sparc-rtems/leon2/lib/librtemsbsp.a(console.rel)
                                 0xd8 (size before relaxing)
 *fill*         0x4005781e        0x2 00
 .rodata.str1.8
                0x40057820       0x1a /opt/rtems-4.8/sparc-rtems/leon2/lib/librtemsbsp.a(leon_smc91111.rel)
                                 0x20 (size before relaxing)
 *fill*         0x4005783a        0x6 00
 .rodata.str1.8
                0x40057840      0x72c /opt/rtems-4.8/sparc-rtems/leon2/lib/librtemsbsp.a(libnetchip_a-smc91111.o)
                                0x738 (size before relaxing)
 .rodata        0x40057f6c       0x3c /opt/rtems-4.8/sparc-rtems/leon2/lib/librtemsbsp.a(libnetchip_a-smc91111.o)
 .rodata        0x40057fa8        0x0 /opt/rtems-4.8/sparc-rtems/leon2/lib/librtemsbsp.a(startup.rel)
 .rodata.str1.8
                0x40057fa8      0x269 /opt/rtems-4.8/sparc-rtems/leon2/lib/librtemsbsp.a(startup.rel)
                                0x270 (size before relaxing)
 *fill*         0x40058211        0x7 00
 .rodata.str1.8
                0x40058218      0x133 /opt/rtems-4.8/sparc-rtems/leon2/lib/librtemscpu.a(check.o)
                                0x138 (size before relaxing)
 *fill*         0x4005834b        0x5 00
 .rodata        0x40058350       0x40 /opt/rtems-4.8/sparc-rtems/leon2/lib/librtemscpu.a(libc_a-inet_pton.o)
 .rodata.str1.8
                0x40058390       0x2b /opt/rtems-4.8/sparc-rtems/leon2/lib/librtemscpu.a(libcsupport_a-__assert.o)
                                 0x30 (size before relaxing)
 *fill*         0x400583bb        0x5 00
 .rodata.str1.8
                0x400583c0        0x3 /opt/rtems-4.8/sparc-rtems/leon2/lib/librtemscpu.a(libcsupport_a-eval.o)
                                  0x8 (size before relaxing)
 *fill*         0x400583c3        0x5 00
 .rodata.str1.8
                0x400583c8       0x3f /opt/rtems-4.8/sparc-rtems/leon2/lib/librtemscpu.a(libcsupport_a-libio.o)
                                 0x40 (size before relaxing)
 *fill*         0x40058407        0x1 00
 .rodata.str1.8
                0x40058408       0x38 /opt/rtems-4.8/sparc-rtems/leon2/lib/librtemscpu.a(libcsupport_a-malloc.o)
 .rodata.str1.8
                0x00000000       0x38 /opt/rtems-4.8/sparc-rtems/leon2/lib/librtemscpu.a(libcsupport_a-newlibc.o)
                                  0x8 (size before relaxing)
 .rodata.str1.8
                0x00000000       0x10 /opt/rtems-4.8/sparc-rtems/leon2/lib/librtemscpu.a(libcsupport_a-open_dev_console.o)
 .rodata.str1.8
                0x40058440       0x11 /opt/rtems-4.8/sparc-rtems/leon2/lib/librtemscpu.a(libcsupport_a-printk.o)
                                 0x18 (size before relaxing)
 .rodata        0x40058451        0x0 /opt/rtems-4.8/sparc-rtems/leon2/lib/librtemscpu.a(libcsupport_a-printk.o)
 *fill*         0x40058451        0x7 00
 .rodata.str1.8
                0x40058458       0x24 /opt/rtems-4.8/sparc-rtems/leon2/lib/librtemscpu.a(libcsupport_a-termios.o)
                                 0x28 (size before relaxing)
 *fill*         0x4005847c        0x4 00
 .rodata.str1.8
                0x40058480       0x5c /opt/rtems-4.8/sparc-rtems/leon2/lib/librtemscpu.a(libnetworking_a-if.o)
                                 0x68 (size before relaxing)
 *fill*         0x400584dc        0x4 00
 .rodata.str1.8
                0x400584e0       0x39 /opt/rtems-4.8/sparc-rtems/leon2/lib/librtemscpu.a(libnetworking_a-if_ethersubr.o)
                                 0x48 (size before relaxing)
 *fill*         0x40058519        0x3 00
 .rodata        0x4005851c       0x40 /opt/rtems-4.8/sparc-rtems/leon2/lib/librtemscpu.a(libnetworking_a-if_ethersubr.o)
 .rodata        0x4005855c        0x0 /opt/rtems-4.8/sparc-rtems/leon2/lib/librtemscpu.a(libnetworking_a-if_loop.o)
 *fill*         0x4005855c        0x4 00
 .rodata.str1.8
                0x40058560       0x33 /opt/rtems-4.8/sparc-rtems/leon2/lib/librtemscpu.a(libnetworking_a-if_loop.o)
                                 0x38 (size before relaxing)
 *fill*         0x40058593        0x5 00
 .rodata.str1.8
                0x40058598      0x178 /opt/rtems-4.8/sparc-rtems/leon2/lib/librtemscpu.a(libnetworking_a-ip_input.o)
                                0x188 (size before relaxing)
 .rodata.str1.8
                0x40058710       0x2f /opt/rtems-4.8/sparc-rtems/leon2/lib/librtemscpu.a(libnetworking_a-ip_mroute.o)
                                 0x30 (size before relaxing)
 .rodata        0x4005873f        0x0 /opt/rtems-4.8/sparc-rtems/leon2/lib/librtemscpu.a(libnetworking_a-ip_output.o)
 *fill*         0x4005873f        0x1 00
 .rodata.str1.8
                0x40058740       0x37 /opt/rtems-4.8/sparc-rtems/leon2/lib/librtemscpu.a(libnetworking_a-ip_output.o)
                                 0x38 (size before relaxing)
 *fill*         0x40058777        0x1 00
 .rodata.str1.8
                0x40058778       0xee /opt/rtems-4.8/sparc-rtems/leon2/lib/librtemscpu.a(libnetworking_a-kern_mib.o)
                                0x100 (size before relaxing)
 *fill*         0x40058866        0x2 00
 .rodata.str1.8
                0x40058868      0x172 /opt/rtems-4.8/sparc-rtems/leon2/lib/librtemscpu.a(libnetworking_a-kern_sysctl.o)
                                0x198 (size before relaxing)
 .rodata        0x400589da        0x0 /opt/rtems-4.8/sparc-rtems/leon2/lib/librtemscpu.a(libnetworking_a-kern_sysctl.o)
 *fill*         0x400589da        0x6 00
 .rodata.str1.8
                0x400589e0      0x16b /opt/rtems-4.8/sparc-rtems/leon2/lib/librtemscpu.a(libnetworking_a-radix.o)
                                0x170 (size before relaxing)
 *fill*         0x40058b4b        0x5 00
 .rodata        0x40058b50       0x10 /opt/rtems-4.8/sparc-rtems/leon2/lib/librtemscpu.a(libnetworking_a-radix.o)
 .rodata        0x40058b60        0x0 /opt/rtems-4.8/sparc-rtems/leon2/lib/librtemscpu.a(libnetworking_a-raw_ip.o)
 .rodata.str1.8
                0x40058b60       0x2b /opt/rtems-4.8/sparc-rtems/leon2/lib/librtemscpu.a(libnetworking_a-raw_ip.o)
                                 0x30 (size before relaxing)
 *fill*         0x40058b8b        0x5 00
 .rodata.str1.8
                0x40058b90       0xa9 /opt/rtems-4.8/sparc-rtems/leon2/lib/librtemscpu.a(libnetworking_a-route.o)
                                 0xb0 (size before relaxing)
 *fill*         0x40058c39        0x7 00
 .rodata.str1.8
                0x40058c40      0x325 /opt/rtems-4.8/sparc-rtems/leon2/lib/librtemscpu.a(libnetworking_a-rtems_glue.o)
                                0x328 (size before relaxing)
 *fill*         0x40058f65        0x3 00
 .rodata.str1.8
                0x40058f68      0x1ae /opt/rtems-4.8/sparc-rtems/leon2/lib/librtemscpu.a(libnetworking_a-rtems_showifstat.o)
                                0x1b0 (size before relaxing)
 *fill*         0x40059116        0x2 00
 .rodata.str1.8
                0x40059118       0xbd /opt/rtems-4.8/sparc-rtems/leon2/lib/librtemscpu.a(libnetworking_a-rtems_showroute.o)
                                 0xd0 (size before relaxing)
 *fill*         0x400591d5        0x3 00
 .rodata        0x400591d8       0x10 /opt/rtems-4.8/sparc-rtems/leon2/lib/librtemscpu.a(libnetworking_a-rtems_showroute.o)
 .rodata        0x400591e8       0x38 /opt/rtems-4.8/sparc-rtems/leon2/lib/librtemscpu.a(libnetworking_a-rtems_syscall.o)
 .rodata.str1.8
                0x40059220       0x23 /opt/rtems-4.8/sparc-rtems/leon2/lib/librtemscpu.a(libnetworking_a-rtsock.o)
                                 0x38 (size before relaxing)
 .rodata        0x40059243        0x0 /opt/rtems-4.8/sparc-rtems/leon2/lib/librtemscpu.a(libnetworking_a-rtsock.o)
 .rodata.str1.8
                0x00000000        0x8 /opt/rtems-4.8/sparc-rtems/leon2/lib/librtemscpu.a(libnetworking_a-sghostname.o)
 *fill*         0x40059243        0x5 00
 .rodata.str1.8
                0x40059248       0x18 /opt/rtems-4.8/sparc-rtems/leon2/lib/librtemscpu.a(libnetworking_a-uipc_mbuf.o)
 .rodata.str1.8
                0x40059260       0x82 /opt/rtems-4.8/sparc-rtems/leon2/lib/librtemscpu.a(libnetworking_a-uipc_socket.o)
                                 0x98 (size before relaxing)
 *fill*         0x400592e2        0x6 00
 .rodata.str1.8
                0x400592e8       0x7b /opt/rtems-4.8/sparc-rtems/leon2/lib/librtemscpu.a(libnetworking_a-uipc_socket2.o)
                                 0x90 (size before relaxing)
 .rodata        0x40059363        0x0 /opt/rtems-4.8/sparc-rtems/leon2/lib/librtemscpu.a(librtems_a-clockget.o)
 *fill*         0x40059363        0x5 00
 .rodata        0x40059368      0x160 /opt/rtems-4.8/sparc-rtems/leon2/lib/librtemscpu.a(libsapi_a-exinit.o)
                0x40059468                _Copyright_Notice
                0x400594b4                _Initialization_Default_multiprocessing_table
                0x40059368                __log2table
 .rodata.str1.8
                0x400594c8        0x5 /opt/rtems-4.8/sparc-rtems/leon2/lib/librtemscpu.a(libscore_a-threadcreateidle.o)
                                  0x8 (size before relaxing)
 *fill*         0x400594cd        0x3 00
 .rodata        0x400594d0       0x10 /opt/rtems-4.8/sparc-rtems/leon2/lib/librtemscpu.a(libscorecpu_a-cpu.o)
                0x400594d0                _CPU_Trap_slot_template
 .rodata        0x400594e0        0x0 /opt/rtems-4.8/sparc-rtems/leon2/lib/librtemscpu.a(imfs_eval.o)
 .rodata.str1.8
                0x400594e0       0x4f /opt/rtems-4.8/sparc-rtems/leon2/lib/librtemscpu.a(imfs_getchild.o)
                                 0x60 (size before relaxing)
 .rodata.str1.8
                0x00000000       0x10 /opt/rtems-4.8/sparc-rtems/leon2/lib/librtemscpu.a(imfs_gtkn.o)
 .rodata.str1.8
                0x00000000        0x8 /opt/rtems-4.8/sparc-rtems/leon2/lib/librtemscpu.a(imfs_initsupp.o)
 *fill*         0x4005952f        0x1 00
 .rodata.str1.8
                0x40059530        0x3 /opt/rtems-4.8/sparc-rtems/leon2/lib/librtemscpu.a(libc_a-inet_ntop.o)
                                  0x8 (size before relaxing)
 *fill*         0x40059533        0x5 00
 .rodata        0x40059538       0x10 /opt/rtems-4.8/sparc-rtems/leon2/lib/librtemscpu.a(libc_a-inet_ntop.o)
 .rodata.str1.8
                0x40059548        0xa /opt/rtems-4.8/sparc-rtems/leon2/lib/librtemscpu.a(libcsupport_a-assocptrbyremote.o)
                                 0x10 (size before relaxing)
 *fill*         0x40059552        0x6 00
 .rodata.str1.8
                0x40059558        0xd /opt/rtems-4.8/sparc-rtems/leon2/lib/librtemscpu.a(libcsupport_a-base_fs.o)
                                 0x10 (size before relaxing)
 *fill*         0x40059565        0x3 00
 .rodata.str1.8
                0x40059568      0x37e /opt/rtems-4.8/sparc-rtems/leon2/lib/librtemscpu.a(libcsupport_a-error.o)
                                0x388 (size before relaxing)
 *fill*         0x400598e6        0x2 00
 .rodata.str1.8
                0x400598e8      0x1f5 /opt/rtems-4.8/sparc-rtems/leon2/lib/librtemscpu.a(libnetworking_a-if_ether.o)
                                0x210 (size before relaxing)
 *fill*         0x40059add        0x3 00
 .rodata.str1.8
                0x40059ae0       0x6a /opt/rtems-4.8/sparc-rtems/leon2/lib/librtemscpu.a(libnetworking_a-in.o)
                                 0x80 (size before relaxing)
 *fill*         0x40059b4a        0x6 00
 .rodata.str1.8
                0x40059b50       0x13 /opt/rtems-4.8/sparc-rtems/leon2/lib/librtemscpu.a(libnetworking_a-in_cksum.o)
                                 0x18 (size before relaxing)
 *fill*         0x40059b63        0x5 00
 .rodata.str1.8
                0x40059b68       0x51 /opt/rtems-4.8/sparc-rtems/leon2/lib/librtemscpu.a(libnetworking_a-in_pcb.o)
                                 0x70 (size before relaxing)
 *fill*         0x40059bb9        0x7 00
 .rodata.str1.8
                0x40059bc0       0x70 /opt/rtems-4.8/sparc-rtems/leon2/lib/librtemscpu.a(libnetworking_a-in_proto.o)
                                 0x80 (size before relaxing)
 .rodata.str1.8
                0x40059c30       0x91 /opt/rtems-4.8/sparc-rtems/leon2/lib/librtemscpu.a(libnetworking_a-in_rmx.o)
                                 0xa8 (size before relaxing)
 *fill*         0x40059cc1        0x3 00
 .rodata        0x40059cc4       0x34 /opt/rtems-4.8/sparc-rtems/leon2/lib/librtemscpu.a(libnetworking_a-ip_icmp.o)
 .rodata.str1.8
                0x40059cf8       0x5b /opt/rtems-4.8/sparc-rtems/leon2/lib/librtemscpu.a(libnetworking_a-ip_icmp.o)
                                 0x70 (size before relaxing)
 *fill*         0x40059d53        0x5 00
 .rodata.str1.8
                0x40059d58       0x3e /opt/rtems-4.8/sparc-rtems/leon2/lib/librtemscpu.a(libnetworking_a-kern_subr.o)
                                 0x40 (size before relaxing)
 *fill*         0x40059d96        0x2 00
 .rodata        0x40059d98       0x6c /opt/rtems-4.8/sparc-rtems/leon2/lib/librtemscpu.a(libnetworking_a-kern_subr.o)
 *fill*         0x40059e04        0x4 00
 .rodata.str1.8
                0x40059e08        0xb /opt/rtems-4.8/sparc-rtems/leon2/lib/librtemscpu.a(libnetworking_a-raw_usrreq.o)
                                 0x10 (size before relaxing)
 .rodata        0x40059e13        0x0 /opt/rtems-4.8/sparc-rtems/leon2/lib/librtemscpu.a(libnetworking_a-raw_usrreq.o)
 *fill*         0x40059e13        0x5 00
 .rodata.str1.8
                0x40059e18       0x23 /opt/rtems-4.8/sparc-rtems/leon2/lib/librtemscpu.a(libnetworking_a-rtems_bsdnet_malloc_starvation.o)
                                 0x28 (size before relaxing)
 .rodata        0x40059e3b        0x0 /opt/rtems-4.8/sparc-rtems/leon2/lib/librtemscpu.a(libnetworking_a-tcp_input.o)
 *fill*         0x40059e3b        0x5 00
 .rodata.str1.8
                0x40059e40       0x62 /opt/rtems-4.8/sparc-rtems/leon2/lib/librtemscpu.a(libnetworking_a-tcp_input.o)
                                 0x80 (size before relaxing)
 *fill*         0x40059ea2        0x6 00
 .rodata.str1.8
                0x40059ea8       0x33 /opt/rtems-4.8/sparc-rtems/leon2/lib/librtemscpu.a(libnetworking_a-tcp_output.o)
                                 0x38 (size before relaxing)
 *fill*         0x40059edb        0x5 00
 .rodata        0x40059ee0       0x10 /opt/rtems-4.8/sparc-rtems/leon2/lib/librtemscpu.a(libnetworking_a-tcp_output.o)
 .rodata.str1.8
                0x40059ef0       0x71 /opt/rtems-4.8/sparc-rtems/leon2/lib/librtemscpu.a(libnetworking_a-tcp_subr.o)
                                 0x80 (size before relaxing)
 *fill*         0x40059f61        0x7 00
 .rodata.str1.8
                0x40059f68       0x41 /opt/rtems-4.8/sparc-rtems/leon2/lib/librtemscpu.a(libnetworking_a-tcp_timer.o)
                                 0x58 (size before relaxing)
 .rodata        0x40059fa9        0x0 /opt/rtems-4.8/sparc-rtems/leon2/lib/librtemscpu.a(libnetworking_a-tcp_usrreq.o)
 *fill*         0x40059fa9        0x7 00
 .rodata.str1.8
                0x40059fb0       0x1a /opt/rtems-4.8/sparc-rtems/leon2/lib/librtemscpu.a(libnetworking_a-tcp_usrreq.o)
                                 0x30 (size before relaxing)
 *fill*         0x40059fca        0x6 00
 .rodata.str1.8
                0x40059fd0       0xc1 /opt/rtems-4.8/sparc-rtems/leon2/lib/librtemscpu.a(libnetworking_a-udp_usrreq.o)
                                0x108 (size before relaxing)
 .rodata        0x4005a091        0x0 /opt/rtems-4.8/sparc-rtems/leon2/lib/librtemscpu.a(libnetworking_a-udp_usrreq.o)
 *fill*         0x4005a091        0x7 00
 .rodata.str1.8
                0x4005a098       0xab /opt/rtems-4.8/sparc-rtems/leon2/lib/librtemscpu.a(libposix_a-psignalchecksignal.o)
                                 0xb0 (size before relaxing)
 *fill*         0x4005a143        0x1 00
 .rodata        0x4005a144       0x38 /opt/rtems-4.8/sparc-rtems/leon2/lib/librtemscpu.a(libposix_a-pthread.o)
                0x4005a144                _POSIX_Threads_Default_attributes
 *fill*         0x4005a17c        0x4 00
 .rodata.str1.8
                0x4005a180       0x58 /opt/rtems-4.8/sparc-rtems/leon2/lib/librtemscpu.a(libposix_a-pthreadexit.o)
 .rodata.str1.8
                0x4005a1d8       0x89 /opt/rtems-4.8/sparc-rtems/leon2/lib/librtemscpu.a(deviceio.o)
                                 0x90 (size before relaxing)
 *fill*         0x4005a261        0x7 00
 .rodata.str1.8
                0x4005a268       0x4c /opt/rtems-4.8/sparc-rtems/leon2/lib/librtemscpu.a(imfs_creat.o)
                                 0x58 (size before relaxing)
 .rodata        0x4005a2b4        0x0 /opt/rtems-4.8/sparc-rtems/leon2/lib/librtemscpu.a(imfs_creat.o)
 .rodata.str1.8
                0x00000000       0x10 /opt/rtems-4.8/sparc-rtems/leon2/lib/librtemscpu.a(libcsupport_a-assocptrbylocal.o)
 *fill*         0x4005a2b4        0x4 00
 .rodata.str1.8
                0x4005a2b8        0xb /opt/rtems-4.8/sparc-rtems/leon2/lib/librtemscpu.a(libnetworking_a-igmp.o)
                                 0x20 (size before relaxing)
 *fill*         0x4005a2c3        0x5 00
 .rodata        0x4005a2c8      0x288 /opt/rtems-4.8-1.1.3/bin/../lib/gcc/sparc-rtems/4.2.4/../../../../sparc-rtems/lib/soft/libc.a(lib_a-ctype_.o)
                0x4005a2c8                _ctype_
 .rodata        0x4005a550        0x4 /opt/rtems-4.8-1.1.3/bin/../lib/gcc/sparc-rtems/4.2.4/../../../../sparc-rtems/lib/soft/libc.a(lib_a-impure.o)
                0x4005a550                _global_impure_ptr
 .rodata.str1.8
                0x00000000        0x8 /opt/rtems-4.8-1.1.3/bin/../lib/gcc/sparc-rtems/4.2.4/../../../../sparc-rtems/lib/soft/libc.a(lib_a-impure.o)
 .rodata        0x4005a554       0x68 /opt/rtems-4.8-1.1.3/bin/../lib/gcc/sparc-rtems/4.2.4/../../../../sparc-rtems/lib/soft/libc.a(lib_a-mktm_r.o)
 .rodata.str1.8
                0x00000000        0x8 /opt/rtems-4.8-1.1.3/bin/../lib/gcc/sparc-rtems/4.2.4/../../../../sparc-rtems/lib/soft/libc.a(lib_a-puts.o)
 *fill*         0x4005a5bc        0x4 00
 .rodata.str1.8
                0x4005a5c0      0x842 /opt/rtems-4.8-1.1.3/bin/../lib/gcc/sparc-rtems/4.2.4/../../../../sparc-rtems/lib/soft/libc.a(lib_a-strerror.o)
                                0x850 (size before relaxing)
 .rodata        0x4005ae02        0x0 /opt/rtems-4.8-1.1.3/bin/../lib/gcc/sparc-rtems/4.2.4/../../../../sparc-rtems/lib/soft/libc.a(lib_a-strerror.o)
 *fill*         0x4005ae02        0x6 00
 .rodata.str1.8
                0x4005ae08        0x4 /opt/rtems-4.8-1.1.3/bin/../lib/gcc/sparc-rtems/4.2.4/../../../../sparc-rtems/lib/soft/libc.a(lib_a-tzvars.o)
                                  0x8 (size before relaxing)
 *fill*         0x4005ae0c        0x4 00
 .rodata.str1.8
                0x4005ae10       0x5f /opt/rtems-4.8-1.1.3/bin/../lib/gcc/sparc-rtems/4.2.4/../../../../sparc-rtems/lib/soft/libc.a(lib_a-vfprintf.o)
                                 0x88 (size before relaxing)
 *fill*         0x4005ae6f        0x1 00
 .rodata.cst8   0x4005ae70        0x8 /opt/rtems-4.8-1.1.3/bin/../lib/gcc/sparc-rtems/4.2.4/../../../../sparc-rtems/lib/soft/libc.a(lib_a-vfprintf.o)
 .rodata        0x4005ae78       0x20 /opt/rtems-4.8-1.1.3/bin/../lib/gcc/sparc-rtems/4.2.4/../../../../sparc-rtems/lib/soft/libc.a(lib_a-vfprintf.o)
 .rodata.str1.8
                0x4005ae98       0x1e /opt/rtems-4.8-1.1.3/bin/../lib/gcc/sparc-rtems/4.2.4/../../../../sparc-rtems/lib/soft/libc.a(lib_a-wctomb_r.o)
                                 0x20 (size before relaxing)
 *fill*         0x4005aeb6        0x2 00
 .rodata.str1.8
                0x4005aeb8       0x14 /opt/rtems-4.8-1.1.3/bin/../lib/gcc/sparc-rtems/4.2.4/../../../../sparc-rtems/lib/soft/libc.a(lib_a-dtoa.o)
                                 0x20 (size before relaxing)
 *fill*         0x4005aecc        0x4 00
 .rodata.cst8   0x4005aed0       0x48 /opt/rtems-4.8-1.1.3/bin/../lib/gcc/sparc-rtems/4.2.4/../../../../sparc-rtems/lib/soft/libc.a(lib_a-dtoa.o)
                                 0x50 (size before relaxing)
 .rodata        0x4005af18        0x0 /opt/rtems-4.8-1.1.3/bin/../lib/gcc/sparc-rtems/4.2.4/../../../../sparc-rtems/lib/soft/libc.a(lib_a-dtoa.o)
 .rodata.str1.8
                0x4005af18        0xb /opt/rtems-4.8-1.1.3/bin/../lib/gcc/sparc-rtems/4.2.4/../../../../sparc-rtems/lib/soft/libc.a(lib_a-locale.o)
                                 0x28 (size before relaxing)
 *fill*         0x4005af23        0x1 00
 .rodata        0x4005af24       0x34 /opt/rtems-4.8-1.1.3/bin/../lib/gcc/sparc-rtems/4.2.4/../../../../sparc-rtems/lib/soft/libc.a(lib_a-locale.o)
 .rodata.cst8   0x00000000       0x10 /opt/rtems-4.8-1.1.3/bin/../lib/gcc/sparc-rtems/4.2.4/../../../../sparc-rtems/lib/soft/libc.a(lib_a-mprec.o)
 .rodata        0x4005af58      0x128 /opt/rtems-4.8-1.1.3/bin/../lib/gcc/sparc-rtems/4.2.4/../../../../sparc-rtems/lib/soft/libc.a(lib_a-mprec.o)
                0x4005b048                __mprec_tinytens
                0x4005af58                __mprec_tens
                0x4005b020                __mprec_bigtens
 .rodata.cst8   0x4005b080        0x8 /opt/rtems-4.8-1.1.3/bin/../lib/gcc/sparc-rtems/4.2.4/soft/libgcc.a(_si_to_df.o)
 .rodata        0x4005b088       0x20 /opt/rtems-4.8/sparc-rtems/leon2/lib/librtemsbsp.a(libsupport_a-version.o)
                0x4005b088                _RTEMS_version
 .rodata.str1.8
                0x4005b0a8       0x55 /opt/rtems-4.8/sparc-rtems/leon2/lib/librtemscpu.a(libposix_a-killinfo.o)
                                 0x58 (size before relaxing)
 *fill*         0x4005b0fd        0x3 00
 .rodata.str1.8
                0x4005b100       0x48 /opt/rtems-4.8/sparc-rtems/leon2/lib/librtemscpu.a(libposix_a-types.o)
                                 0x50 (size before relaxing)
 *(.gnu.linkonce.r*)
                0x4005b150                _erodata = ALIGN (0x10)
                0x4005b150                etext = ALIGN (0x10)
                0x4005b148                _etext = .
 *(.init)
 .init          0x4005b148        0x4 /opt/rtems-4.8-1.1.3/bin/../lib/gcc/sparc-rtems/4.2.4/crti.o
                0x4005b148                _init
 .init          0x4005b14c        0x8 /opt/rtems-4.8-1.1.3/bin/../lib/gcc/sparc-rtems/4.2.4/crtbegin.o
 .init          0x4005b154        0x8 /opt/rtems-4.8-1.1.3/bin/../lib/gcc/sparc-rtems/4.2.4/crtend.o
 .init          0x4005b15c        0x8 /opt/rtems-4.8-1.1.3/bin/../lib/gcc/sparc-rtems/4.2.4/crtn.o
 *(.fini)
 .fini          0x4005b164        0x4 /opt/rtems-4.8-1.1.3/bin/../lib/gcc/sparc-rtems/4.2.4/crti.o
                0x4005b164                _fini
 .fini          0x4005b168        0x8 /opt/rtems-4.8-1.1.3/bin/../lib/gcc/sparc-rtems/4.2.4/crtbegin.o
 .fini          0x4005b170        0x8 /opt/rtems-4.8-1.1.3/bin/../lib/gcc/sparc-rtems/4.2.4/crtn.o
 *(.lit)
 *(.shdata)
                0x4005b180                . = ALIGN (0x10)
 *fill*         0x4005b178        0x8 00
                0x4005b180                _endtext = .

.rela.dyn       0x4005b180        0x0
 *(.rela.init)
 *(.rela.text .rela.text.* .rela.gnu.linkonce.t.*)
 .rela.text     0x00000000        0x0 /opt/rtems-4.8/sparc-rtems/leon2/lib/start.o
 *(.rela.fini)
 *(.rela.rodata .rela.rodata.* .rela.gnu.linkonce.r.*)
 *(.rela.data .rela.data.* .rela.gnu.linkonce.d.*)
 .rela.data     0x00000000        0x0 /opt/rtems-4.8/sparc-rtems/leon2/lib/start.o
 *(.rela.tdata .rela.tdata.* .rela.gnu.linkonce.td.*)
 *(.rela.tbss .rela.tbss.* .rela.gnu.linkonce.tb.*)
 *(.rela.ctors)
 *(.rela.dtors)
 *(.rela.got)
 *(.rela.bss .rela.bss.* .rela.gnu.linkonce.b.*)

.data           0x4005b180     0x33c0
                0x4005b180                data_start = .
                0x4005b180                _data_start = .
                0x4005b180                _sdata = .
 *(.data*)
 .data          0x4005b180        0x0 /opt/rtems-4.8/sparc-rtems/leon2/lib/start.o
 .data          0x4005b180        0x0 /opt/rtems-4.8-1.1.3/bin/../lib/gcc/sparc-rtems/4.2.4/crti.o
 .data          0x4005b180        0xc /opt/rtems-4.8-1.1.3/bin/../lib/gcc/sparc-rtems/4.2.4/crtbegin.o
                0x4005b184                __dso_handle
 *fill*         0x4005b18c        0x4 00
 .data          0x4005b190       0x10 /home/aitor/workspace/rasta-sw/osal-repo/trunk/samples/misc/soclient.o
                0x4005b190                osal_ip_addr
 .data          0x4005b1a0        0x0 libosal_rtems_rastaleon2.a(osapi.o)
 .data          0x4005b1a0        0x8 libosal_rtems_rastaleon2.a(osmut.o)
 .data          0x4005b1a8        0x8 libosal_rtems_rastaleon2.a(ostask.o)
 .data          0x4005b1b0      0x440 libosal_rtems_rastaleon2.a(rtems-config.o)
                0x4005b1ec                Device_drivers
                0x4005b460                leon2_amba_custom_cores
                0x4005b2d8                _RTEMS_tasks_Initialize_user_tasks_p
                0x4005b5c8                gr_rasta_tmtc0_res
                0x4005b1b8                configuration_mount_table
                0x4005b4a8                rastaioN_apbuart0_res
                0x4005b350                interface_configs
                0x4005b2a0                Configuration
                0x4005b43c                leon2_custom_at697
                0x4005b3d0                leon2_amba_at697pci_res
                0x4005b1b0                rtems_libio_number_iops
                0x4005b500                gr_rasta_io0_res
                0x4005b598                rastatmtc0_esa_mctrl0_res
                0x4005b1cc                rtems_filesystem_mount_table_size
                0x4005b590                gr_rasta_io_res
                0x4005b4cc                rastaioN_mctrl0_res
                0x4005b1c8                rtems_filesystem_mount_table
                0x4005b274                Configuration_RTEMS_API
                0x4005b478                leon2_bus_config
                0x4005b1b4                imfs_rq_memfile_bytes_per_block
                0x4005b5e8                gr_rasta_tmtc_res
                0x4005b234                Configuration_Initial_Extensions
                0x4005b2dc                rtems_drvmgr_drivers
                0x4005b550                gr_rasta_io1_res
                0x4005b1d0                Initialization_tasks
                0x4005b314                rtems_bsdnet_config
                0x4005b488                leon2_amba_res
 .data          0x4005b5f0        0x0 libosal_rtems_rastaleon2.a(osstats.o)
 .data          0x4005b5f0       0x60 /opt/libbackport/lib/libbackport_leon2-4.10-4.8.a(ambapp_bus_leon2.o)
                0x4005b628                ambapp_bus_drv_leon2
                0x4005b5f0                ambapp_leon2_ops
                0x4005b610                ambapp_ops
                0x4005b620                ambapp_leon2_ids
 .data          0x4005b650       0x58 /opt/libbackport/lib/libbackport_leon2-4.10-4.8.a(ambapp_bus.o)
                0x4005b650                ambapp_bus_ops
 .data          0x4005b6a8      0x68c /opt/libbackport/lib/libbackport_leon2-4.10-4.8.a(ambapp_names.o)
 *fill*         0x4005bd34        0x4 00
 .data          0x4005bd38       0x50 /opt/libbackport/lib/libbackport_leon2-4.10-4.8.a(at697_pci.o)
                0x4005bd80                pcic
                0x4005bd54                at697pci_ids
                0x4005bd40                at697_pci_irq_pio_table
                0x4005bd44                at697pci_ops
                0x4005bd58                at697pci_info
                0x4005bd38                at697_pci_irq_table
 .data          0x4005bd88       0x58 /opt/libbackport/lib/libbackport_leon2-4.10-4.8.a(b1553brm.o)
                0x4005bd98                b1553brm_ids
                0x4005bd88                b1553brm_ops
                0x4005bda0                b1553brm_drv_info
 .data          0x4005bde0        0x0 /opt/libbackport/lib/libbackport_leon2-4.10-4.8.a(drvmgr_drvinf.o)
 .data          0x4005bde0       0x74 /opt/libbackport/lib/libbackport_leon2-4.10-4.8.a(drvmgr.o)
                0x4005bde0                drv_mgr
 .data          0x4005be54        0x0 /opt/libbackport/lib/libbackport_leon2-4.10-4.8.a(drvmgr_print.o)
 .data          0x4005be54        0x0 /opt/libbackport/lib/libbackport_leon2-4.10-4.8.a(drvmgr_res.o)
 *fill*         0x4005be54        0x4 00
 .data          0x4005be58       0x60 /opt/libbackport/lib/libbackport_leon2-4.10-4.8.a(gr_701.o)
                0x4005be90                gr701_info
                0x4005be78                gr701_ops
                0x4005be58                ambapp_gr701_ops
                0x4005be88                gr701_ids
 .data          0x4005beb8       0x60 /opt/libbackport/lib/libbackport_leon2-4.10-4.8.a(grcan.o)
                0x4005bec8                grcan_ids
                0x4005bed8                grcan_drv_info
                0x4005beb8                grcan_ops
 .data          0x4005bf18       0x48 /opt/libbackport/lib/libbackport_leon2-4.10-4.8.a(grpci.o)
                0x4005bf18                grpci_pci_irq_table
                0x4005bf1c                grpci_ops
                0x4005bf38                grpci_info
                0x4005bf2c                grpci_ids
 .data          0x4005bf60       0x68 /opt/libbackport/lib/libbackport_leon2-4.10-4.8.a(gr_rasta_adcdac.o)
                0x4005bfa0                gr_rasta_adcdac_info
                0x4005bf68                ambapp_rasta_adcdac_ops
                0x4005bf60                gr_rasta_adcdac_ver0
                0x4005bf88                gr_rasta_adcdac_ops
                0x4005bf98                gr_rasta_adcdac_ids
 .data          0x4005bfc8       0x78 /opt/libbackport/lib/libbackport_leon2-4.10-4.8.a(gr_rasta_io.o)
                0x4005c018                gr_rasta_io_info
                0x4005c008                gr_rasta_io_ids
                0x4005bfd8                ambapp_rasta_io_ops
                0x4005bff8                gr_rasta_io_ops
                0x4005bfc8                gr_rasta_io_ver0
                0x4005bfd0                gr_rasta_io_ver1
 .data          0x4005c040       0x68 /opt/libbackport/lib/libbackport_leon2-4.10-4.8.a(gr_rasta_tmtc.o)
                0x4005c078                gr_rasta_tmtc_ids
                0x4005c048                ambapp_rasta_tmtc_ops
                0x4005c080                gr_rasta_tmtc_info
                0x4005c040                gr_rasta_tmtc_ver0
                0x4005c068                gr_rasta_tmtc_ops
 .data          0x4005c0a8       0x60 /opt/libbackport/lib/libbackport_leon2-4.10-4.8.a(grspw.o)
                0x4005c0a8                grspw_ops
                0x4005c0b8                grspw_ids
                0x4005c0c8                grspw_drv_info
 .data          0x4005c108       0x58 /opt/libbackport/lib/libbackport_leon2-4.10-4.8.a(grtc.o)
 .data          0x4005c160       0x58 /opt/libbackport/lib/libbackport_leon2-4.10-4.8.a(grtm.o)
 .data          0x4005c1b8      0x1a8 /opt/libbackport/lib/libbackport_leon2-4.10-4.8.a(leon2_amba_bus.o)
                0x4005c340                leon2_bus_drv
                0x4005c2e8                drv_mgr_leon2_std_cores
                0x4005c264                leon2_uart2
                0x4005c2a0                leon2_gpio0
                0x4005c330                leon2_amba_ops
                0x4005c1b8                leon2_amba_bus_ops
                0x4005c240                leon2_uart1
                0x4005c288                leon2_irqctrl
                0x4005c210                leon2_timers
 .data          0x4005c360        0x0 /opt/libbackport/lib/libbackport_leon2-4.10-4.8.a(network_interface_add.o)
 .data          0x4005c360       0x58 /opt/libbackport/lib/libbackport_leon2-4.10-4.8.a(pci_bus.o)
                0x4005c360                pcibus_ops
 .data          0x4005c3b8       0x48 /opt/libbackport/lib/libbackport_leon2-4.10-4.8.a(pcif.o)
                0x4005c3cc                pcif_ids
                0x4005c3d8                pcif_info
                0x4005c3b8                pcif_pci_irq_table
                0x4005c3bc                pcif_ops
 .data          0x4005c400        0x0 /opt/libbackport/lib/libbackport_leon2-4.10-4.8.a(pci.o)
 .data          0x4005c400        0x0 /opt/libbackport/lib/libbackport_leon2-4.10-4.8.a(ambapp_show.o)
 .data          0x4005c400        0x0 /opt/libbackport/lib/libbackport_leon2-4.10-4.8.a(drvmgr_list.o)
 .data          0x4005c400        0x0 /opt/rtems-4.8-1.1.3/bin/../lib/gcc/sparc-rtems/4.2.4/soft/libgcc.a(_mulsi3.o)
 .data          0x4005c400        0x0 /opt/rtems-4.8-1.1.3/bin/../lib/gcc/sparc-rtems/4.2.4/soft/libgcc.a(_divsi3.o)
 .data          0x4005c400        0x0 /opt/rtems-4.8-1.1.3/bin/../lib/gcc/sparc-rtems/4.2.4/soft/libgcc.a(_modsi3.o)
 .data          0x4005c400        0x0 /opt/rtems-4.8-1.1.3/bin/../lib/gcc/sparc-rtems/4.2.4/soft/libgcc.a(_mul_df.o)
 .data          0x4005c400        0x0 /opt/rtems-4.8-1.1.3/bin/../lib/gcc/sparc-rtems/4.2.4/soft/libgcc.a(_thenan_df.o)
 .data          0x4005c400        0x0 /opt/rtems-4.8-1.1.3/bin/../lib/gcc/sparc-rtems/4.2.4/soft/libgcc.a(_usi_to_df.o)
 .data          0x4005c400        0x0 /opt/rtems-4.8-1.1.3/bin/../lib/gcc/sparc-rtems/4.2.4/soft/libgcc.a(_muldi3.o)
 .data          0x4005c400        0x0 /opt/rtems-4.8-1.1.3/bin/../lib/gcc/sparc-rtems/4.2.4/soft/libgcc.a(_clzsi2.o)
 .data          0x4005c400        0x0 /opt/rtems-4.8-1.1.3/bin/../lib/gcc/sparc-rtems/4.2.4/soft/libgcc.a(_pack_df.o)
 .data          0x4005c400        0x0 /opt/rtems-4.8-1.1.3/bin/../lib/gcc/sparc-rtems/4.2.4/soft/libgcc.a(_unpack_df.o)
 .data          0x4005c400        0x0 /opt/rtems-4.8-1.1.3/bin/../lib/gcc/sparc-rtems/4.2.4/soft/libgcc.a(_clz.o)
 .data          0x4005c400        0x0 /opt/rtems-4.8/sparc-rtems/leon2/lib/librtemsbsp.a(amba.rel)
 .data          0x4005c400        0x4 /opt/rtems-4.8/sparc-rtems/leon2/lib/librtemsbsp.a(clock.rel)
                0x4005c400                rtems_clock_major
 .data          0x4005c404        0x8 /opt/rtems-4.8/sparc-rtems/leon2/lib/librtemsbsp.a(console.rel)
                0x4005c404                BSP_output_char
                0x4005c408                BSP_poll_char
 .data          0x4005c40c       0x18 /opt/rtems-4.8/sparc-rtems/leon2/lib/librtemsbsp.a(leon_smc91111.rel)
                0x4005c40c                leon_scmv91111_configuration
 .data          0x4005c424      0x190 /opt/rtems-4.8/sparc-rtems/leon2/lib/librtemsbsp.a(libnetchip_a-smc91111.o)
 .data          0x4005c5b4        0x0 /opt/rtems-4.8/sparc-rtems/leon2/lib/librtemsbsp.a(reg_win.rel)
 .data          0x4005c5b4        0x0 /opt/rtems-4.8/sparc-rtems/leon2/lib/librtemsbsp.a(startup.rel)
 .data          0x4005c5b4        0x0 /opt/rtems-4.8/sparc-rtems/leon2/lib/librtemsbsp.a(syscall.rel)
 .data          0x4005c5b4        0x0 /opt/rtems-4.8/sparc-rtems/leon2/lib/librtemscpu.a(check.o)
 .data          0x4005c5b4        0x0 /opt/rtems-4.8/sparc-rtems/leon2/lib/librtemscpu.a(ioman.o)
 .data          0x4005c5b4        0x0 /opt/rtems-4.8/sparc-rtems/leon2/lib/librtemscpu.a(libc_a-inet_addr.o)
 .data          0x4005c5b4        0x0 /opt/rtems-4.8/sparc-rtems/leon2/lib/librtemscpu.a(libc_a-inet_pton.o)
 .data          0x4005c5b4        0x0 /opt/rtems-4.8/sparc-rtems/leon2/lib/librtemscpu.a(libc_a-recv.o)
 .data          0x4005c5b4        0x0 /opt/rtems-4.8/sparc-rtems/leon2/lib/librtemscpu.a(libc_a-send.o)
 .data          0x4005c5b4        0x0 /opt/rtems-4.8/sparc-rtems/leon2/lib/librtemscpu.a(libcsupport_a-__assert.o)
 .data          0x4005c5b4        0x0 /opt/rtems-4.8/sparc-rtems/leon2/lib/librtemscpu.a(libcsupport_a-close.o)
 .data          0x4005c5b4        0x0 /opt/rtems-4.8/sparc-rtems/leon2/lib/librtemscpu.a(libcsupport_a-eval.o)
 .data          0x4005c5b4       0x60 /opt/rtems-4.8/sparc-rtems/leon2/lib/librtemscpu.a(libcsupport_a-libio.o)
                0x4005c5b4                access_modes_assoc
                0x4005c5e4                status_flags_assoc
 .data          0x4005c614        0x0 /opt/rtems-4.8/sparc-rtems/leon2/lib/librtemscpu.a(libcsupport_a-libio_init.o)
 .data          0x4005c614        0x0 /opt/rtems-4.8/sparc-rtems/leon2/lib/librtemscpu.a(libcsupport_a-malloc.o)
 .data          0x4005c614        0x0 /opt/rtems-4.8/sparc-rtems/leon2/lib/librtemscpu.a(libcsupport_a-mkdir.o)
 .data          0x4005c614        0x0 /opt/rtems-4.8/sparc-rtems/leon2/lib/librtemscpu.a(libcsupport_a-mknod.o)
 *fill*         0x4005c614        0x4 00
 .data          0x4005c618      0x400 /opt/rtems-4.8/sparc-rtems/leon2/lib/librtemscpu.a(libcsupport_a-newlibc.o)
                0x4005c618                libc_global_reent
 .data          0x4005ca18        0x0 /opt/rtems-4.8/sparc-rtems/leon2/lib/librtemscpu.a(libcsupport_a-open_dev_console.o)
 .data          0x4005ca18        0x0 /opt/rtems-4.8/sparc-rtems/leon2/lib/librtemscpu.a(libcsupport_a-printk.o)
 .data          0x4005ca18        0x0 /opt/rtems-4.8/sparc-rtems/leon2/lib/librtemscpu.a(libcsupport_a-printk_plugin.o)
 .data          0x4005ca18       0x14 /opt/rtems-4.8/sparc-rtems/leon2/lib/librtemscpu.a(libcsupport_a-termios.o)
                0x4005ca18                rtems_termios_nlinesw
 .data          0x4005ca2c        0x0 /opt/rtems-4.8/sparc-rtems/leon2/lib/librtemscpu.a(libcsupport_a-termiosinitialize.o)
 .data          0x4005ca2c       0x60 /opt/rtems-4.8/sparc-rtems/leon2/lib/librtemscpu.a(libnetworking_a-if.o)
                0x4005ca2c                ifqmaxlen
 *fill*         0x4005ca8c        0x4 00
 .data          0x4005ca90       0x48 /opt/rtems-4.8/sparc-rtems/leon2/lib/librtemscpu.a(libnetworking_a-if_ethersubr.o)
                0x4005ca98                ether_ipmulticast_min
                0x4005ca90                etherbroadcastaddr
                0x4005caa0                ether_ipmulticast_max
 .data          0x4005cad8        0x0 /opt/rtems-4.8/sparc-rtems/leon2/lib/librtemscpu.a(libnetworking_a-if_loop.o)
 .data          0x4005cad8      0x168 /opt/rtems-4.8/sparc-rtems/leon2/lib/librtemscpu.a(libnetworking_a-ip_input.o)
                0x4005cad8                ip_defttl
                0x4005cae0                inetctlerrmap
 .data          0x4005cc40       0x18 /opt/rtems-4.8/sparc-rtems/leon2/lib/librtemscpu.a(libnetworking_a-ip_mroute.o)
                0x4005cc40                ip_mrouter_set
                0x4005cc4c                ip_mforward
                0x4005cc50                mrt_ioctl
                0x4005cc54                ip_mcast_src
                0x4005cc48                ip_mrouter_done
                0x4005cc44                ip_mrouter_get
 .data          0x4005cc58        0x0 /opt/rtems-4.8/sparc-rtems/leon2/lib/librtemscpu.a(libnetworking_a-ip_output.o)
 .data          0x4005cc58      0x120 /opt/rtems-4.8/sparc-rtems/leon2/lib/librtemscpu.a(libnetworking_a-kern_mib.o)
                0x4005cc68                ostype
                0x4005cc60                osrelease
                0x4005cc58                machine
 .data          0x4005cd78      0x10c /opt/rtems-4.8/sparc-rtems/leon2/lib/librtemscpu.a(libnetworking_a-kern_sysctl.o)
 .data          0x4005ce84        0x0 /opt/rtems-4.8/sparc-rtems/leon2/lib/librtemscpu.a(libnetworking_a-radix.o)
 .data          0x4005ce84       0x10 /opt/rtems-4.8/sparc-rtems/leon2/lib/librtemscpu.a(libnetworking_a-raw_ip.o)
 .data          0x4005ce94        0x0 /opt/rtems-4.8/sparc-rtems/leon2/lib/librtemscpu.a(libnetworking_a-route.o)
 .data          0x4005ce94       0x10 /opt/rtems-4.8/sparc-rtems/leon2/lib/librtemscpu.a(libnetworking_a-rtems_glue.o)
                0x4005ce9c                rtems_bsdnet_ntpserver
                0x4005ce98                rtems_bsdnet_nameserver
                0x4005ce94                nmbclusters
 .data          0x4005cea4        0x0 /opt/rtems-4.8/sparc-rtems/leon2/lib/librtemscpu.a(libnetworking_a-rtems_malloc_mbuf.o)
 .data          0x4005cea4        0x0 /opt/rtems-4.8/sparc-rtems/leon2/lib/librtemscpu.a(libnetworking_a-rtems_showifstat.o)
 .data          0x4005cea4        0x0 /opt/rtems-4.8/sparc-rtems/leon2/lib/librtemscpu.a(libnetworking_a-rtems_showroute.o)
 .data          0x4005cea4        0x0 /opt/rtems-4.8/sparc-rtems/leon2/lib/librtemscpu.a(libnetworking_a-rtems_syscall.o)
 .data          0x4005cea4       0xc0 /opt/rtems-4.8/sparc-rtems/leon2/lib/librtemscpu.a(libnetworking_a-rtsock.o)
                0x4005cea4                routedomain
 .data          0x4005cf64        0x0 /opt/rtems-4.8/sparc-rtems/leon2/lib/librtemscpu.a(libnetworking_a-sghostname.o)
 .data          0x4005cf64        0x0 /opt/rtems-4.8/sparc-rtems/leon2/lib/librtemscpu.a(libnetworking_a-uipc_domain.o)
 .data          0x4005cf64        0x0 /opt/rtems-4.8/sparc-rtems/leon2/lib/librtemscpu.a(libnetworking_a-uipc_mbuf.o)
 .data          0x4005cf64       0x30 /opt/rtems-4.8/sparc-rtems/leon2/lib/librtemscpu.a(libnetworking_a-uipc_socket.o)
 .data          0x4005cf94       0xa4 /opt/rtems-4.8/sparc-rtems/leon2/lib/librtemscpu.a(libnetworking_a-uipc_socket2.o)
                0x4005cf98                pru_oldstyle
                0x4005cf94                sb_max
 .data          0x4005d038        0x0 /opt/rtems-4.8/sparc-rtems/leon2/lib/librtemscpu.a(librtems_a-clockget.o)
 .data          0x4005d038        0x0 /opt/rtems-4.8/sparc-rtems/leon2/lib/librtemscpu.a(librtems_a-clocksetnsecshandler.o)
 .data          0x4005d038        0x0 /opt/rtems-4.8/sparc-rtems/leon2/lib/librtemscpu.a(librtems_a-clocktick.o)
 .data          0x4005d038        0x0 /opt/rtems-4.8/sparc-rtems/leon2/lib/librtemscpu.a(librtems_a-eventreceive.o)
 .data          0x4005d038        0x0 /opt/rtems-4.8/sparc-rtems/leon2/lib/librtemscpu.a(librtems_a-eventseize.o)
 .data          0x4005d038        0x0 /opt/rtems-4.8/sparc-rtems/leon2/lib/librtemscpu.a(librtems_a-eventsend.o)
 .data          0x4005d038        0x0 /opt/rtems-4.8/sparc-rtems/leon2/lib/librtemscpu.a(librtems_a-eventsurrender.o)
 .data          0x4005d038        0x0 /opt/rtems-4.8/sparc-rtems/leon2/lib/librtemscpu.a(librtems_a-eventtimeout.o)
 .data          0x4005d038        0x0 /opt/rtems-4.8/sparc-rtems/leon2/lib/librtemscpu.a(librtems_a-intrcatch.o)
 .data          0x4005d038        0x0 /opt/rtems-4.8/sparc-rtems/leon2/lib/librtemscpu.a(librtems_a-ratemoncreate.o)
 .data          0x4005d038        0x0 /opt/rtems-4.8/sparc-rtems/leon2/lib/librtemscpu.a(librtems_a-ratemondata.o)
 .data          0x4005d038        0x0 /opt/rtems-4.8/sparc-rtems/leon2/lib/librtemscpu.a(librtems_a-ratemondelete.o)
 .data          0x4005d038        0x0 /opt/rtems-4.8/sparc-rtems/leon2/lib/librtemscpu.a(librtems_a-ratemonperiod.o)
 .data          0x4005d038        0x0 /opt/rtems-4.8/sparc-rtems/leon2/lib/librtemscpu.a(librtems_a-ratemontimeout.o)
 .data          0x4005d038        0x0 /opt/rtems-4.8/sparc-rtems/leon2/lib/librtemscpu.a(librtems_a-rtemsobjectgetname.o)
 .data          0x4005d038        0x0 /opt/rtems-4.8/sparc-rtems/leon2/lib/librtemscpu.a(librtems_a-semcreate.o)
 .data          0x4005d038        0x0 /opt/rtems-4.8/sparc-rtems/leon2/lib/librtemscpu.a(librtems_a-semdata.o)
 .data          0x4005d038        0x0 /opt/rtems-4.8/sparc-rtems/leon2/lib/librtemscpu.a(librtems_a-semdelete.o)
 .data          0x4005d038        0x0 /opt/rtems-4.8/sparc-rtems/leon2/lib/librtemscpu.a(librtems_a-semflush.o)
 .data          0x4005d038        0x0 /opt/rtems-4.8/sparc-rtems/leon2/lib/librtemscpu.a(librtems_a-semobtain.o)
 .data          0x4005d038        0x0 /opt/rtems-4.8/sparc-rtems/leon2/lib/librtemscpu.a(librtems_a-semrelease.o)
 .data          0x4005d038       0x30 /opt/rtems-4.8/sparc-rtems/leon2/lib/librtemscpu.a(librtems_a-semtranslatereturncode.o)
                0x4005d054                _Semaphore_Translate_core_semaphore_return_code_
                0x4005d038                _Semaphore_Translate_core_mutex_return_code_
 .data          0x4005d068        0x0 /opt/rtems-4.8/sparc-rtems/leon2/lib/librtemscpu.a(librtems_a-taskcreate.o)
 .data          0x4005d068        0x0 /opt/rtems-4.8/sparc-rtems/leon2/lib/librtemscpu.a(librtems_a-taskdata.o)
 .data          0x4005d068        0x0 /opt/rtems-4.8/sparc-rtems/leon2/lib/librtemscpu.a(librtems_a-taskdelete.o)
 .data          0x4005d068        0x0 /opt/rtems-4.8/sparc-rtems/leon2/lib/librtemscpu.a(librtems_a-taskident.o)
 .data          0x4005d068        0x0 /opt/rtems-4.8/sparc-rtems/leon2/lib/librtemscpu.a(librtems_a-taskinitusers.o)
 .data          0x4005d068        0x0 /opt/rtems-4.8/sparc-rtems/leon2/lib/librtemscpu.a(librtems_a-taskresume.o)
 .data          0x4005d068        0x0 /opt/rtems-4.8/sparc-rtems/leon2/lib/librtemscpu.a(librtems_a-tasksetpriority.o)
 .data          0x4005d068        0x0 /opt/rtems-4.8/sparc-rtems/leon2/lib/librtemscpu.a(librtems_a-taskstart.o)
 .data          0x4005d068        0x0 /opt/rtems-4.8/sparc-rtems/leon2/lib/librtemscpu.a(librtems_a-tasksuspend.o)
 .data          0x4005d068        0x0 /opt/rtems-4.8/sparc-rtems/leon2/lib/librtemscpu.a(librtems_a-taskvariableadd.o)
 .data          0x4005d068        0x0 /opt/rtems-4.8/sparc-rtems/leon2/lib/librtemscpu.a(librtems_a-taskwakeafter.o)
 .data          0x4005d068        0x0 /opt/rtems-4.8/sparc-rtems/leon2/lib/librtemscpu.a(libsapi_a-exinit.o)
 .data          0x4005d068        0x0 /opt/rtems-4.8/sparc-rtems/leon2/lib/librtemscpu.a(libsapi_a-extension.o)
 .data          0x4005d068        0x0 /opt/rtems-4.8/sparc-rtems/leon2/lib/librtemscpu.a(libsapi_a-extensiondata.o)
 .data          0x4005d068        0x0 /opt/rtems-4.8/sparc-rtems/leon2/lib/librtemscpu.a(libsapi_a-fatal.o)
 .data          0x4005d068        0x0 /opt/rtems-4.8/sparc-rtems/leon2/lib/librtemscpu.a(libsapi_a-getversionstring.o)
 .data          0x4005d068        0x0 /opt/rtems-4.8/sparc-rtems/leon2/lib/librtemscpu.a(libsapi_a-io.o)
 .data          0x4005d068        0x0 /opt/rtems-4.8/sparc-rtems/leon2/lib/librtemscpu.a(libsapi_a-iodata.o)
 .data          0x4005d068        0x0 /opt/rtems-4.8/sparc-rtems/leon2/lib/librtemscpu.a(libsapi_a-ioinitialize.o)
 .data          0x4005d068        0x0 /opt/rtems-4.8/sparc-rtems/leon2/lib/librtemscpu.a(libsapi_a-ioregisterdriver.o)
 .data          0x4005d068        0x0 /opt/rtems-4.8/sparc-rtems/leon2/lib/librtemscpu.a(libsapi_a-posixapi.o)
 .data          0x4005d068       0x14 /opt/rtems-4.8/sparc-rtems/leon2/lib/librtemscpu.a(libsapi_a-rtemsapi.o)
                0x4005d068                _Status_Object_name_errors_to_status
 .data          0x4005d07c        0x0 /opt/rtems-4.8/sparc-rtems/leon2/lib/librtemscpu.a(libscore_a-apiext.o)
 .data          0x4005d07c        0x0 /opt/rtems-4.8/sparc-rtems/leon2/lib/librtemscpu.a(libscore_a-chainappend.o)
 .data          0x4005d07c        0x0 /opt/rtems-4.8/sparc-rtems/leon2/lib/librtemscpu.a(libscore_a-chainget.o)
 .data          0x4005d07c        0x0 /opt/rtems-4.8/sparc-rtems/leon2/lib/librtemscpu.a(libscore_a-coremutex.o)
 .data          0x4005d07c        0x0 /opt/rtems-4.8/sparc-rtems/leon2/lib/librtemscpu.a(libscore_a-coremutexflush.o)
 .data          0x4005d07c        0x0 /opt/rtems-4.8/sparc-rtems/leon2/lib/librtemscpu.a(libscore_a-coremutexseize.o)
 .data          0x4005d07c        0x0 /opt/rtems-4.8/sparc-rtems/leon2/lib/librtemscpu.a(libscore_a-coremutexsurrender.o)
 .data          0x4005d07c        0x0 /opt/rtems-4.8/sparc-rtems/leon2/lib/librtemscpu.a(libscore_a-coresem.o)
 .data          0x4005d07c        0x0 /opt/rtems-4.8/sparc-rtems/leon2/lib/librtemscpu.a(libscore_a-coresemflush.o)
 .data          0x4005d07c        0x0 /opt/rtems-4.8/sparc-rtems/leon2/lib/librtemscpu.a(libscore_a-coresemsurrender.o)
 .data          0x4005d07c        0x0 /opt/rtems-4.8/sparc-rtems/leon2/lib/librtemscpu.a(libscore_a-coretod.o)
 .data          0x4005d07c        0x0 /opt/rtems-4.8/sparc-rtems/leon2/lib/librtemscpu.a(libscore_a-coretodget.o)
 .data          0x4005d07c        0x0 /opt/rtems-4.8/sparc-rtems/leon2/lib/librtemscpu.a(libscore_a-coretodgetuptime.o)
 .data          0x4005d07c        0x0 /opt/rtems-4.8/sparc-rtems/leon2/lib/librtemscpu.a(libscore_a-coretodtickle.o)
 .data          0x4005d07c        0x0 /opt/rtems-4.8/sparc-rtems/leon2/lib/librtemscpu.a(libscore_a-heap.o)
 .data          0x4005d07c        0x0 /opt/rtems-4.8/sparc-rtems/leon2/lib/librtemscpu.a(libscore_a-heapallocate.o)
 .data          0x4005d07c        0x0 /opt/rtems-4.8/sparc-rtems/leon2/lib/librtemscpu.a(libscore_a-heapfree.o)
 .data          0x4005d07c        0x0 /opt/rtems-4.8/sparc-rtems/leon2/lib/librtemscpu.a(libscore_a-interr.o)
 .data          0x4005d07c        0x0 /opt/rtems-4.8/sparc-rtems/leon2/lib/librtemscpu.a(libscore_a-isr.o)
 .data          0x4005d07c        0x0 /opt/rtems-4.8/sparc-rtems/leon2/lib/librtemscpu.a(libscore_a-iterateoverthreads.o)
 .data          0x4005d07c        0x0 /opt/rtems-4.8/sparc-rtems/leon2/lib/librtemscpu.a(libscore_a-object.o)
 .data          0x4005d07c        0x0 /opt/rtems-4.8/sparc-rtems/leon2/lib/librtemscpu.a(libscore_a-objectallocate.o)
 .data          0x4005d07c        0x0 /opt/rtems-4.8/sparc-rtems/leon2/lib/librtemscpu.a(libscore_a-objectextendinformation.o)
 .data          0x4005d07c        0x0 /opt/rtems-4.8/sparc-rtems/leon2/lib/librtemscpu.a(libscore_a-objectfree.o)
 .data          0x4005d07c        0x0 /opt/rtems-4.8/sparc-rtems/leon2/lib/librtemscpu.a(libscore_a-objectget.o)
 .data          0x4005d07c        0x0 /opt/rtems-4.8/sparc-rtems/leon2/lib/librtemscpu.a(libscore_a-objectgetisr.o)
 .data          0x4005d07c        0x0 /opt/rtems-4.8/sparc-rtems/leon2/lib/librtemscpu.a(libscore_a-objectgetnameasstring.o)
 .data          0x4005d07c        0x0 /opt/rtems-4.8/sparc-rtems/leon2/lib/librtemscpu.a(libscore_a-objectinitializeinformation.o)
 .data          0x4005d07c        0x0 /opt/rtems-4.8/sparc-rtems/leon2/lib/librtemscpu.a(libscore_a-objectnametoid.o)
 .data          0x4005d07c        0x0 /opt/rtems-4.8/sparc-rtems/leon2/lib/librtemscpu.a(libscore_a-objectshrinkinformation.o)
 .data          0x4005d07c        0x0 /opt/rtems-4.8/sparc-rtems/leon2/lib/librtemscpu.a(libscore_a-pheapallocate.o)
 .data          0x4005d07c        0x0 /opt/rtems-4.8/sparc-rtems/leon2/lib/librtemscpu.a(libscore_a-pheapextend.o)
 .data          0x4005d07c        0x0 /opt/rtems-4.8/sparc-rtems/leon2/lib/librtemscpu.a(libscore_a-pheapfree.o)
 .data          0x4005d07c        0x0 /opt/rtems-4.8/sparc-rtems/leon2/lib/librtemscpu.a(libscore_a-pheapgetblocksize.o)
 .data          0x4005d07c        0x0 /opt/rtems-4.8/sparc-rtems/leon2/lib/librtemscpu.a(libscore_a-pheapresizeblock.o)
 .data          0x4005d07c        0x0 /opt/rtems-4.8/sparc-rtems/leon2/lib/librtemscpu.a(libscore_a-thread.o)
 .data          0x4005d07c        0x0 /opt/rtems-4.8/sparc-rtems/leon2/lib/librtemscpu.a(libscore_a-threadchangepriority.o)
 .data          0x4005d07c        0x0 /opt/rtems-4.8/sparc-rtems/leon2/lib/librtemscpu.a(libscore_a-threadclearstate.o)
 .data          0x4005d07c        0x0 /opt/rtems-4.8/sparc-rtems/leon2/lib/librtemscpu.a(libscore_a-threadclose.o)
 .data          0x4005d07c        0x4 /opt/rtems-4.8/sparc-rtems/leon2/lib/librtemscpu.a(libscore_a-threadcreateidle.o)
                0x4005d07c                _Thread_Idle_name
 .data          0x4005d080        0x0 /opt/rtems-4.8/sparc-rtems/leon2/lib/librtemscpu.a(libscore_a-threaddelayended.o)
 .data          0x4005d080        0x0 /opt/rtems-4.8/sparc-rtems/leon2/lib/librtemscpu.a(libscore_a-threaddispatch.o)
 .data          0x4005d080        0x0 /opt/rtems-4.8/sparc-rtems/leon2/lib/librtemscpu.a(libscore_a-threadidlebody.o)
 .data          0x4005d080        0x0 /opt/rtems-4.8/sparc-rtems/leon2/lib/librtemscpu.a(libscore_a-threadinitialize.o)
 .data          0x4005d080        0x0 /opt/rtems-4.8/sparc-rtems/leon2/lib/librtemscpu.a(libscore_a-threadq.o)
 .data          0x4005d080        0x0 /opt/rtems-4.8/sparc-rtems/leon2/lib/librtemscpu.a(libscore_a-threadqdequeue.o)
 .data          0x4005d080        0x0 /opt/rtems-4.8/sparc-rtems/leon2/lib/librtemscpu.a(libscore_a-threadqdequeuefifo.o)
 .data          0x4005d080        0x0 /opt/rtems-4.8/sparc-rtems/leon2/lib/librtemscpu.a(libscore_a-threadqdequeuepriority.o)
 .data          0x4005d080        0x0 /opt/rtems-4.8/sparc-rtems/leon2/lib/librtemscpu.a(libscore_a-threadqenqueue.o)
 .data          0x4005d080        0x0 /opt/rtems-4.8/sparc-rtems/leon2/lib/librtemscpu.a(libscore_a-threadqenqueuefifo.o)
 .data          0x4005d080        0x0 /opt/rtems-4.8/sparc-rtems/leon2/lib/librtemscpu.a(libscore_a-threadqenqueuepriority.o)
 .data          0x4005d080        0x0 /opt/rtems-4.8/sparc-rtems/leon2/lib/librtemscpu.a(libscore_a-threadqextractwithproxy.o)
 .data          0x4005d080        0x0 /opt/rtems-4.8/sparc-rtems/leon2/lib/librtemscpu.a(libscore_a-threadqflush.o)
 .data          0x4005d080        0x0 /opt/rtems-4.8/sparc-rtems/leon2/lib/librtemscpu.a(libscore_a-threadqrequeue.o)
 .data          0x4005d080        0x0 /opt/rtems-4.8/sparc-rtems/leon2/lib/librtemscpu.a(libscore_a-threadqtimeout.o)
 .data          0x4005d080        0x0 /opt/rtems-4.8/sparc-rtems/leon2/lib/librtemscpu.a(libscore_a-threadresume.o)
 .data          0x4005d080        0x0 /opt/rtems-4.8/sparc-rtems/leon2/lib/librtemscpu.a(libscore_a-threadsetpriority.o)
 .data          0x4005d080        0x0 /opt/rtems-4.8/sparc-rtems/leon2/lib/librtemscpu.a(libscore_a-threadsetstate.o)
 .data          0x4005d080        0x0 /opt/rtems-4.8/sparc-rtems/leon2/lib/librtemscpu.a(libscore_a-threadsettransient.o)
 .data          0x4005d080        0x0 /opt/rtems-4.8/sparc-rtems/leon2/lib/librtemscpu.a(libscore_a-threadstackallocate.o)
 .data          0x4005d080        0x0 /opt/rtems-4.8/sparc-rtems/leon2/lib/librtemscpu.a(libscore_a-threadstackfree.o)
 .data          0x4005d080        0x0 /opt/rtems-4.8/sparc-rtems/leon2/lib/librtemscpu.a(libscore_a-threadstart.o)
 .data          0x4005d080        0x0 /opt/rtems-4.8/sparc-rtems/leon2/lib/librtemscpu.a(libscore_a-threadstartmultitasking.o)
 .data          0x4005d080        0x0 /opt/rtems-4.8/sparc-rtems/leon2/lib/librtemscpu.a(libscore_a-threadsuspend.o)
 .data          0x4005d080        0x0 /opt/rtems-4.8/sparc-rtems/leon2/lib/librtemscpu.a(libscore_a-threadtickletimeslice.o)
 .data          0x4005d080        0x0 /opt/rtems-4.8/sparc-rtems/leon2/lib/librtemscpu.a(libscore_a-threadyieldprocessor.o)
 .data          0x4005d080        0x0 /opt/rtems-4.8/sparc-rtems/leon2/lib/librtemscpu.a(libscore_a-timespecaddto.o)
 .data          0x4005d080        0x0 /opt/rtems-4.8/sparc-rtems/leon2/lib/librtemscpu.a(libscore_a-timespecgreaterthan.o)
 .data          0x4005d080        0x0 /opt/rtems-4.8/sparc-rtems/leon2/lib/librtemscpu.a(libscore_a-timespeclessthan.o)
 .data          0x4005d080        0x0 /opt/rtems-4.8/sparc-rtems/leon2/lib/librtemscpu.a(libscore_a-timespecsubtract.o)
 .data          0x4005d080        0x0 /opt/rtems-4.8/sparc-rtems/leon2/lib/librtemscpu.a(libscore_a-userext.o)
 .data          0x4005d080        0x0 /opt/rtems-4.8/sparc-rtems/leon2/lib/librtemscpu.a(libscore_a-userextaddset.o)
 .data          0x4005d080        0x0 /opt/rtems-4.8/sparc-rtems/leon2/lib/librtemscpu.a(libscore_a-userextthreadbegin.o)
 .data          0x4005d080        0x0 /opt/rtems-4.8/sparc-rtems/leon2/lib/librtemscpu.a(libscore_a-userextthreadcreate.o)
 .data          0x4005d080        0x0 /opt/rtems-4.8/sparc-rtems/leon2/lib/librtemscpu.a(libscore_a-userextthreaddelete.o)
 .data          0x4005d080        0x0 /opt/rtems-4.8/sparc-rtems/leon2/lib/librtemscpu.a(libscore_a-userextthreadstart.o)
 .data          0x4005d080        0x0 /opt/rtems-4.8/sparc-rtems/leon2/lib/librtemscpu.a(libscore_a-userextthreadswitch.o)
 .data          0x4005d080        0x0 /opt/rtems-4.8/sparc-rtems/leon2/lib/librtemscpu.a(libscore_a-watchdog.o)
 .data          0x4005d080        0x0 /opt/rtems-4.8/sparc-rtems/leon2/lib/librtemscpu.a(libscore_a-watchdoginsert.o)
 .data          0x4005d080        0x0 /opt/rtems-4.8/sparc-rtems/leon2/lib/librtemscpu.a(libscore_a-watchdogremove.o)
 .data          0x4005d080        0x0 /opt/rtems-4.8/sparc-rtems/leon2/lib/librtemscpu.a(libscore_a-watchdogtickle.o)
 .data          0x4005d080        0x0 /opt/rtems-4.8/sparc-rtems/leon2/lib/librtemscpu.a(libscore_a-wkspace.o)
 .data          0x4005d080        0x0 /opt/rtems-4.8/sparc-rtems/leon2/lib/librtemscpu.a(libscorecpu_a-cpu.o)
 .data          0x4005d080        0x0 /opt/rtems-4.8/sparc-rtems/leon2/lib/librtemscpu.a(libscorecpu_a-cpu_asm.o)
 .data          0x4005d080       0x40 /opt/rtems-4.8/sparc-rtems/leon2/lib/librtemscpu.a(miniimfs_init.o)
                0x4005d080                miniIMFS_ops
 .data          0x4005d0c0        0x0 /opt/rtems-4.8/sparc-rtems/leon2/lib/librtemscpu.a(imfs_eval.o)
 .data          0x4005d0c0       0x10 /opt/rtems-4.8/sparc-rtems/leon2/lib/librtemscpu.a(imfs_getchild.o)
 .data          0x4005d0d0        0x0 /opt/rtems-4.8/sparc-rtems/leon2/lib/librtemscpu.a(imfs_gtkn.o)
 .data          0x4005d0d0       0x38 /opt/rtems-4.8/sparc-rtems/leon2/lib/librtemscpu.a(imfs_handlers_device.o)
                0x4005d0d0                IMFS_device_handlers
 .data          0x4005d108       0x38 /opt/rtems-4.8/sparc-rtems/leon2/lib/librtemscpu.a(imfs_handlers_link.o)
                0x4005d108                IMFS_link_handlers
 .data          0x4005d140        0x0 /opt/rtems-4.8/sparc-rtems/leon2/lib/librtemscpu.a(imfs_initsupp.o)
 .data          0x4005d140        0x0 /opt/rtems-4.8/sparc-rtems/leon2/lib/librtemscpu.a(imfs_mknod.o)
 .data          0x4005d140        0x0 /opt/rtems-4.8/sparc-rtems/leon2/lib/librtemscpu.a(imfs_ntype.o)
 .data          0x4005d140        0x0 /opt/rtems-4.8/sparc-rtems/leon2/lib/librtemscpu.a(imfs_rmnod.o)
 .data          0x4005d140        0x0 /opt/rtems-4.8/sparc-rtems/leon2/lib/librtemscpu.a(imfs_stat.o)
 .data          0x4005d140        0x0 /opt/rtems-4.8/sparc-rtems/leon2/lib/librtemscpu.a(libc_a-inet_ntoa.o)
 .data          0x4005d140        0x0 /opt/rtems-4.8/sparc-rtems/leon2/lib/librtemscpu.a(libc_a-inet_ntop.o)
 .data          0x4005d140        0x0 /opt/rtems-4.8/sparc-rtems/leon2/lib/librtemscpu.a(libcsupport_a-__gettod.o)
 .data          0x4005d140        0x0 /opt/rtems-4.8/sparc-rtems/leon2/lib/librtemscpu.a(libcsupport_a-assoclocalbyremote.o)
 .data          0x4005d140        0x0 /opt/rtems-4.8/sparc-rtems/leon2/lib/librtemscpu.a(libcsupport_a-assoclocalbyremotebitfield.o)
 .data          0x4005d140        0x0 /opt/rtems-4.8/sparc-rtems/leon2/lib/librtemscpu.a(libcsupport_a-assocptrbyremote.o)
 .data          0x4005d140        0x4 /opt/rtems-4.8/sparc-rtems/leon2/lib/librtemscpu.a(libcsupport_a-base_fs.o)
                0x4005d140                rtems_current_user_env
 .data          0x4005d144      0x168 /opt/rtems-4.8/sparc-rtems/leon2/lib/librtemscpu.a(libcsupport_a-error.o)
                0x4005d144                rtems_status_assoc
 .data          0x4005d2ac        0x0 /opt/rtems-4.8/sparc-rtems/leon2/lib/librtemscpu.a(libcsupport_a-fs_null_handlers.o)
 .data          0x4005d2ac        0x0 /opt/rtems-4.8/sparc-rtems/leon2/lib/librtemscpu.a(libcsupport_a-getegid.o)
 .data          0x4005d2ac        0x0 /opt/rtems-4.8/sparc-rtems/leon2/lib/librtemscpu.a(libcsupport_a-geteuid.o)
 .data          0x4005d2ac        0x0 /opt/rtems-4.8/sparc-rtems/leon2/lib/librtemscpu.a(libcsupport_a-ioctl.o)
 .data          0x4005d2ac        0x0 /opt/rtems-4.8/sparc-rtems/leon2/lib/librtemscpu.a(libcsupport_a-libio_sockets.o)
 .data          0x4005d2ac        0x0 /opt/rtems-4.8/sparc-rtems/leon2/lib/librtemscpu.a(libcsupport_a-mount.o)
 .data          0x4005d2ac        0x0 /opt/rtems-4.8/sparc-rtems/leon2/lib/librtemscpu.a(libcsupport_a-newlibc_exit.o)
 .data          0x4005d2ac        0x0 /opt/rtems-4.8/sparc-rtems/leon2/lib/librtemscpu.a(libcsupport_a-open.o)
 .data          0x4005d2ac      0x1a4 /opt/rtems-4.8/sparc-rtems/leon2/lib/librtemscpu.a(libnetworking_a-if_ether.o)
                0x4005d2ac                arpintrq
 .data          0x4005d450       0x2c /opt/rtems-4.8/sparc-rtems/leon2/lib/librtemscpu.a(libnetworking_a-in.o)
 .data          0x4005d47c        0x0 /opt/rtems-4.8/sparc-rtems/leon2/lib/librtemscpu.a(libnetworking_a-in_cksum.o)
 .data          0x4005d47c      0x14c /opt/rtems-4.8/sparc-rtems/leon2/lib/librtemscpu.a(libnetworking_a-in_pcb.o)
 .data          0x4005d5c8      0x308 /opt/rtems-4.8/sparc-rtems/leon2/lib/librtemscpu.a(libnetworking_a-in_proto.o)
                0x4005d5c8                inetsw
                0x4005d79c                inetdomain
 .data          0x4005d8d0       0x90 /opt/rtems-4.8/sparc-rtems/leon2/lib/librtemscpu.a(libnetworking_a-in_rmx.o)
 .data          0x4005d960       0xe8 /opt/rtems-4.8/sparc-rtems/leon2/lib/librtemscpu.a(libnetworking_a-ip_icmp.o)
 .data          0x4005da48        0x0 /opt/rtems-4.8/sparc-rtems/leon2/lib/librtemscpu.a(libnetworking_a-kern_subr.o)
 .data          0x4005da48        0x0 /opt/rtems-4.8/sparc-rtems/leon2/lib/librtemscpu.a(libnetworking_a-raw_usrreq.o)
 .data          0x4005da48        0x0 /opt/rtems-4.8/sparc-rtems/leon2/lib/librtemscpu.a(libnetworking_a-rtems_bsdnet_malloc_starvation.o)
 .data          0x4005da48       0x58 /opt/rtems-4.8/sparc-rtems/leon2/lib/librtemscpu.a(libnetworking_a-tcp_input.o)
 .data          0x4005daa0        0x0 /opt/rtems-4.8/sparc-rtems/leon2/lib/librtemscpu.a(libnetworking_a-tcp_output.o)
 .data          0x4005daa0       0x5c /opt/rtems-4.8/sparc-rtems/leon2/lib/librtemscpu.a(libnetworking_a-tcp_subr.o)
                0x4005daa0                tcp_mssdflt
 .data          0x4005dafc       0xf0 /opt/rtems-4.8/sparc-rtems/leon2/lib/librtemscpu.a(libnetworking_a-tcp_timer.o)
                0x4005dafc                tcp_keepinit
                0x4005db00                tcp_keepidle
                0x4005db04                tcp_backoff
 .data          0x4005dbec       0xa4 /opt/rtems-4.8/sparc-rtems/leon2/lib/librtemscpu.a(libnetworking_a-tcp_usrreq.o)
                0x4005dbec                tcp_usrreqs
                0x4005dc30                tcp_sendspace
                0x4005dc34                tcp_recvspace
 .data          0x4005dc90      0x124 /opt/rtems-4.8/sparc-rtems/leon2/lib/librtemscpu.a(libnetworking_a-udp_usrreq.o)
 .data          0x4005ddb4        0x0 /opt/rtems-4.8/sparc-rtems/leon2/lib/librtemscpu.a(libposix_a-cond.o)
 .data          0x4005ddb4        0x0 /opt/rtems-4.8/sparc-rtems/leon2/lib/librtemscpu.a(libposix_a-key.o)
 .data          0x4005ddb4        0x0 /opt/rtems-4.8/sparc-rtems/leon2/lib/librtemscpu.a(libposix_a-mqueue.o)
 .data          0x4005ddb4        0x0 /opt/rtems-4.8/sparc-rtems/leon2/lib/librtemscpu.a(libposix_a-mutex.o)
 .data          0x4005ddb4        0x0 /opt/rtems-4.8/sparc-rtems/leon2/lib/librtemscpu.a(libposix_a-pbarrier.o)
 .data          0x4005ddb4        0x0 /opt/rtems-4.8/sparc-rtems/leon2/lib/librtemscpu.a(libposix_a-prwlock.o)
 .data          0x4005ddb4      0x180 /opt/rtems-4.8/sparc-rtems/leon2/lib/librtemscpu.a(libposix_a-psignal.o)
                0x4005ddb4                _POSIX_signals_Default_vectors
 .data          0x4005df34        0x0 /opt/rtems-4.8/sparc-rtems/leon2/lib/librtemscpu.a(libposix_a-psignalchecksignal.o)
 .data          0x4005df34        0x0 /opt/rtems-4.8/sparc-rtems/leon2/lib/librtemscpu.a(libposix_a-psignalclearsignals.o)
 .data          0x4005df34        0x0 /opt/rtems-4.8/sparc-rtems/leon2/lib/librtemscpu.a(libposix_a-pspin.o)
 .data          0x4005df34       0x48 /opt/rtems-4.8/sparc-rtems/leon2/lib/librtemscpu.a(libposix_a-pthread.o)
                0x4005df48                _POSIX_Threads_User_extensions
                0x4005df34                _POSIX_Threads_API_extensions
 .data          0x4005df7c        0x0 /opt/rtems-4.8/sparc-rtems/leon2/lib/librtemscpu.a(libposix_a-pthreadexit.o)
 .data          0x4005df7c        0x0 /opt/rtems-4.8/sparc-rtems/leon2/lib/librtemscpu.a(libposix_a-ptimer.o)
 .data          0x4005df7c        0x0 /opt/rtems-4.8/sparc-rtems/leon2/lib/librtemscpu.a(libposix_a-semaphore.o)
 .data          0x4005df7c        0x0 /opt/rtems-4.8/sparc-rtems/leon2/lib/librtemscpu.a(libposix_a-sigemptyset.o)
 .data          0x4005df7c        0x0 /opt/rtems-4.8/sparc-rtems/leon2/lib/librtemscpu.a(librtems_a-barrier.o)
 .data          0x4005df7c        0x0 /opt/rtems-4.8/sparc-rtems/leon2/lib/librtemscpu.a(librtems_a-barrierdata.o)
 .data          0x4005df7c        0x0 /opt/rtems-4.8/sparc-rtems/leon2/lib/librtemscpu.a(librtems_a-dpmem.o)
 .data          0x4005df7c        0x0 /opt/rtems-4.8/sparc-rtems/leon2/lib/librtemscpu.a(librtems_a-dpmemdata.o)
 .data          0x4005df7c        0x0 /opt/rtems-4.8/sparc-rtems/leon2/lib/librtemscpu.a(librtems_a-event.o)
 .data          0x4005df7c        0x0 /opt/rtems-4.8/sparc-rtems/leon2/lib/librtemscpu.a(librtems_a-eventdata.o)
 .data          0x4005df7c        0x0 /opt/rtems-4.8/sparc-rtems/leon2/lib/librtemscpu.a(librtems_a-intr.o)
 .data          0x4005df7c        0x0 /opt/rtems-4.8/sparc-rtems/leon2/lib/librtemscpu.a(librtems_a-msg.o)
 .data          0x4005df7c        0x0 /opt/rtems-4.8/sparc-rtems/leon2/lib/librtemscpu.a(librtems_a-msgdata.o)
 .data          0x4005df7c        0x0 /opt/rtems-4.8/sparc-rtems/leon2/lib/librtemscpu.a(librtems_a-part.o)
 .data          0x4005df7c        0x0 /opt/rtems-4.8/sparc-rtems/leon2/lib/librtemscpu.a(librtems_a-partdata.o)
 .data          0x4005df7c        0x0 /opt/rtems-4.8/sparc-rtems/leon2/lib/librtemscpu.a(librtems_a-ratemon.o)
 .data          0x4005df7c        0x0 /opt/rtems-4.8/sparc-rtems/leon2/lib/librtemscpu.a(librtems_a-region.o)
 .data          0x4005df7c        0x0 /opt/rtems-4.8/sparc-rtems/leon2/lib/librtemscpu.a(librtems_a-regiondata.o)
 .data          0x4005df7c        0x0 /opt/rtems-4.8/sparc-rtems/leon2/lib/librtemscpu.a(librtems_a-rtemstimer.o)
 .data          0x4005df7c        0x0 /opt/rtems-4.8/sparc-rtems/leon2/lib/librtemscpu.a(librtems_a-rtemstimerdata.o)
 .data          0x4005df7c        0x0 /opt/rtems-4.8/sparc-rtems/leon2/lib/librtemscpu.a(librtems_a-sem.o)
 .data          0x4005df7c        0x0 /opt/rtems-4.8/sparc-rtems/leon2/lib/librtemscpu.a(librtems_a-signal.o)
 .data          0x4005df7c       0x48 /opt/rtems-4.8/sparc-rtems/leon2/lib/librtemscpu.a(librtems_a-tasks.o)
                0x4005df90                _RTEMS_tasks_User_extensions
                0x4005df7c                _RTEMS_tasks_API_extensions
 .data          0x4005dfc4        0x0 /opt/rtems-4.8/sparc-rtems/leon2/lib/librtemscpu.a(libsapi_a-debug.o)
 .data          0x4005dfc4        0x0 /opt/rtems-4.8/sparc-rtems/leon2/lib/librtemscpu.a(libsapi_a-exshutdown.o)
 .data          0x4005dfc4        0x0 /opt/rtems-4.8/sparc-rtems/leon2/lib/librtemscpu.a(libscore_a-chain.o)
 .data          0x4005dfc4        0x0 /opt/rtems-4.8/sparc-rtems/leon2/lib/librtemscpu.a(libscore_a-chainextract.o)
 .data          0x4005dfc4        0x0 /opt/rtems-4.8/sparc-rtems/leon2/lib/librtemscpu.a(libscore_a-heapextend.o)
 .data          0x4005dfc4        0x0 /opt/rtems-4.8/sparc-rtems/leon2/lib/librtemscpu.a(libscore_a-heapresizeblock.o)
 .data          0x4005dfc4        0x0 /opt/rtems-4.8/sparc-rtems/leon2/lib/librtemscpu.a(libscore_a-heapsizeofuserarea.o)
 .data          0x4005dfc4        0x0 /opt/rtems-4.8/sparc-rtems/leon2/lib/librtemscpu.a(libscore_a-objectcomparenameraw.o)
 .data          0x4005dfc4        0x0 /opt/rtems-4.8/sparc-rtems/leon2/lib/librtemscpu.a(libscore_a-objectcomparenamestring.o)
 .data          0x4005dfc4        0x0 /opt/rtems-4.8/sparc-rtems/leon2/lib/librtemscpu.a(libscore_a-threadloadenv.o)
 .data          0x4005dfc4        0x0 /opt/rtems-4.8/sparc-rtems/leon2/lib/librtemscpu.a(libscore_a-threadqextract.o)
 .data          0x4005dfc4        0x0 /opt/rtems-4.8/sparc-rtems/leon2/lib/librtemscpu.a(libscore_a-threadqextractfifo.o)
 .data          0x4005dfc4        0x0 /opt/rtems-4.8/sparc-rtems/leon2/lib/librtemscpu.a(libscore_a-threadqextractpriority.o)
 .data          0x4005dfc4        0x0 /opt/rtems-4.8/sparc-rtems/leon2/lib/librtemscpu.a(libscore_a-threadready.o)
 .data          0x4005dfc4        0x0 /opt/rtems-4.8/sparc-rtems/leon2/lib/librtemscpu.a(libscore_a-threadresettimeslice.o)
 .data          0x4005dfc4        0x0 /opt/rtems-4.8/sparc-rtems/leon2/lib/librtemscpu.a(libscore_a-timespectoticks.o)
 .data          0x4005dfc4        0x0 /opt/rtems-4.8/sparc-rtems/leon2/lib/librtemscpu.a(libscore_a-userextaddapiset.o)
 .data          0x4005dfc4       0x84 /opt/rtems-4.8/sparc-rtems/leon2/lib/librtemscpu.a(deviceio.o)
                0x4005dfc4                errno_assoc
 .data          0x4005e048       0x30 /opt/rtems-4.8/sparc-rtems/leon2/lib/librtemscpu.a(imfs_config.o)
                0x4005e048                IMFS_LIMITS_AND_OPTIONS
 .data          0x4005e078        0x0 /opt/rtems-4.8/sparc-rtems/leon2/lib/librtemscpu.a(imfs_creat.o)
 .data          0x4005e078        0x0 /opt/rtems-4.8/sparc-rtems/leon2/lib/librtemscpu.a(imfs_fchmod.o)
 .data          0x4005e078        0x0 /opt/rtems-4.8/sparc-rtems/leon2/lib/librtemscpu.a(libcsupport_a-assocnamebylocal.o)
 .data          0x4005e078        0x0 /opt/rtems-4.8/sparc-rtems/leon2/lib/librtemscpu.a(libcsupport_a-assocptrbylocal.o)
 .data          0x4005e078        0x0 /opt/rtems-4.8/sparc-rtems/leon2/lib/librtemscpu.a(libcsupport_a-assocremotebylocal.o)
 .data          0x4005e078        0x0 /opt/rtems-4.8/sparc-rtems/leon2/lib/librtemscpu.a(libcsupport_a-ftruncate.o)
 .data          0x4005e078       0x2c /opt/rtems-4.8/sparc-rtems/leon2/lib/librtemscpu.a(libnetworking_a-igmp.o)
 .data          0x4005e0a4        0x0 /opt/rtems-4.8/sparc-rtems/leon2/lib/librtemscpu.a(libnetworking_a-raw_cb.o)
 .data          0x4005e0a4        0x0 /opt/rtems-4.8/sparc-rtems/leon2/lib/librtemscpu.a(libposix_a-keyrundestructors.o)
 .data          0x4005e0a4        0x0 /opt/rtems-4.8/sparc-rtems/leon2/lib/librtemscpu.a(libposix_a-psignalclearprocesssignals.o)
 .data          0x4005e0a4        0x0 /opt/rtems-4.8/sparc-rtems/leon2/lib/librtemscpu.a(librtems_a-taskmode.o)
 .data          0x4005e0a4        0x0 /opt/rtems-4.8/sparc-rtems/leon2/lib/librtemscpu.a(libsapi_a-ioclose.o)
 .data          0x4005e0a4        0x0 /opt/rtems-4.8/sparc-rtems/leon2/lib/librtemscpu.a(libsapi_a-iocontrol.o)
 .data          0x4005e0a4        0x0 /opt/rtems-4.8/sparc-rtems/leon2/lib/librtemscpu.a(libsapi_a-ioopen.o)
 .data          0x4005e0a4        0x0 /opt/rtems-4.8/sparc-rtems/leon2/lib/librtemscpu.a(libsapi_a-ioread.o)
 .data          0x4005e0a4        0x0 /opt/rtems-4.8/sparc-rtems/leon2/lib/librtemscpu.a(libsapi_a-iowrite.o)
 .data          0x4005e0a4        0x0 /opt/rtems-4.8/sparc-rtems/leon2/lib/librtemscpu.a(libscore_a-threadevaluatemode.o)
 .data          0x4005e0a4        0x0 /opt/rtems-4.8/sparc-rtems/leon2/lib/librtemscpu.a(libscore_a-threadhandler.o)
 *fill*         0x4005e0a4        0x4 00
 .data          0x4005e0a8       0x20 /opt/rtems-4.8/sparc-rtems/leon2/lib/librtemscpu.a(libcsupport_a-assocnamebad.o)
 .data          0x4005e0c8        0x0 /opt/rtems-4.8-1.1.3/bin/../lib/gcc/sparc-rtems/4.2.4/../../../../sparc-rtems/lib/soft/libc.a(lib_a-abort.o)
 .data          0x4005e0c8        0x0 /opt/rtems-4.8-1.1.3/bin/../lib/gcc/sparc-rtems/4.2.4/../../../../sparc-rtems/lib/soft/libc.a(lib_a-atexit.o)
 .data          0x4005e0c8        0x0 /opt/rtems-4.8-1.1.3/bin/../lib/gcc/sparc-rtems/4.2.4/../../../../sparc-rtems/lib/soft/libc.a(lib_a-bcmp.o)
 .data          0x4005e0c8        0x4 /opt/rtems-4.8-1.1.3/bin/../lib/gcc/sparc-rtems/4.2.4/../../../../sparc-rtems/lib/soft/libc.a(lib_a-ctype_.o)
                0x4005e0c8                __ctype_ptr
 .data          0x4005e0cc        0x0 /opt/rtems-4.8-1.1.3/bin/../lib/gcc/sparc-rtems/4.2.4/../../../../sparc-rtems/lib/soft/libc.a(lib_a-errno.o)
 .data          0x4005e0cc        0x0 /opt/rtems-4.8-1.1.3/bin/../lib/gcc/sparc-rtems/4.2.4/../../../../sparc-rtems/lib/soft/libc.a(lib_a-exit.o)
 .data          0x4005e0cc        0x0 /opt/rtems-4.8-1.1.3/bin/../lib/gcc/sparc-rtems/4.2.4/../../../../sparc-rtems/lib/soft/libc.a(lib_a-fclose.o)
 .data          0x4005e0cc        0x0 /opt/rtems-4.8-1.1.3/bin/../lib/gcc/sparc-rtems/4.2.4/../../../../sparc-rtems/lib/soft/libc.a(lib_a-fflush.o)
 .data          0x4005e0cc        0x0 /opt/rtems-4.8-1.1.3/bin/../lib/gcc/sparc-rtems/4.2.4/../../../../sparc-rtems/lib/soft/libc.a(lib_a-fileno.o)
 .data          0x4005e0cc        0x0 /opt/rtems-4.8-1.1.3/bin/../lib/gcc/sparc-rtems/4.2.4/../../../../sparc-rtems/lib/soft/libc.a(lib_a-findfp.o)
 .data          0x4005e0cc        0x0 /opt/rtems-4.8-1.1.3/bin/../lib/gcc/sparc-rtems/4.2.4/../../../../sparc-rtems/lib/soft/libc.a(lib_a-fprintf.o)
 .data          0x4005e0cc        0x0 /opt/rtems-4.8-1.1.3/bin/../lib/gcc/sparc-rtems/4.2.4/../../../../sparc-rtems/lib/soft/libc.a(lib_a-fwalk.o)
 .data          0x4005e0cc        0x0 /opt/rtems-4.8-1.1.3/bin/../lib/gcc/sparc-rtems/4.2.4/../../../../sparc-rtems/lib/soft/libc.a(lib_a-gmtime_r.o)
 *fill*         0x4005e0cc        0x4 00
 .data          0x4005e0d0      0x408 /opt/rtems-4.8-1.1.3/bin/../lib/gcc/sparc-rtems/4.2.4/../../../../sparc-rtems/lib/soft/libc.a(lib_a-impure.o)
                0x4005e0d0                _impure_ptr
 .data          0x4005e4d8        0x0 /opt/rtems-4.8-1.1.3/bin/../lib/gcc/sparc-rtems/4.2.4/../../../../sparc-rtems/lib/soft/libc.a(lib_a-memcmp.o)
 .data          0x4005e4d8        0x0 /opt/rtems-4.8-1.1.3/bin/../lib/gcc/sparc-rtems/4.2.4/../../../../sparc-rtems/lib/soft/libc.a(lib_a-memcpy.o)
 .data          0x4005e4d8        0x0 /opt/rtems-4.8-1.1.3/bin/../lib/gcc/sparc-rtems/4.2.4/../../../../sparc-rtems/lib/soft/libc.a(lib_a-memset.o)
 .data          0x4005e4d8        0x0 /opt/rtems-4.8-1.1.3/bin/../lib/gcc/sparc-rtems/4.2.4/../../../../sparc-rtems/lib/soft/libc.a(lib_a-mktm_r.o)
 .data          0x4005e4d8        0x0 /opt/rtems-4.8-1.1.3/bin/../lib/gcc/sparc-rtems/4.2.4/../../../../sparc-rtems/lib/soft/libc.a(lib_a-printf.o)
 .data          0x4005e4d8        0x0 /opt/rtems-4.8-1.1.3/bin/../lib/gcc/sparc-rtems/4.2.4/../../../../sparc-rtems/lib/soft/libc.a(lib_a-putchar.o)
 .data          0x4005e4d8        0x0 /opt/rtems-4.8-1.1.3/bin/../lib/gcc/sparc-rtems/4.2.4/../../../../sparc-rtems/lib/soft/libc.a(lib_a-puts.o)
 .data          0x4005e4d8        0x0 /opt/rtems-4.8-1.1.3/bin/../lib/gcc/sparc-rtems/4.2.4/../../../../sparc-rtems/lib/soft/libc.a(lib_a-raise.o)
 .data          0x4005e4d8        0x0 /opt/rtems-4.8-1.1.3/bin/../lib/gcc/sparc-rtems/4.2.4/../../../../sparc-rtems/lib/soft/libc.a(lib_a-reent.o)
 .data          0x4005e4d8        0x0 /opt/rtems-4.8-1.1.3/bin/../lib/gcc/sparc-rtems/4.2.4/../../../../sparc-rtems/lib/soft/libc.a(lib_a-snprintf.o)
 .data          0x4005e4d8        0x0 /opt/rtems-4.8-1.1.3/bin/../lib/gcc/sparc-rtems/4.2.4/../../../../sparc-rtems/lib/soft/libc.a(lib_a-sprintf.o)
 .data          0x4005e4d8        0x0 /opt/rtems-4.8-1.1.3/bin/../lib/gcc/sparc-rtems/4.2.4/../../../../sparc-rtems/lib/soft/libc.a(lib_a-stdio.o)
 .data          0x4005e4d8        0x0 /opt/rtems-4.8-1.1.3/bin/../lib/gcc/sparc-rtems/4.2.4/../../../../sparc-rtems/lib/soft/libc.a(lib_a-strchr.o)
 .data          0x4005e4d8        0x0 /opt/rtems-4.8-1.1.3/bin/../lib/gcc/sparc-rtems/4.2.4/../../../../sparc-rtems/lib/soft/libc.a(lib_a-strcmp.o)
 .data          0x4005e4d8        0x0 /opt/rtems-4.8-1.1.3/bin/../lib/gcc/sparc-rtems/4.2.4/../../../../sparc-rtems/lib/soft/libc.a(lib_a-strcpy.o)
 .data          0x4005e4d8        0x0 /opt/rtems-4.8-1.1.3/bin/../lib/gcc/sparc-rtems/4.2.4/../../../../sparc-rtems/lib/soft/libc.a(lib_a-strdup.o)
 .data          0x4005e4d8        0x0 /opt/rtems-4.8-1.1.3/bin/../lib/gcc/sparc-rtems/4.2.4/../../../../sparc-rtems/lib/soft/libc.a(lib_a-strdup_r.o)
 .data          0x4005e4d8        0x0 /opt/rtems-4.8-1.1.3/bin/../lib/gcc/sparc-rtems/4.2.4/../../../../sparc-rtems/lib/soft/libc.a(lib_a-strerror.o)
 .data          0x4005e4d8        0x0 /opt/rtems-4.8-1.1.3/bin/../lib/gcc/sparc-rtems/4.2.4/../../../../sparc-rtems/lib/soft/libc.a(lib_a-strlcpy.o)
 .data          0x4005e4d8        0x0 /opt/rtems-4.8-1.1.3/bin/../lib/gcc/sparc-rtems/4.2.4/../../../../sparc-rtems/lib/soft/libc.a(lib_a-strlen.o)
 .data          0x4005e4d8        0x0 /opt/rtems-4.8-1.1.3/bin/../lib/gcc/sparc-rtems/4.2.4/../../../../sparc-rtems/lib/soft/libc.a(lib_a-strncmp.o)
 .data          0x4005e4d8        0x0 /opt/rtems-4.8-1.1.3/bin/../lib/gcc/sparc-rtems/4.2.4/../../../../sparc-rtems/lib/soft/libc.a(lib_a-strncpy.o)
 .data          0x4005e4d8        0x0 /opt/rtems-4.8-1.1.3/bin/../lib/gcc/sparc-rtems/4.2.4/../../../../sparc-rtems/lib/soft/libc.a(lib_a-tzlock.o)
 .data          0x4005e4d8        0x8 /opt/rtems-4.8-1.1.3/bin/../lib/gcc/sparc-rtems/4.2.4/../../../../sparc-rtems/lib/soft/libc.a(lib_a-tzvars.o)
                0x4005e4d8                _tzname
 .data          0x4005e4e0        0x0 /opt/rtems-4.8-1.1.3/bin/../lib/gcc/sparc-rtems/4.2.4/../../../../sparc-rtems/lib/soft/libc.a(lib_a-u_strerr.o)
 .data          0x4005e4e0        0x0 /opt/rtems-4.8-1.1.3/bin/../lib/gcc/sparc-rtems/4.2.4/../../../../sparc-rtems/lib/soft/libc.a(lib_a-vfprintf.o)
 .data          0x4005e4e0        0x0 /opt/rtems-4.8-1.1.3/bin/../lib/gcc/sparc-rtems/4.2.4/../../../../sparc-rtems/lib/soft/libc.a(lib_a-vprintf.o)
 .data          0x4005e4e0        0x0 /opt/rtems-4.8-1.1.3/bin/../lib/gcc/sparc-rtems/4.2.4/../../../../sparc-rtems/lib/soft/libc.a(lib_a-wcrtomb.o)
 .data          0x4005e4e0        0x0 /opt/rtems-4.8-1.1.3/bin/../lib/gcc/sparc-rtems/4.2.4/../../../../sparc-rtems/lib/soft/libc.a(lib_a-wcsrtombs.o)
 .data          0x4005e4e0        0x0 /opt/rtems-4.8-1.1.3/bin/../lib/gcc/sparc-rtems/4.2.4/../../../../sparc-rtems/lib/soft/libc.a(lib_a-wctomb_r.o)
 .data          0x4005e4e0        0x0 /opt/rtems-4.8-1.1.3/bin/../lib/gcc/sparc-rtems/4.2.4/../../../../sparc-rtems/lib/soft/libc.a(lib_a-wsetup.o)
 .data          0x4005e4e0        0x0 /opt/rtems-4.8-1.1.3/bin/../lib/gcc/sparc-rtems/4.2.4/../../../../sparc-rtems/lib/soft/libc.a(lib_a-__atexit.o)
 .data          0x4005e4e0        0x0 /opt/rtems-4.8-1.1.3/bin/../lib/gcc/sparc-rtems/4.2.4/../../../../sparc-rtems/lib/soft/libc.a(lib_a-__call_atexit.o)
 .data          0x4005e4e0        0x0 /opt/rtems-4.8-1.1.3/bin/../lib/gcc/sparc-rtems/4.2.4/../../../../sparc-rtems/lib/soft/libc.a(lib_a-dtoa.o)
 .data          0x4005e4e0        0x0 /opt/rtems-4.8-1.1.3/bin/../lib/gcc/sparc-rtems/4.2.4/../../../../sparc-rtems/lib/soft/libc.a(lib_a-fvwrite.o)
 .data          0x4005e4e0       0x40 /opt/rtems-4.8-1.1.3/bin/../lib/gcc/sparc-rtems/4.2.4/../../../../sparc-rtems/lib/soft/libc.a(lib_a-gettzinfo.o)
 .data          0x4005e520       0x18 /opt/rtems-4.8-1.1.3/bin/../lib/gcc/sparc-rtems/4.2.4/../../../../sparc-rtems/lib/soft/libc.a(lib_a-locale.o)
                0x4005e520                __mb_cur_max
                0x4005e528                __lc_ctype
 .data          0x4005e538        0x0 /opt/rtems-4.8-1.1.3/bin/../lib/gcc/sparc-rtems/4.2.4/../../../../sparc-rtems/lib/soft/libc.a(lib_a-makebuf.o)
 .data          0x4005e538        0x0 /opt/rtems-4.8-1.1.3/bin/../lib/gcc/sparc-rtems/4.2.4/../../../../sparc-rtems/lib/soft/libc.a(lib_a-memchr.o)
 .data          0x4005e538        0x0 /opt/rtems-4.8-1.1.3/bin/../lib/gcc/sparc-rtems/4.2.4/../../../../sparc-rtems/lib/soft/libc.a(lib_a-memmove.o)
 .data          0x4005e538        0x0 /opt/rtems-4.8-1.1.3/bin/../lib/gcc/sparc-rtems/4.2.4/../../../../sparc-rtems/lib/soft/libc.a(lib_a-mprec.o)
 .data          0x4005e538        0x0 /opt/rtems-4.8-1.1.3/bin/../lib/gcc/sparc-rtems/4.2.4/../../../../sparc-rtems/lib/soft/libc.a(lib_a-putc.o)
 .data          0x4005e538        0x0 /opt/rtems-4.8-1.1.3/bin/../lib/gcc/sparc-rtems/4.2.4/../../../../sparc-rtems/lib/soft/libc.a(lib_a-s_isinfd.o)
 .data          0x4005e538        0x0 /opt/rtems-4.8-1.1.3/bin/../lib/gcc/sparc-rtems/4.2.4/../../../../sparc-rtems/lib/soft/libc.a(lib_a-s_isnand.o)
 .data          0x4005e538        0x0 /opt/rtems-4.8-1.1.3/bin/../lib/gcc/sparc-rtems/4.2.4/../../../../sparc-rtems/lib/soft/libc.a(lib_a-wbuf.o)
 .data          0x4005e538        0x0 /opt/rtems-4.8-1.1.3/bin/../lib/gcc/sparc-rtems/4.2.4/soft/libgcc.a(_udivdi3.o)
 .data          0x4005e538        0x0 /opt/rtems-4.8-1.1.3/bin/../lib/gcc/sparc-rtems/4.2.4/soft/libgcc.a(_umoddi3.o)
 .data          0x4005e538        0x0 /opt/rtems-4.8-1.1.3/bin/../lib/gcc/sparc-rtems/4.2.4/soft/libgcc.a(_addsub_df.o)
 .data          0x4005e538        0x0 /opt/rtems-4.8-1.1.3/bin/../lib/gcc/sparc-rtems/4.2.4/soft/libgcc.a(_div_df.o)
 .data          0x4005e538        0x0 /opt/rtems-4.8-1.1.3/bin/../lib/gcc/sparc-rtems/4.2.4/soft/libgcc.a(_eq_df.o)
 .data          0x4005e538        0x0 /opt/rtems-4.8-1.1.3/bin/../lib/gcc/sparc-rtems/4.2.4/soft/libgcc.a(_ne_df.o)
 .data          0x4005e538        0x0 /opt/rtems-4.8-1.1.3/bin/../lib/gcc/sparc-rtems/4.2.4/soft/libgcc.a(_gt_df.o)
 .data          0x4005e538        0x0 /opt/rtems-4.8-1.1.3/bin/../lib/gcc/sparc-rtems/4.2.4/soft/libgcc.a(_ge_df.o)
 .data          0x4005e538        0x0 /opt/rtems-4.8-1.1.3/bin/../lib/gcc/sparc-rtems/4.2.4/soft/libgcc.a(_lt_df.o)
 .data          0x4005e538        0x0 /opt/rtems-4.8-1.1.3/bin/../lib/gcc/sparc-rtems/4.2.4/soft/libgcc.a(_si_to_df.o)
 .data          0x4005e538        0x0 /opt/rtems-4.8-1.1.3/bin/../lib/gcc/sparc-rtems/4.2.4/soft/libgcc.a(_df_to_si.o)
 .data          0x4005e538        0x0 /opt/rtems-4.8-1.1.3/bin/../lib/gcc/sparc-rtems/4.2.4/soft/libgcc.a(_fpcmp_parts_df.o)
 .data          0x4005e538        0x0 /opt/rtems-4.8/sparc-rtems/leon2/lib/librtemsbsp.a(cache.rel)
 .data          0x4005e538        0x0 /opt/rtems-4.8/sparc-rtems/leon2/lib/librtemsbsp.a(libsupport_a-version.o)
 .data          0x4005e538        0x0 /opt/rtems-4.8/sparc-rtems/leon2/lib/librtemscpu.a(libcsupport_a-fstat.o)
 .data          0x4005e538        0x0 /opt/rtems-4.8/sparc-rtems/leon2/lib/librtemscpu.a(libcsupport_a-getpid.o)
 .data          0x4005e538        0x0 /opt/rtems-4.8/sparc-rtems/leon2/lib/librtemscpu.a(libcsupport_a-isatty.o)
 .data          0x4005e538        0x0 /opt/rtems-4.8/sparc-rtems/leon2/lib/librtemscpu.a(libcsupport_a-lseek.o)
 .data          0x4005e538        0x0 /opt/rtems-4.8/sparc-rtems/leon2/lib/librtemscpu.a(libcsupport_a-read.o)
 .data          0x4005e538        0x0 /opt/rtems-4.8/sparc-rtems/leon2/lib/librtemscpu.a(libcsupport_a-write_r.o)
 .data          0x4005e538        0x0 /opt/rtems-4.8/sparc-rtems/leon2/lib/librtemscpu.a(libposix_a-kill.o)
 .data          0x4005e538        0x0 /opt/rtems-4.8/sparc-rtems/leon2/lib/librtemscpu.a(libposix_a-killinfo.o)
 .data          0x4005e538        0x0 /opt/rtems-4.8/sparc-rtems/leon2/lib/librtemscpu.a(libposix_a-psignalsetprocesssignals.o)
 .data          0x4005e538        0x0 /opt/rtems-4.8/sparc-rtems/leon2/lib/librtemscpu.a(libposix_a-psignalunblockthread.o)
 .data          0x4005e538        0x0 /opt/rtems-4.8/sparc-rtems/leon2/lib/librtemscpu.a(libposix_a-pthreadkill.o)
 .data          0x4005e538        0x0 /opt/rtems-4.8/sparc-rtems/leon2/lib/librtemscpu.a(libposix_a-pthreadself.o)
 .data          0x4005e538        0x0 /opt/rtems-4.8/sparc-rtems/leon2/lib/librtemscpu.a(libposix_a-types.o)
 .data          0x4005e538        0x0 /opt/rtems-4.8/sparc-rtems/leon2/lib/librtemscpu.a(libcsupport_a-write.o)
 .data          0x4005e538        0x4 /opt/rtems-4.8-1.1.3/bin/../lib/gcc/sparc-rtems/4.2.4/crtend.o
 .data          0x4005e53c        0x0 /opt/rtems-4.8-1.1.3/bin/../lib/gcc/sparc-rtems/4.2.4/crtn.o
 *(.gnu.linkonce.d*)
 *(.gcc_except_table*)
                0x4005e540                . = ALIGN (0x10)
 *fill*         0x4005e53c        0x4 00
                0x4005e540                edata = .
                0x4005e540                _edata = .

.dynamic
 *(.dynamic)

.jcr            0x4005e540        0x4
 *(.jcr)
 .jcr           0x4005e540        0x0 /opt/rtems-4.8-1.1.3/bin/../lib/gcc/sparc-rtems/4.2.4/crtbegin.o
 .jcr           0x4005e540        0x4 /opt/rtems-4.8-1.1.3/bin/../lib/gcc/sparc-rtems/4.2.4/crtend.o

.got
 *(.got)

.plt
 *(.plt)

.hash
 *(.hash)
 *(.hash)

.dynrel
 *(.dynrel)

.dynsym
 *(.dynsym)

.dynstr
 *(.dynstr)

.shbss
 *(.shbss)

.bss            0x4005e550     0x49c4
                0x4005e550                __bss_start = ALIGN (0x8)
                0x4005e550                _bss_start = .
                0x4005e550                bss_start = .
 *(.bss .bss* .gnu.linkonce.b*)
 .bss           0x4005e550        0x0 /opt/rtems-4.8/sparc-rtems/leon2/lib/start.o
 .bss           0x4005e550        0x0 /opt/rtems-4.8-1.1.3/bin/../lib/gcc/sparc-rtems/4.2.4/crti.o
 .bss           0x4005e550       0x1c /opt/rtems-4.8-1.1.3/bin/../lib/gcc/sparc-rtems/4.2.4/crtbegin.o
 *fill*         0x4005e56c        0x4 00
 .bss           0x4005e570      0x800 /home/aitor/workspace/rasta-sw/osal-repo/trunk/samples/misc/soclient.o
 .bss           0x4005ed70        0x8 libosal_rtems_rastaleon2.a(osapi.o)
                0x4005ed70                OS_TICKS_PER_SECOND
 .bss           0x4005ed78      0x310 libosal_rtems_rastaleon2.a(osmut.o)
 .bss           0x4005f088     0x1854 libosal_rtems_rastaleon2.a(ostask.o)
 .bss           0x400608dc       0x4c libosal_rtems_rastaleon2.a(rtems-config.o)
                0x400608e0                Configuration_POSIX_API
                0x400608dc                rtems_telnetd_maximum_ptys
                0x40060918                rastaio0_b1553brm_res
                0x40060914                _POSIX_Threads_Initialize_user_threads_p
                0x40060924                rtems_ram_workspace
 .bss           0x40060928        0x0 libosal_rtems_rastaleon2.a(osstats.o)
 .bss           0x40060928        0x0 /opt/libbackport/lib/libbackport_leon2-4.10-4.8.a(ambapp_bus_leon2.o)
 .bss           0x40060928        0x0 /opt/libbackport/lib/libbackport_leon2-4.10-4.8.a(ambapp_bus.o)
 .bss           0x40060928       0x50 /opt/libbackport/lib/libbackport_leon2-4.10-4.8.a(ambapp_names.o)
 .bss           0x40060978        0x8 /opt/libbackport/lib/libbackport_leon2-4.10-4.8.a(at697_pci.o)
                0x40060978                at697pcipriv
 .bss           0x40060980        0x8 /opt/libbackport/lib/libbackport_leon2-4.10-4.8.a(b1553brm.o)
 .bss           0x40060988        0x0 /opt/libbackport/lib/libbackport_leon2-4.10-4.8.a(drvmgr_drvinf.o)
 .bss           0x40060988        0x0 /opt/libbackport/lib/libbackport_leon2-4.10-4.8.a(drvmgr.o)
 .bss           0x40060988        0x0 /opt/libbackport/lib/libbackport_leon2-4.10-4.8.a(drvmgr_print.o)
 .bss           0x40060988        0x0 /opt/libbackport/lib/libbackport_leon2-4.10-4.8.a(drvmgr_res.o)
 .bss           0x40060988        0x8 /opt/libbackport/lib/libbackport_leon2-4.10-4.8.a(gr_701.o)
                0x4006098c                gr701_resources_cnt
                0x40060988                gr701_resources
 .bss           0x40060990        0x8 /opt/libbackport/lib/libbackport_leon2-4.10-4.8.a(grcan.o)
 .bss           0x40060998        0x8 /opt/libbackport/lib/libbackport_leon2-4.10-4.8.a(grpci.o)
                0x40060998                grpcipriv
 .bss           0x400609a0        0x8 /opt/libbackport/lib/libbackport_leon2-4.10-4.8.a(gr_rasta_adcdac.o)
                0x400609a4                gr_rasta_adcdac_resources_cnt
                0x400609a0                gr_rasta_adcdac_resources
 .bss           0x400609a8        0x8 /opt/libbackport/lib/libbackport_leon2-4.10-4.8.a(gr_rasta_io.o)
                0x400609a8                gr_rasta_io_resources
                0x400609ac                gr_rasta_io_resources_cnt
 .bss           0x400609b0        0x8 /opt/libbackport/lib/libbackport_leon2-4.10-4.8.a(gr_rasta_tmtc.o)
                0x400609b4                gr_rasta_tmtc_resources_cnt
                0x400609b0                gr_rasta_tmtc_resources
 .bss           0x400609b8        0xc /opt/libbackport/lib/libbackport_leon2-4.10-4.8.a(grspw.o)
                0x400609b8                grspw_timecode_callback
 .bss           0x400609c4        0xc /opt/libbackport/lib/libbackport_leon2-4.10-4.8.a(grtc.o)
 .bss           0x400609d0        0xc /opt/libbackport/lib/libbackport_leon2-4.10-4.8.a(grtm.o)
 .bss           0x400609dc        0x8 /opt/libbackport/lib/libbackport_leon2-4.10-4.8.a(leon2_amba_bus.o)
 .bss           0x400609e4        0x4 /opt/libbackport/lib/libbackport_leon2-4.10-4.8.a(network_interface_add.o)
                0x400609e4                network_interface_cnt
 .bss           0x400609e8        0x0 /opt/libbackport/lib/libbackport_leon2-4.10-4.8.a(pci_bus.o)
 .bss           0x400609e8        0x8 /opt/libbackport/lib/libbackport_leon2-4.10-4.8.a(pcif.o)
                0x400609e8                pcifpriv
 .bss           0x400609f0       0x34 /opt/libbackport/lib/libbackport_leon2-4.10-4.8.a(pci.o)
                0x40060a00                pci_res_memio
                0x400609f4                pci_inited
                0x400609f0                pci_bus_cnt
                0x40060a14                BSP_pci_mem_configuration
                0x400609f8                pci_dev_root
                0x400609fc                pci_res_io
                0x40060a04                pci_res_mem
                0x40060a08                BSP_pci_configuration
 .bss           0x40060a24        0x0 /opt/libbackport/lib/libbackport_leon2-4.10-4.8.a(ambapp_show.o)
 .bss           0x40060a24        0x0 /opt/libbackport/lib/libbackport_leon2-4.10-4.8.a(drvmgr_list.o)
 .bss           0x40060a24        0x0 /opt/rtems-4.8-1.1.3/bin/../lib/gcc/sparc-rtems/4.2.4/soft/libgcc.a(_mulsi3.o)
 .bss           0x40060a24        0x0 /opt/rtems-4.8-1.1.3/bin/../lib/gcc/sparc-rtems/4.2.4/soft/libgcc.a(_divsi3.o)
 .bss           0x40060a24        0x0 /opt/rtems-4.8-1.1.3/bin/../lib/gcc/sparc-rtems/4.2.4/soft/libgcc.a(_modsi3.o)
 .bss           0x40060a24        0x0 /opt/rtems-4.8-1.1.3/bin/../lib/gcc/sparc-rtems/4.2.4/soft/libgcc.a(_mul_df.o)
 .bss           0x40060a24        0x0 /opt/rtems-4.8-1.1.3/bin/../lib/gcc/sparc-rtems/4.2.4/soft/libgcc.a(_thenan_df.o)
 .bss           0x40060a24        0x0 /opt/rtems-4.8-1.1.3/bin/../lib/gcc/sparc-rtems/4.2.4/soft/libgcc.a(_usi_to_df.o)
 .bss           0x40060a24        0x0 /opt/rtems-4.8-1.1.3/bin/../lib/gcc/sparc-rtems/4.2.4/soft/libgcc.a(_muldi3.o)
 .bss           0x40060a24        0x0 /opt/rtems-4.8-1.1.3/bin/../lib/gcc/sparc-rtems/4.2.4/soft/libgcc.a(_clzsi2.o)
 .bss           0x40060a24        0x0 /opt/rtems-4.8-1.1.3/bin/../lib/gcc/sparc-rtems/4.2.4/soft/libgcc.a(_pack_df.o)
 .bss           0x40060a24        0x0 /opt/rtems-4.8-1.1.3/bin/../lib/gcc/sparc-rtems/4.2.4/soft/libgcc.a(_unpack_df.o)
 .bss           0x40060a24        0x0 /opt/rtems-4.8-1.1.3/bin/../lib/gcc/sparc-rtems/4.2.4/soft/libgcc.a(_clz.o)
 .bss           0x40060a24        0x0 /opt/rtems-4.8/sparc-rtems/leon2/lib/librtemsbsp.a(amba.rel)
 .bss           0x40060a24        0xc /opt/rtems-4.8/sparc-rtems/leon2/lib/librtemsbsp.a(clock.rel)
                0x40060a24                rtems_clock_minor
                0x40060a28                Old_ticker
                0x40060a2c                Clock_driver_ticks
 .bss           0x40060a30        0x4 /opt/rtems-4.8/sparc-rtems/leon2/lib/librtemsbsp.a(console.rel)
                0x40060a30                console_reserve_resources_removed
 .bss           0x40060a34        0x0 /opt/rtems-4.8/sparc-rtems/leon2/lib/librtemsbsp.a(leon_smc91111.rel)
 .bss           0x40060a34        0x0 /opt/rtems-4.8/sparc-rtems/leon2/lib/librtemsbsp.a(libnetchip_a-smc91111.o)
 .bss           0x40060a34        0x0 /opt/rtems-4.8/sparc-rtems/leon2/lib/librtemsbsp.a(reg_win.rel)
 .bss           0x40060a34       0xd0 /opt/rtems-4.8/sparc-rtems/leon2/lib/librtemsbsp.a(startup.rel)
                0x40060a34                Cpu_table
                0x40060a5c                BSP_Configuration
                0x40060a98                BSP_POSIX_Configuration
                0x40060b00                BSP_shared_interrupt_d
                0x40060acc                BSP_RTEMS_Configuration
                0x40060af8                bsp_isr_level
                0x40060afc                rtems_progname
                0x40060a94                CPU_SPARC_HAS_SNOOPING
 .bss           0x40060b04        0x0 /opt/rtems-4.8/sparc-rtems/leon2/lib/librtemsbsp.a(syscall.rel)
 .bss           0x40060b04        0xc /opt/rtems-4.8/sparc-rtems/leon2/lib/librtemscpu.a(check.o)
 .bss           0x40060b10        0x0 /opt/rtems-4.8/sparc-rtems/leon2/lib/librtemscpu.a(ioman.o)
 .bss           0x40060b10        0x0 /opt/rtems-4.8/sparc-rtems/leon2/lib/librtemscpu.a(libc_a-inet_addr.o)
 .bss           0x40060b10        0x0 /opt/rtems-4.8/sparc-rtems/leon2/lib/librtemscpu.a(libc_a-inet_pton.o)
 .bss           0x40060b10        0x0 /opt/rtems-4.8/sparc-rtems/leon2/lib/librtemscpu.a(libc_a-recv.o)
 .bss           0x40060b10        0x0 /opt/rtems-4.8/sparc-rtems/leon2/lib/librtemscpu.a(libc_a-send.o)
 .bss           0x40060b10        0x0 /opt/rtems-4.8/sparc-rtems/leon2/lib/librtemscpu.a(libcsupport_a-__assert.o)
 .bss           0x40060b10        0x0 /opt/rtems-4.8/sparc-rtems/leon2/lib/librtemscpu.a(libcsupport_a-close.o)
 .bss           0x40060b10        0x0 /opt/rtems-4.8/sparc-rtems/leon2/lib/librtemscpu.a(libcsupport_a-eval.o)
 .bss           0x40060b10        0x0 /opt/rtems-4.8/sparc-rtems/leon2/lib/librtemscpu.a(libcsupport_a-libio.o)
 .bss           0x40060b10        0x0 /opt/rtems-4.8/sparc-rtems/leon2/lib/librtemscpu.a(libcsupport_a-libio_init.o)
 .bss           0x40060b10        0x0 /opt/rtems-4.8/sparc-rtems/leon2/lib/librtemscpu.a(libcsupport_a-malloc.o)
 .bss           0x40060b10        0x0 /opt/rtems-4.8/sparc-rtems/leon2/lib/librtemscpu.a(libcsupport_a-mkdir.o)
 .bss           0x40060b10        0x0 /opt/rtems-4.8/sparc-rtems/leon2/lib/librtemscpu.a(libcsupport_a-mknod.o)
 .bss           0x40060b10        0x0 /opt/rtems-4.8/sparc-rtems/leon2/lib/librtemscpu.a(libcsupport_a-newlibc.o)
 .bss           0x40060b10        0x0 /opt/rtems-4.8/sparc-rtems/leon2/lib/librtemscpu.a(libcsupport_a-open_dev_console.o)
 .bss           0x40060b10        0x0 /opt/rtems-4.8/sparc-rtems/leon2/lib/librtemscpu.a(libcsupport_a-printk.o)
 .bss           0x40060b10        0x0 /opt/rtems-4.8/sparc-rtems/leon2/lib/librtemscpu.a(libcsupport_a-printk_plugin.o)
 .bss           0x40060b10      0x100 /opt/rtems-4.8/sparc-rtems/leon2/lib/librtemscpu.a(libcsupport_a-termios.o)
                0x40060b10                rtems_termios_linesw
 .bss           0x40060c10        0x0 /opt/rtems-4.8/sparc-rtems/leon2/lib/librtemscpu.a(libcsupport_a-termiosinitialize.o)
 .bss           0x40060c10        0x4 /opt/rtems-4.8/sparc-rtems/leon2/lib/librtemscpu.a(libnetworking_a-if.o)
                0x40060c10                if_index
 *fill*         0x40060c14        0x4 00
 .bss           0x40060c18       0x20 /opt/rtems-4.8/sparc-rtems/leon2/lib/librtemscpu.a(libnetworking_a-if_ethersubr.o)
 .bss           0x40060c38        0x0 /opt/rtems-4.8/sparc-rtems/leon2/lib/librtemscpu.a(libnetworking_a-if_loop.o)
 .bss           0x40060c38      0x764 /opt/rtems-4.8/sparc-rtems/leon2/lib/librtemscpu.a(libnetworking_a-ip_input.o)
                0x40060c38                rsvp_on
                0x40060c3c                ipforwarding
 .bss           0x4006139c        0xc /opt/rtems-4.8/sparc-rtems/leon2/lib/librtemscpu.a(libnetworking_a-ip_mroute.o)
                0x400613a4                legal_vif_num
                0x4006139c                ip_mrouter
                0x400613a0                rsvpdebug
 .bss           0x400613a8        0x0 /opt/rtems-4.8/sparc-rtems/leon2/lib/librtemscpu.a(libnetworking_a-ip_output.o)
 .bss           0x400613a8        0x0 /opt/rtems-4.8/sparc-rtems/leon2/lib/librtemscpu.a(libnetworking_a-kern_mib.o)
 .bss           0x400613a8        0x0 /opt/rtems-4.8/sparc-rtems/leon2/lib/librtemscpu.a(libnetworking_a-kern_sysctl.o)
 .bss           0x400613a8       0x1c /opt/rtems-4.8/sparc-rtems/leon2/lib/librtemscpu.a(libnetworking_a-radix.o)
 *fill*         0x400613c4        0x4 00
 .bss           0x400613c8       0x28 /opt/rtems-4.8/sparc-rtems/leon2/lib/librtemscpu.a(libnetworking_a-raw_ip.o)
 .bss           0x400613f0       0x10 /opt/rtems-4.8/sparc-rtems/leon2/lib/librtemscpu.a(libnetworking_a-route.o)
 .bss           0x40061400       0x50 /opt/rtems-4.8/sparc-rtems/leon2/lib/librtemscpu.a(libnetworking_a-rtems_glue.o)
                0x4006140c                rtems_bsdnet_bootp_boot_file_name
                0x40061420                rtems_bsdnet_ntpserver_count
                0x40061424                rtems_bsdnet_timeoffset
                0x4006141c                rtems_bsdnet_nameserver_count
                0x40061418                rtems_bsdnet_bootp_cmdline
                0x40061404                rtems_bsdnet_log_host_address
                0x40061410                rtems_bsdnet_bootp_server_name
                0x40061400                callfree
                0x40061414                rtems_bsdnet_domain_name
                0x40061408                rtems_bsdnet_bootp_server_address
 .bss           0x40061450        0x0 /opt/rtems-4.8/sparc-rtems/leon2/lib/librtemscpu.a(libnetworking_a-rtems_malloc_mbuf.o)
 .bss           0x40061450        0x0 /opt/rtems-4.8/sparc-rtems/leon2/lib/librtemscpu.a(libnetworking_a-rtems_showifstat.o)
 .bss           0x40061450        0x0 /opt/rtems-4.8/sparc-rtems/leon2/lib/librtemscpu.a(libnetworking_a-rtems_showroute.o)
 .bss           0x40061450        0x0 /opt/rtems-4.8/sparc-rtems/leon2/lib/librtemscpu.a(libnetworking_a-rtems_syscall.o)
 .bss           0x40061450        0x0 /opt/rtems-4.8/sparc-rtems/leon2/lib/librtemscpu.a(libnetworking_a-rtsock.o)
 .bss           0x40061450        0x4 /opt/rtems-4.8/sparc-rtems/leon2/lib/librtemscpu.a(libnetworking_a-sghostname.o)
 .bss           0x40061454        0x0 /opt/rtems-4.8/sparc-rtems/leon2/lib/librtemscpu.a(libnetworking_a-uipc_domain.o)
 .bss           0x40061454        0x8 /opt/rtems-4.8/sparc-rtems/leon2/lib/librtemscpu.a(libnetworking_a-uipc_mbuf.o)
 .bss           0x4006145c        0x0 /opt/rtems-4.8/sparc-rtems/leon2/lib/librtemscpu.a(libnetworking_a-uipc_socket.o)
 .bss           0x4006145c       0x10 /opt/rtems-4.8/sparc-rtems/leon2/lib/librtemscpu.a(libnetworking_a-uipc_socket2.o)
 .bss           0x4006146c        0x0 /opt/rtems-4.8/sparc-rtems/leon2/lib/librtemscpu.a(librtems_a-clockget.o)
 .bss           0x4006146c        0x0 /opt/rtems-4.8/sparc-rtems/leon2/lib/librtemscpu.a(librtems_a-clocksetnsecshandler.o)
 .bss           0x4006146c        0x0 /opt/rtems-4.8/sparc-rtems/leon2/lib/librtemscpu.a(librtems_a-clocktick.o)
 .bss           0x4006146c        0x0 /opt/rtems-4.8/sparc-rtems/leon2/lib/librtemscpu.a(librtems_a-eventreceive.o)
 .bss           0x4006146c        0x0 /opt/rtems-4.8/sparc-rtems/leon2/lib/librtemscpu.a(librtems_a-eventseize.o)
 .bss           0x4006146c        0x0 /opt/rtems-4.8/sparc-rtems/leon2/lib/librtemscpu.a(librtems_a-eventsend.o)
 .bss           0x4006146c        0x0 /opt/rtems-4.8/sparc-rtems/leon2/lib/librtemscpu.a(librtems_a-eventsurrender.o)
 .bss           0x4006146c        0x0 /opt/rtems-4.8/sparc-rtems/leon2/lib/librtemscpu.a(librtems_a-eventtimeout.o)
 .bss           0x4006146c        0x0 /opt/rtems-4.8/sparc-rtems/leon2/lib/librtemscpu.a(librtems_a-intrcatch.o)
 .bss           0x4006146c        0x0 /opt/rtems-4.8/sparc-rtems/leon2/lib/librtemscpu.a(librtems_a-ratemoncreate.o)
 .bss           0x4006146c        0x0 /opt/rtems-4.8/sparc-rtems/leon2/lib/librtemscpu.a(librtems_a-ratemondata.o)
 .bss           0x4006146c        0x0 /opt/rtems-4.8/sparc-rtems/leon2/lib/librtemscpu.a(librtems_a-ratemondelete.o)
 .bss           0x4006146c        0x0 /opt/rtems-4.8/sparc-rtems/leon2/lib/librtemscpu.a(librtems_a-ratemonperiod.o)
 .bss           0x4006146c        0x0 /opt/rtems-4.8/sparc-rtems/leon2/lib/librtemscpu.a(librtems_a-ratemontimeout.o)
 .bss           0x4006146c        0x0 /opt/rtems-4.8/sparc-rtems/leon2/lib/librtemscpu.a(librtems_a-rtemsobjectgetname.o)
 .bss           0x4006146c        0x0 /opt/rtems-4.8/sparc-rtems/leon2/lib/librtemscpu.a(librtems_a-semcreate.o)
 .bss           0x4006146c        0x0 /opt/rtems-4.8/sparc-rtems/leon2/lib/librtemscpu.a(librtems_a-semdata.o)
 .bss           0x4006146c        0x0 /opt/rtems-4.8/sparc-rtems/leon2/lib/librtemscpu.a(librtems_a-semdelete.o)
 .bss           0x4006146c        0x0 /opt/rtems-4.8/sparc-rtems/leon2/lib/librtemscpu.a(librtems_a-semflush.o)
 .bss           0x4006146c        0x0 /opt/rtems-4.8/sparc-rtems/leon2/lib/librtemscpu.a(librtems_a-semobtain.o)
 .bss           0x4006146c        0x0 /opt/rtems-4.8/sparc-rtems/leon2/lib/librtemscpu.a(librtems_a-semrelease.o)
 .bss           0x4006146c        0x0 /opt/rtems-4.8/sparc-rtems/leon2/lib/librtemscpu.a(librtems_a-semtranslatereturncode.o)
 .bss           0x4006146c        0x0 /opt/rtems-4.8/sparc-rtems/leon2/lib/librtemscpu.a(librtems_a-taskcreate.o)
 .bss           0x4006146c        0x0 /opt/rtems-4.8/sparc-rtems/leon2/lib/librtemscpu.a(librtems_a-taskdata.o)
 .bss           0x4006146c        0x0 /opt/rtems-4.8/sparc-rtems/leon2/lib/librtemscpu.a(librtems_a-taskdelete.o)
 .bss           0x4006146c        0x0 /opt/rtems-4.8/sparc-rtems/leon2/lib/librtemscpu.a(librtems_a-taskident.o)
 .bss           0x4006146c        0x0 /opt/rtems-4.8/sparc-rtems/leon2/lib/librtemscpu.a(librtems_a-taskinitusers.o)
 .bss           0x4006146c        0x0 /opt/rtems-4.8/sparc-rtems/leon2/lib/librtemscpu.a(librtems_a-taskresume.o)
 .bss           0x4006146c        0x0 /opt/rtems-4.8/sparc-rtems/leon2/lib/librtemscpu.a(librtems_a-tasksetpriority.o)
 .bss           0x4006146c        0x0 /opt/rtems-4.8/sparc-rtems/leon2/lib/librtemscpu.a(librtems_a-taskstart.o)
 .bss           0x4006146c        0x0 /opt/rtems-4.8/sparc-rtems/leon2/lib/librtemscpu.a(librtems_a-tasksuspend.o)
 .bss           0x4006146c        0x0 /opt/rtems-4.8/sparc-rtems/leon2/lib/librtemscpu.a(librtems_a-taskvariableadd.o)
 .bss           0x4006146c        0x0 /opt/rtems-4.8/sparc-rtems/leon2/lib/librtemscpu.a(librtems_a-taskwakeafter.o)
 .bss           0x4006146c        0x0 /opt/rtems-4.8/sparc-rtems/leon2/lib/librtemscpu.a(libsapi_a-exinit.o)
 .bss           0x4006146c        0x0 /opt/rtems-4.8/sparc-rtems/leon2/lib/librtemscpu.a(libsapi_a-extension.o)
 .bss           0x4006146c        0x0 /opt/rtems-4.8/sparc-rtems/leon2/lib/librtemscpu.a(libsapi_a-extensiondata.o)
 .bss           0x4006146c        0x0 /opt/rtems-4.8/sparc-rtems/leon2/lib/librtemscpu.a(libsapi_a-fatal.o)
 .bss           0x4006146c        0x0 /opt/rtems-4.8/sparc-rtems/leon2/lib/librtemscpu.a(libsapi_a-getversionstring.o)
 .bss           0x4006146c        0x0 /opt/rtems-4.8/sparc-rtems/leon2/lib/librtemscpu.a(libsapi_a-io.o)
 .bss           0x4006146c        0x0 /opt/rtems-4.8/sparc-rtems/leon2/lib/librtemscpu.a(libsapi_a-iodata.o)
 .bss           0x4006146c        0x0 /opt/rtems-4.8/sparc-rtems/leon2/lib/librtemscpu.a(libsapi_a-ioinitialize.o)
 .bss           0x4006146c        0x0 /opt/rtems-4.8/sparc-rtems/leon2/lib/librtemscpu.a(libsapi_a-ioregisterdriver.o)
 .bss           0x4006146c       0x34 /opt/rtems-4.8/sparc-rtems/leon2/lib/librtemscpu.a(libsapi_a-posixapi.o)
                0x4006146c                _POSIX_Default_configuration
 .bss           0x400614a0        0x0 /opt/rtems-4.8/sparc-rtems/leon2/lib/librtemscpu.a(libsapi_a-rtemsapi.o)
 .bss           0x400614a0        0x0 /opt/rtems-4.8/sparc-rtems/leon2/lib/librtemscpu.a(libscore_a-apiext.o)
 .bss           0x400614a0        0x0 /opt/rtems-4.8/sparc-rtems/leon2/lib/librtemscpu.a(libscore_a-chainappend.o)
 .bss           0x400614a0        0x0 /opt/rtems-4.8/sparc-rtems/leon2/lib/librtemscpu.a(libscore_a-chainget.o)
 .bss           0x400614a0        0x0 /opt/rtems-4.8/sparc-rtems/leon2/lib/librtemscpu.a(libscore_a-coremutex.o)
 .bss           0x400614a0        0x0 /opt/rtems-4.8/sparc-rtems/leon2/lib/librtemscpu.a(libscore_a-coremutexflush.o)
 .bss           0x400614a0        0x0 /opt/rtems-4.8/sparc-rtems/leon2/lib/librtemscpu.a(libscore_a-coremutexseize.o)
 .bss           0x400614a0        0x0 /opt/rtems-4.8/sparc-rtems/leon2/lib/librtemscpu.a(libscore_a-coremutexsurrender.o)
 .bss           0x400614a0        0x0 /opt/rtems-4.8/sparc-rtems/leon2/lib/librtemscpu.a(libscore_a-coresem.o)
 .bss           0x400614a0        0x0 /opt/rtems-4.8/sparc-rtems/leon2/lib/librtemscpu.a(libscore_a-coresemflush.o)
 .bss           0x400614a0        0x0 /opt/rtems-4.8/sparc-rtems/leon2/lib/librtemscpu.a(libscore_a-coresemsurrender.o)
 .bss           0x400614a0        0x0 /opt/rtems-4.8/sparc-rtems/leon2/lib/librtemscpu.a(libscore_a-coretod.o)
 .bss           0x400614a0        0x0 /opt/rtems-4.8/sparc-rtems/leon2/lib/librtemscpu.a(libscore_a-coretodget.o)
 .bss           0x400614a0        0x0 /opt/rtems-4.8/sparc-rtems/leon2/lib/librtemscpu.a(libscore_a-coretodgetuptime.o)
 .bss           0x400614a0        0x0 /opt/rtems-4.8/sparc-rtems/leon2/lib/librtemscpu.a(libscore_a-coretodtickle.o)
 .bss           0x400614a0        0x4 /opt/rtems-4.8/sparc-rtems/leon2/lib/librtemscpu.a(libscore_a-heap.o)
 .bss           0x400614a4        0x0 /opt/rtems-4.8/sparc-rtems/leon2/lib/librtemscpu.a(libscore_a-heapallocate.o)
 .bss           0x400614a4        0x0 /opt/rtems-4.8/sparc-rtems/leon2/lib/librtemscpu.a(libscore_a-heapfree.o)
 .bss           0x400614a4        0x0 /opt/rtems-4.8/sparc-rtems/leon2/lib/librtemscpu.a(libscore_a-interr.o)
 .bss           0x400614a4        0x0 /opt/rtems-4.8/sparc-rtems/leon2/lib/librtemscpu.a(libscore_a-isr.o)
 .bss           0x400614a4        0x0 /opt/rtems-4.8/sparc-rtems/leon2/lib/librtemscpu.a(libscore_a-iterateoverthreads.o)
 .bss           0x400614a4        0x0 /opt/rtems-4.8/sparc-rtems/leon2/lib/librtemscpu.a(libscore_a-object.o)
 .bss           0x400614a4        0x0 /opt/rtems-4.8/sparc-rtems/leon2/lib/librtemscpu.a(libscore_a-objectallocate.o)
 .bss           0x400614a4        0x0 /opt/rtems-4.8/sparc-rtems/leon2/lib/librtemscpu.a(libscore_a-objectextendinformation.o)
 .bss           0x400614a4        0x0 /opt/rtems-4.8/sparc-rtems/leon2/lib/librtemscpu.a(libscore_a-objectfree.o)
 .bss           0x400614a4        0x0 /opt/rtems-4.8/sparc-rtems/leon2/lib/librtemscpu.a(libscore_a-objectget.o)
 .bss           0x400614a4        0x0 /opt/rtems-4.8/sparc-rtems/leon2/lib/librtemscpu.a(libscore_a-objectgetisr.o)
 .bss           0x400614a4        0x0 /opt/rtems-4.8/sparc-rtems/leon2/lib/librtemscpu.a(libscore_a-objectgetnameasstring.o)
 .bss           0x400614a4        0x4 /opt/rtems-4.8/sparc-rtems/leon2/lib/librtemscpu.a(libscore_a-objectinitializeinformation.o)
 .bss           0x400614a8        0x0 /opt/rtems-4.8/sparc-rtems/leon2/lib/librtemscpu.a(libscore_a-objectnametoid.o)
 .bss           0x400614a8        0x0 /opt/rtems-4.8/sparc-rtems/leon2/lib/librtemscpu.a(libscore_a-objectshrinkinformation.o)
 .bss           0x400614a8        0x0 /opt/rtems-4.8/sparc-rtems/leon2/lib/librtemscpu.a(libscore_a-pheapallocate.o)
 .bss           0x400614a8        0x0 /opt/rtems-4.8/sparc-rtems/leon2/lib/librtemscpu.a(libscore_a-pheapextend.o)
 .bss           0x400614a8        0x0 /opt/rtems-4.8/sparc-rtems/leon2/lib/librtemscpu.a(libscore_a-pheapfree.o)
 .bss           0x400614a8        0x0 /opt/rtems-4.8/sparc-rtems/leon2/lib/librtemscpu.a(libscore_a-pheapgetblocksize.o)
 .bss           0x400614a8        0x0 /opt/rtems-4.8/sparc-rtems/leon2/lib/librtemscpu.a(libscore_a-pheapresizeblock.o)
 .bss           0x400614a8        0x0 /opt/rtems-4.8/sparc-rtems/leon2/lib/librtemscpu.a(libscore_a-thread.o)
 .bss           0x400614a8        0x0 /opt/rtems-4.8/sparc-rtems/leon2/lib/librtemscpu.a(libscore_a-threadchangepriority.o)
 .bss           0x400614a8        0x0 /opt/rtems-4.8/sparc-rtems/leon2/lib/librtemscpu.a(libscore_a-threadclearstate.o)
 .bss           0x400614a8        0x0 /opt/rtems-4.8/sparc-rtems/leon2/lib/librtemscpu.a(libscore_a-threadclose.o)
 .bss           0x400614a8        0x0 /opt/rtems-4.8/sparc-rtems/leon2/lib/librtemscpu.a(libscore_a-threadcreateidle.o)
 .bss           0x400614a8        0x0 /opt/rtems-4.8/sparc-rtems/leon2/lib/librtemscpu.a(libscore_a-threaddelayended.o)
 .bss           0x400614a8        0x0 /opt/rtems-4.8/sparc-rtems/leon2/lib/librtemscpu.a(libscore_a-threaddispatch.o)
 .bss           0x400614a8        0x0 /opt/rtems-4.8/sparc-rtems/leon2/lib/librtemscpu.a(libscore_a-threadidlebody.o)
 .bss           0x400614a8        0x0 /opt/rtems-4.8/sparc-rtems/leon2/lib/librtemscpu.a(libscore_a-threadinitialize.o)
 .bss           0x400614a8        0x0 /opt/rtems-4.8/sparc-rtems/leon2/lib/librtemscpu.a(libscore_a-threadq.o)
 .bss           0x400614a8        0x0 /opt/rtems-4.8/sparc-rtems/leon2/lib/librtemscpu.a(libscore_a-threadqdequeue.o)
 .bss           0x400614a8        0x0 /opt/rtems-4.8/sparc-rtems/leon2/lib/librtemscpu.a(libscore_a-threadqdequeuefifo.o)
 .bss           0x400614a8        0x0 /opt/rtems-4.8/sparc-rtems/leon2/lib/librtemscpu.a(libscore_a-threadqdequeuepriority.o)
 .bss           0x400614a8        0x0 /opt/rtems-4.8/sparc-rtems/leon2/lib/librtemscpu.a(libscore_a-threadqenqueue.o)
 .bss           0x400614a8        0x0 /opt/rtems-4.8/sparc-rtems/leon2/lib/librtemscpu.a(libscore_a-threadqenqueuefifo.o)
 .bss           0x400614a8        0x0 /opt/rtems-4.8/sparc-rtems/leon2/lib/librtemscpu.a(libscore_a-threadqenqueuepriority.o)
 .bss           0x400614a8        0x0 /opt/rtems-4.8/sparc-rtems/leon2/lib/librtemscpu.a(libscore_a-threadqextractwithproxy.o)
 .bss           0x400614a8        0x0 /opt/rtems-4.8/sparc-rtems/leon2/lib/librtemscpu.a(libscore_a-threadqflush.o)
 .bss           0x400614a8        0x0 /opt/rtems-4.8/sparc-rtems/leon2/lib/librtemscpu.a(libscore_a-threadqrequeue.o)
 .bss           0x400614a8        0x0 /opt/rtems-4.8/sparc-rtems/leon2/lib/librtemscpu.a(libscore_a-threadqtimeout.o)
 .bss           0x400614a8        0x0 /opt/rtems-4.8/sparc-rtems/leon2/lib/librtemscpu.a(libscore_a-threadresume.o)
 .bss           0x400614a8        0x0 /opt/rtems-4.8/sparc-rtems/leon2/lib/librtemscpu.a(libscore_a-threadsetpriority.o)
 .bss           0x400614a8        0x0 /opt/rtems-4.8/sparc-rtems/leon2/lib/librtemscpu.a(libscore_a-threadsetstate.o)
 .bss           0x400614a8        0x0 /opt/rtems-4.8/sparc-rtems/leon2/lib/librtemscpu.a(libscore_a-threadsettransient.o)
 .bss           0x400614a8        0x0 /opt/rtems-4.8/sparc-rtems/leon2/lib/librtemscpu.a(libscore_a-threadstackallocate.o)
 .bss           0x400614a8        0x0 /opt/rtems-4.8/sparc-rtems/leon2/lib/librtemscpu.a(libscore_a-threadstackfree.o)
 .bss           0x400614a8        0x0 /opt/rtems-4.8/sparc-rtems/leon2/lib/librtemscpu.a(libscore_a-threadstart.o)
 .bss           0x400614a8        0x0 /opt/rtems-4.8/sparc-rtems/leon2/lib/librtemscpu.a(libscore_a-threadstartmultitasking.o)
 .bss           0x400614a8        0x0 /opt/rtems-4.8/sparc-rtems/leon2/lib/librtemscpu.a(libscore_a-threadsuspend.o)
 .bss           0x400614a8        0x0 /opt/rtems-4.8/sparc-rtems/leon2/lib/librtemscpu.a(libscore_a-threadtickletimeslice.o)
 .bss           0x400614a8        0x0 /opt/rtems-4.8/sparc-rtems/leon2/lib/librtemscpu.a(libscore_a-threadyieldprocessor.o)
 .bss           0x400614a8        0x0 /opt/rtems-4.8/sparc-rtems/leon2/lib/librtemscpu.a(libscore_a-timespecaddto.o)
 .bss           0x400614a8        0x0 /opt/rtems-4.8/sparc-rtems/leon2/lib/librtemscpu.a(libscore_a-timespecgreaterthan.o)
 .bss           0x400614a8        0x0 /opt/rtems-4.8/sparc-rtems/leon2/lib/librtemscpu.a(libscore_a-timespeclessthan.o)
 .bss           0x400614a8        0x0 /opt/rtems-4.8/sparc-rtems/leon2/lib/librtemscpu.a(libscore_a-timespecsubtract.o)
 .bss           0x400614a8        0x0 /opt/rtems-4.8/sparc-rtems/leon2/lib/librtemscpu.a(libscore_a-userext.o)
 .bss           0x400614a8        0x0 /opt/rtems-4.8/sparc-rtems/leon2/lib/librtemscpu.a(libscore_a-userextaddset.o)
 .bss           0x400614a8        0x0 /opt/rtems-4.8/sparc-rtems/leon2/lib/librtemscpu.a(libscore_a-userextthreadbegin.o)
 .bss           0x400614a8        0x0 /opt/rtems-4.8/sparc-rtems/leon2/lib/librtemscpu.a(libscore_a-userextthreadcreate.o)
 .bss           0x400614a8        0x0 /opt/rtems-4.8/sparc-rtems/leon2/lib/librtemscpu.a(libscore_a-userextthreaddelete.o)
 .bss           0x400614a8        0x0 /opt/rtems-4.8/sparc-rtems/leon2/lib/librtemscpu.a(libscore_a-userextthreadstart.o)
 .bss           0x400614a8        0x0 /opt/rtems-4.8/sparc-rtems/leon2/lib/librtemscpu.a(libscore_a-userextthreadswitch.o)
 .bss           0x400614a8        0x0 /opt/rtems-4.8/sparc-rtems/leon2/lib/librtemscpu.a(libscore_a-watchdog.o)
 .bss           0x400614a8        0x0 /opt/rtems-4.8/sparc-rtems/leon2/lib/librtemscpu.a(libscore_a-watchdoginsert.o)
 .bss           0x400614a8        0x0 /opt/rtems-4.8/sparc-rtems/leon2/lib/librtemscpu.a(libscore_a-watchdogremove.o)
 .bss           0x400614a8        0x0 /opt/rtems-4.8/sparc-rtems/leon2/lib/librtemscpu.a(libscore_a-watchdogtickle.o)
 .bss           0x400614a8        0x0 /opt/rtems-4.8/sparc-rtems/leon2/lib/librtemscpu.a(libscore_a-wkspace.o)
 .bss           0x400614a8        0x0 /opt/rtems-4.8/sparc-rtems/leon2/lib/librtemscpu.a(libscorecpu_a-cpu.o)
 .bss           0x400614a8        0x0 /opt/rtems-4.8/sparc-rtems/leon2/lib/librtemscpu.a(libscorecpu_a-cpu_asm.o)
 .bss           0x400614a8        0x0 /opt/rtems-4.8/sparc-rtems/leon2/lib/librtemscpu.a(miniimfs_init.o)
 .bss           0x400614a8        0x0 /opt/rtems-4.8/sparc-rtems/leon2/lib/librtemscpu.a(imfs_eval.o)
 .bss           0x400614a8        0x0 /opt/rtems-4.8/sparc-rtems/leon2/lib/librtemscpu.a(imfs_getchild.o)
 .bss           0x400614a8        0x0 /opt/rtems-4.8/sparc-rtems/leon2/lib/librtemscpu.a(imfs_gtkn.o)
 .bss           0x400614a8        0x0 /opt/rtems-4.8/sparc-rtems/leon2/lib/librtemscpu.a(imfs_handlers_device.o)
 .bss           0x400614a8        0x0 /opt/rtems-4.8/sparc-rtems/leon2/lib/librtemscpu.a(imfs_handlers_link.o)
 .bss           0x400614a8        0x4 /opt/rtems-4.8/sparc-rtems/leon2/lib/librtemscpu.a(imfs_initsupp.o)
                0x400614a8                imfs_memfile_bytes_per_block
 .bss           0x400614ac        0x0 /opt/rtems-4.8/sparc-rtems/leon2/lib/librtemscpu.a(imfs_mknod.o)
 .bss           0x400614ac        0x0 /opt/rtems-4.8/sparc-rtems/leon2/lib/librtemscpu.a(imfs_ntype.o)
 .bss           0x400614ac        0x0 /opt/rtems-4.8/sparc-rtems/leon2/lib/librtemscpu.a(imfs_rmnod.o)
 .bss           0x400614ac        0x0 /opt/rtems-4.8/sparc-rtems/leon2/lib/librtemscpu.a(imfs_stat.o)
 *fill*         0x400614ac        0x4 00
 .bss           0x400614b0       0x18 /opt/rtems-4.8/sparc-rtems/leon2/lib/librtemscpu.a(libc_a-inet_ntoa.o)
 .bss           0x400614c8        0x0 /opt/rtems-4.8/sparc-rtems/leon2/lib/librtemscpu.a(libc_a-inet_ntop.o)
 .bss           0x400614c8        0x0 /opt/rtems-4.8/sparc-rtems/leon2/lib/librtemscpu.a(libcsupport_a-__gettod.o)
 .bss           0x400614c8        0x0 /opt/rtems-4.8/sparc-rtems/leon2/lib/librtemscpu.a(libcsupport_a-assoclocalbyremote.o)
 .bss           0x400614c8        0x0 /opt/rtems-4.8/sparc-rtems/leon2/lib/librtemscpu.a(libcsupport_a-assoclocalbyremotebitfield.o)
 .bss           0x400614c8        0x0 /opt/rtems-4.8/sparc-rtems/leon2/lib/librtemscpu.a(libcsupport_a-assocptrbyremote.o)
 .bss           0x400614c8        0x0 /opt/rtems-4.8/sparc-rtems/leon2/lib/librtemscpu.a(libcsupport_a-base_fs.o)
 .bss           0x400614c8        0x0 /opt/rtems-4.8/sparc-rtems/leon2/lib/librtemscpu.a(libcsupport_a-error.o)
 .bss           0x400614c8       0x38 /opt/rtems-4.8/sparc-rtems/leon2/lib/librtemscpu.a(libcsupport_a-fs_null_handlers.o)
                0x400614c8                rtems_filesystem_null_handlers
 .bss           0x40061500        0x0 /opt/rtems-4.8/sparc-rtems/leon2/lib/librtemscpu.a(libcsupport_a-getegid.o)
 .bss           0x40061500        0x0 /opt/rtems-4.8/sparc-rtems/leon2/lib/librtemscpu.a(libcsupport_a-geteuid.o)
 .bss           0x40061500        0x0 /opt/rtems-4.8/sparc-rtems/leon2/lib/librtemscpu.a(libcsupport_a-ioctl.o)
 .bss           0x40061500        0x0 /opt/rtems-4.8/sparc-rtems/leon2/lib/librtemscpu.a(libcsupport_a-libio_sockets.o)
 .bss           0x40061500        0x0 /opt/rtems-4.8/sparc-rtems/leon2/lib/librtemscpu.a(libcsupport_a-mount.o)
 .bss           0x40061500        0x0 /opt/rtems-4.8/sparc-rtems/leon2/lib/librtemscpu.a(libcsupport_a-newlibc_exit.o)
 .bss           0x40061500        0x0 /opt/rtems-4.8/sparc-rtems/leon2/lib/librtemscpu.a(libcsupport_a-open.o)
 .bss           0x40061500       0x14 /opt/rtems-4.8/sparc-rtems/leon2/lib/librtemscpu.a(libnetworking_a-if_ether.o)
 .bss           0x40061514        0xc /opt/rtems-4.8/sparc-rtems/leon2/lib/librtemscpu.a(libnetworking_a-in.o)
 .bss           0x40061520        0x0 /opt/rtems-4.8/sparc-rtems/leon2/lib/librtemscpu.a(libnetworking_a-in_cksum.o)
 .bss           0x40061520        0x0 /opt/rtems-4.8/sparc-rtems/leon2/lib/librtemscpu.a(libnetworking_a-in_pcb.o)
 .bss           0x40061520        0x0 /opt/rtems-4.8/sparc-rtems/leon2/lib/librtemscpu.a(libnetworking_a-in_proto.o)
 .bss           0x40061520        0x4 /opt/rtems-4.8/sparc-rtems/leon2/lib/librtemscpu.a(libnetworking_a-in_rmx.o)
 .bss           0x40061524        0x4 /opt/rtems-4.8/sparc-rtems/leon2/lib/librtemscpu.a(libnetworking_a-ip_icmp.o)
 .bss           0x40061528        0x0 /opt/rtems-4.8/sparc-rtems/leon2/lib/librtemscpu.a(libnetworking_a-kern_subr.o)
 .bss           0x40061528        0x0 /opt/rtems-4.8/sparc-rtems/leon2/lib/librtemscpu.a(libnetworking_a-raw_usrreq.o)
 .bss           0x40061528        0x0 /opt/rtems-4.8/sparc-rtems/leon2/lib/librtemscpu.a(libnetworking_a-rtems_bsdnet_malloc_starvation.o)
 .bss           0x40061528        0x4 /opt/rtems-4.8/sparc-rtems/leon2/lib/librtemscpu.a(libnetworking_a-tcp_input.o)
 .bss           0x4006152c        0x0 /opt/rtems-4.8/sparc-rtems/leon2/lib/librtemscpu.a(libnetworking_a-tcp_output.o)
 .bss           0x4006152c        0x0 /opt/rtems-4.8/sparc-rtems/leon2/lib/librtemscpu.a(libnetworking_a-tcp_subr.o)
 .bss           0x4006152c        0x4 /opt/rtems-4.8/sparc-rtems/leon2/lib/librtemscpu.a(libnetworking_a-tcp_timer.o)
 .bss           0x40061530        0x0 /opt/rtems-4.8/sparc-rtems/leon2/lib/librtemscpu.a(libnetworking_a-tcp_usrreq.o)
 .bss           0x40061530        0x4 /opt/rtems-4.8/sparc-rtems/leon2/lib/librtemscpu.a(libnetworking_a-udp_usrreq.o)
 .bss           0x40061534        0x0 /opt/rtems-4.8/sparc-rtems/leon2/lib/librtemscpu.a(libposix_a-cond.o)
 .bss           0x40061534        0x0 /opt/rtems-4.8/sparc-rtems/leon2/lib/librtemscpu.a(libposix_a-key.o)
 .bss           0x40061534        0x0 /opt/rtems-4.8/sparc-rtems/leon2/lib/librtemscpu.a(libposix_a-mqueue.o)
 .bss           0x40061534        0x0 /opt/rtems-4.8/sparc-rtems/leon2/lib/librtemscpu.a(libposix_a-mutex.o)
 .bss           0x40061534        0x0 /opt/rtems-4.8/sparc-rtems/leon2/lib/librtemscpu.a(libposix_a-pbarrier.o)
 .bss           0x40061534        0x0 /opt/rtems-4.8/sparc-rtems/leon2/lib/librtemscpu.a(libposix_a-prwlock.o)
 .bss           0x40061534        0x0 /opt/rtems-4.8/sparc-rtems/leon2/lib/librtemscpu.a(libposix_a-psignal.o)
 .bss           0x40061534        0x0 /opt/rtems-4.8/sparc-rtems/leon2/lib/librtemscpu.a(libposix_a-psignalchecksignal.o)
 .bss           0x40061534        0x0 /opt/rtems-4.8/sparc-rtems/leon2/lib/librtemscpu.a(libposix_a-psignalclearsignals.o)
 .bss           0x40061534        0x0 /opt/rtems-4.8/sparc-rtems/leon2/lib/librtemscpu.a(libposix_a-pspin.o)
 .bss           0x40061534        0x0 /opt/rtems-4.8/sparc-rtems/leon2/lib/librtemscpu.a(libposix_a-pthread.o)
 .bss           0x40061534        0x0 /opt/rtems-4.8/sparc-rtems/leon2/lib/librtemscpu.a(libposix_a-pthreadexit.o)
 .bss           0x40061534        0x0 /opt/rtems-4.8/sparc-rtems/leon2/lib/librtemscpu.a(libposix_a-ptimer.o)
 .bss           0x40061534        0x0 /opt/rtems-4.8/sparc-rtems/leon2/lib/librtemscpu.a(libposix_a-semaphore.o)
 .bss           0x40061534        0x0 /opt/rtems-4.8/sparc-rtems/leon2/lib/librtemscpu.a(libposix_a-sigemptyset.o)
 .bss           0x40061534        0x0 /opt/rtems-4.8/sparc-rtems/leon2/lib/librtemscpu.a(librtems_a-barrier.o)
 .bss           0x40061534        0x0 /opt/rtems-4.8/sparc-rtems/leon2/lib/librtemscpu.a(librtems_a-barrierdata.o)
 .bss           0x40061534        0x0 /opt/rtems-4.8/sparc-rtems/leon2/lib/librtemscpu.a(librtems_a-dpmem.o)
 .bss           0x40061534        0x0 /opt/rtems-4.8/sparc-rtems/leon2/lib/librtemscpu.a(librtems_a-dpmemdata.o)
 .bss           0x40061534        0x0 /opt/rtems-4.8/sparc-rtems/leon2/lib/librtemscpu.a(librtems_a-event.o)
 .bss           0x40061534        0x0 /opt/rtems-4.8/sparc-rtems/leon2/lib/librtemscpu.a(librtems_a-eventdata.o)
 .bss           0x40061534        0x0 /opt/rtems-4.8/sparc-rtems/leon2/lib/librtemscpu.a(librtems_a-intr.o)
 .bss           0x40061534        0x0 /opt/rtems-4.8/sparc-rtems/leon2/lib/librtemscpu.a(librtems_a-msg.o)
 .bss           0x40061534        0x0 /opt/rtems-4.8/sparc-rtems/leon2/lib/librtemscpu.a(librtems_a-msgdata.o)
 .bss           0x40061534        0x0 /opt/rtems-4.8/sparc-rtems/leon2/lib/librtemscpu.a(librtems_a-part.o)
 .bss           0x40061534        0x0 /opt/rtems-4.8/sparc-rtems/leon2/lib/librtemscpu.a(librtems_a-partdata.o)
 .bss           0x40061534        0x0 /opt/rtems-4.8/sparc-rtems/leon2/lib/librtemscpu.a(librtems_a-ratemon.o)
 .bss           0x40061534        0x0 /opt/rtems-4.8/sparc-rtems/leon2/lib/librtemscpu.a(librtems_a-region.o)
 .bss           0x40061534        0x0 /opt/rtems-4.8/sparc-rtems/leon2/lib/librtemscpu.a(librtems_a-regiondata.o)
 .bss           0x40061534        0x0 /opt/rtems-4.8/sparc-rtems/leon2/lib/librtemscpu.a(librtems_a-rtemstimer.o)
 .bss           0x40061534        0x0 /opt/rtems-4.8/sparc-rtems/leon2/lib/librtemscpu.a(librtems_a-rtemstimerdata.o)
 .bss           0x40061534        0x0 /opt/rtems-4.8/sparc-rtems/leon2/lib/librtemscpu.a(librtems_a-sem.o)
 .bss           0x40061534        0x0 /opt/rtems-4.8/sparc-rtems/leon2/lib/librtemscpu.a(librtems_a-signal.o)
 .bss           0x40061534        0x0 /opt/rtems-4.8/sparc-rtems/leon2/lib/librtemscpu.a(librtems_a-tasks.o)
 .bss           0x40061534        0x0 /opt/rtems-4.8/sparc-rtems/leon2/lib/librtemscpu.a(libsapi_a-debug.o)
 .bss           0x40061534        0x0 /opt/rtems-4.8/sparc-rtems/leon2/lib/librtemscpu.a(libsapi_a-exshutdown.o)
 .bss           0x40061534        0x0 /opt/rtems-4.8/sparc-rtems/leon2/lib/librtemscpu.a(libscore_a-chain.o)
 .bss           0x40061534        0x0 /opt/rtems-4.8/sparc-rtems/leon2/lib/librtemscpu.a(libscore_a-chainextract.o)
 .bss           0x40061534        0x0 /opt/rtems-4.8/sparc-rtems/leon2/lib/librtemscpu.a(libscore_a-heapextend.o)
 .bss           0x40061534        0x0 /opt/rtems-4.8/sparc-rtems/leon2/lib/librtemscpu.a(libscore_a-heapresizeblock.o)
 .bss           0x40061534        0x0 /opt/rtems-4.8/sparc-rtems/leon2/lib/librtemscpu.a(libscore_a-heapsizeofuserarea.o)
 .bss           0x40061534        0x0 /opt/rtems-4.8/sparc-rtems/leon2/lib/librtemscpu.a(libscore_a-objectcomparenameraw.o)
 .bss           0x40061534        0x0 /opt/rtems-4.8/sparc-rtems/leon2/lib/librtemscpu.a(libscore_a-objectcomparenamestring.o)
 .bss           0x40061534        0x0 /opt/rtems-4.8/sparc-rtems/leon2/lib/librtemscpu.a(libscore_a-threadloadenv.o)
 .bss           0x40061534        0x0 /opt/rtems-4.8/sparc-rtems/leon2/lib/librtemscpu.a(libscore_a-threadqextract.o)
 .bss           0x40061534        0x0 /opt/rtems-4.8/sparc-rtems/leon2/lib/librtemscpu.a(libscore_a-threadqextractfifo.o)
 .bss           0x40061534        0x0 /opt/rtems-4.8/sparc-rtems/leon2/lib/librtemscpu.a(libscore_a-threadqextractpriority.o)
 .bss           0x40061534        0x0 /opt/rtems-4.8/sparc-rtems/leon2/lib/librtemscpu.a(libscore_a-threadready.o)
 .bss           0x40061534        0x0 /opt/rtems-4.8/sparc-rtems/leon2/lib/librtemscpu.a(libscore_a-threadresettimeslice.o)
 .bss           0x40061534        0x0 /opt/rtems-4.8/sparc-rtems/leon2/lib/librtemscpu.a(libscore_a-timespectoticks.o)
 .bss           0x40061534        0x0 /opt/rtems-4.8/sparc-rtems/leon2/lib/librtemscpu.a(libscore_a-userextaddapiset.o)
 .bss           0x40061534        0x0 /opt/rtems-4.8/sparc-rtems/leon2/lib/librtemscpu.a(deviceio.o)
 .bss           0x40061534        0x0 /opt/rtems-4.8/sparc-rtems/leon2/lib/librtemscpu.a(imfs_config.o)
 .bss           0x40061534        0x0 /opt/rtems-4.8/sparc-rtems/leon2/lib/librtemscpu.a(imfs_creat.o)
 .bss           0x40061534        0x0 /opt/rtems-4.8/sparc-rtems/leon2/lib/librtemscpu.a(imfs_fchmod.o)
 .bss           0x40061534        0x0 /opt/rtems-4.8/sparc-rtems/leon2/lib/librtemscpu.a(libcsupport_a-assocnamebylocal.o)
 .bss           0x40061534        0x0 /opt/rtems-4.8/sparc-rtems/leon2/lib/librtemscpu.a(libcsupport_a-assocptrbylocal.o)
 .bss           0x40061534        0x0 /opt/rtems-4.8/sparc-rtems/leon2/lib/librtemscpu.a(libcsupport_a-assocremotebylocal.o)
 .bss           0x40061534        0x0 /opt/rtems-4.8/sparc-rtems/leon2/lib/librtemscpu.a(libcsupport_a-ftruncate.o)
 .bss           0x40061534       0x4c /opt/rtems-4.8/sparc-rtems/leon2/lib/librtemscpu.a(libnetworking_a-igmp.o)
 .bss           0x40061580        0x0 /opt/rtems-4.8/sparc-rtems/leon2/lib/librtemscpu.a(libnetworking_a-raw_cb.o)
 .bss           0x40061580        0x0 /opt/rtems-4.8/sparc-rtems/leon2/lib/librtemscpu.a(libposix_a-keyrundestructors.o)
 .bss           0x40061580        0x0 /opt/rtems-4.8/sparc-rtems/leon2/lib/librtemscpu.a(libposix_a-psignalclearprocesssignals.o)
 .bss           0x40061580        0x0 /opt/rtems-4.8/sparc-rtems/leon2/lib/librtemscpu.a(librtems_a-taskmode.o)
 .bss           0x40061580        0x0 /opt/rtems-4.8/sparc-rtems/leon2/lib/librtemscpu.a(libsapi_a-ioclose.o)
 .bss           0x40061580        0x0 /opt/rtems-4.8/sparc-rtems/leon2/lib/librtemscpu.a(libsapi_a-iocontrol.o)
 .bss           0x40061580        0x0 /opt/rtems-4.8/sparc-rtems/leon2/lib/librtemscpu.a(libsapi_a-ioopen.o)
 .bss           0x40061580        0x0 /opt/rtems-4.8/sparc-rtems/leon2/lib/librtemscpu.a(libsapi_a-ioread.o)
 .bss           0x40061580        0x0 /opt/rtems-4.8/sparc-rtems/leon2/lib/librtemscpu.a(libsapi_a-iowrite.o)
 .bss           0x40061580        0x0 /opt/rtems-4.8/sparc-rtems/leon2/lib/librtemscpu.a(libscore_a-threadevaluatemode.o)
 .bss           0x40061580        0x1 /opt/rtems-4.8/sparc-rtems/leon2/lib/librtemscpu.a(libscore_a-threadhandler.o)
 .bss           0x40061581        0x0 /opt/rtems-4.8/sparc-rtems/leon2/lib/librtemscpu.a(libcsupport_a-assocnamebad.o)
 .bss           0x40061581        0x0 /opt/rtems-4.8-1.1.3/bin/../lib/gcc/sparc-rtems/4.2.4/../../../../sparc-rtems/lib/soft/libc.a(lib_a-abort.o)
 .bss           0x40061581        0x0 /opt/rtems-4.8-1.1.3/bin/../lib/gcc/sparc-rtems/4.2.4/../../../../sparc-rtems/lib/soft/libc.a(lib_a-atexit.o)
 .bss           0x40061581        0x0 /opt/rtems-4.8-1.1.3/bin/../lib/gcc/sparc-rtems/4.2.4/../../../../sparc-rtems/lib/soft/libc.a(lib_a-bcmp.o)
 .bss           0x40061581        0x0 /opt/rtems-4.8-1.1.3/bin/../lib/gcc/sparc-rtems/4.2.4/../../../../sparc-rtems/lib/soft/libc.a(lib_a-ctype_.o)
 .bss           0x40061581        0x0 /opt/rtems-4.8-1.1.3/bin/../lib/gcc/sparc-rtems/4.2.4/../../../../sparc-rtems/lib/soft/libc.a(lib_a-errno.o)
 .bss           0x40061581        0x0 /opt/rtems-4.8-1.1.3/bin/../lib/gcc/sparc-rtems/4.2.4/../../../../sparc-rtems/lib/soft/libc.a(lib_a-exit.o)
 .bss           0x40061581        0x0 /opt/rtems-4.8-1.1.3/bin/../lib/gcc/sparc-rtems/4.2.4/../../../../sparc-rtems/lib/soft/libc.a(lib_a-fclose.o)
 .bss           0x40061581        0x0 /opt/rtems-4.8-1.1.3/bin/../lib/gcc/sparc-rtems/4.2.4/../../../../sparc-rtems/lib/soft/libc.a(lib_a-fflush.o)
 .bss           0x40061581        0x0 /opt/rtems-4.8-1.1.3/bin/../lib/gcc/sparc-rtems/4.2.4/../../../../sparc-rtems/lib/soft/libc.a(lib_a-fileno.o)
 .bss           0x40061581        0x0 /opt/rtems-4.8-1.1.3/bin/../lib/gcc/sparc-rtems/4.2.4/../../../../sparc-rtems/lib/soft/libc.a(lib_a-findfp.o)
 .bss           0x40061581        0x0 /opt/rtems-4.8-1.1.3/bin/../lib/gcc/sparc-rtems/4.2.4/../../../../sparc-rtems/lib/soft/libc.a(lib_a-fprintf.o)
 .bss           0x40061581        0x0 /opt/rtems-4.8-1.1.3/bin/../lib/gcc/sparc-rtems/4.2.4/../../../../sparc-rtems/lib/soft/libc.a(lib_a-fwalk.o)
 .bss           0x40061581        0x0 /opt/rtems-4.8-1.1.3/bin/../lib/gcc/sparc-rtems/4.2.4/../../../../sparc-rtems/lib/soft/libc.a(lib_a-gmtime_r.o)
 .bss           0x40061581        0x0 /opt/rtems-4.8-1.1.3/bin/../lib/gcc/sparc-rtems/4.2.4/../../../../sparc-rtems/lib/soft/libc.a(lib_a-impure.o)
 .bss           0x40061581        0x0 /opt/rtems-4.8-1.1.3/bin/../lib/gcc/sparc-rtems/4.2.4/../../../../sparc-rtems/lib/soft/libc.a(lib_a-memcmp.o)
 .bss           0x40061581        0x0 /opt/rtems-4.8-1.1.3/bin/../lib/gcc/sparc-rtems/4.2.4/../../../../sparc-rtems/lib/soft/libc.a(lib_a-memcpy.o)
 .bss           0x40061581        0x0 /opt/rtems-4.8-1.1.3/bin/../lib/gcc/sparc-rtems/4.2.4/../../../../sparc-rtems/lib/soft/libc.a(lib_a-memset.o)
 .bss           0x40061581        0x0 /opt/rtems-4.8-1.1.3/bin/../lib/gcc/sparc-rtems/4.2.4/../../../../sparc-rtems/lib/soft/libc.a(lib_a-mktm_r.o)
 .bss           0x40061581        0x0 /opt/rtems-4.8-1.1.3/bin/../lib/gcc/sparc-rtems/4.2.4/../../../../sparc-rtems/lib/soft/libc.a(lib_a-printf.o)
 .bss           0x40061581        0x0 /opt/rtems-4.8-1.1.3/bin/../lib/gcc/sparc-rtems/4.2.4/../../../../sparc-rtems/lib/soft/libc.a(lib_a-putchar.o)
 .bss           0x40061581        0x0 /opt/rtems-4.8-1.1.3/bin/../lib/gcc/sparc-rtems/4.2.4/../../../../sparc-rtems/lib/soft/libc.a(lib_a-puts.o)
 .bss           0x40061581        0x0 /opt/rtems-4.8-1.1.3/bin/../lib/gcc/sparc-rtems/4.2.4/../../../../sparc-rtems/lib/soft/libc.a(lib_a-raise.o)
 .bss           0x40061581        0x0 /opt/rtems-4.8-1.1.3/bin/../lib/gcc/sparc-rtems/4.2.4/../../../../sparc-rtems/lib/soft/libc.a(lib_a-reent.o)
 .bss           0x40061581        0x0 /opt/rtems-4.8-1.1.3/bin/../lib/gcc/sparc-rtems/4.2.4/../../../../sparc-rtems/lib/soft/libc.a(lib_a-snprintf.o)
 .bss           0x40061581        0x0 /opt/rtems-4.8-1.1.3/bin/../lib/gcc/sparc-rtems/4.2.4/../../../../sparc-rtems/lib/soft/libc.a(lib_a-sprintf.o)
 .bss           0x40061581        0x0 /opt/rtems-4.8-1.1.3/bin/../lib/gcc/sparc-rtems/4.2.4/../../../../sparc-rtems/lib/soft/libc.a(lib_a-stdio.o)
 .bss           0x40061581        0x0 /opt/rtems-4.8-1.1.3/bin/../lib/gcc/sparc-rtems/4.2.4/../../../../sparc-rtems/lib/soft/libc.a(lib_a-strchr.o)
 .bss           0x40061581        0x0 /opt/rtems-4.8-1.1.3/bin/../lib/gcc/sparc-rtems/4.2.4/../../../../sparc-rtems/lib/soft/libc.a(lib_a-strcmp.o)
 .bss           0x40061581        0x0 /opt/rtems-4.8-1.1.3/bin/../lib/gcc/sparc-rtems/4.2.4/../../../../sparc-rtems/lib/soft/libc.a(lib_a-strcpy.o)
 .bss           0x40061581        0x0 /opt/rtems-4.8-1.1.3/bin/../lib/gcc/sparc-rtems/4.2.4/../../../../sparc-rtems/lib/soft/libc.a(lib_a-strdup.o)
 .bss           0x40061581        0x0 /opt/rtems-4.8-1.1.3/bin/../lib/gcc/sparc-rtems/4.2.4/../../../../sparc-rtems/lib/soft/libc.a(lib_a-strdup_r.o)
 .bss           0x40061581        0x0 /opt/rtems-4.8-1.1.3/bin/../lib/gcc/sparc-rtems/4.2.4/../../../../sparc-rtems/lib/soft/libc.a(lib_a-strerror.o)
 .bss           0x40061581        0x0 /opt/rtems-4.8-1.1.3/bin/../lib/gcc/sparc-rtems/4.2.4/../../../../sparc-rtems/lib/soft/libc.a(lib_a-strlcpy.o)
 .bss           0x40061581        0x0 /opt/rtems-4.8-1.1.3/bin/../lib/gcc/sparc-rtems/4.2.4/../../../../sparc-rtems/lib/soft/libc.a(lib_a-strlen.o)
 .bss           0x40061581        0x0 /opt/rtems-4.8-1.1.3/bin/../lib/gcc/sparc-rtems/4.2.4/../../../../sparc-rtems/lib/soft/libc.a(lib_a-strncmp.o)
 .bss           0x40061581        0x0 /opt/rtems-4.8-1.1.3/bin/../lib/gcc/sparc-rtems/4.2.4/../../../../sparc-rtems/lib/soft/libc.a(lib_a-strncpy.o)
 .bss           0x40061581        0x0 /opt/rtems-4.8-1.1.3/bin/../lib/gcc/sparc-rtems/4.2.4/../../../../sparc-rtems/lib/soft/libc.a(lib_a-tzlock.o)
 *fill*         0x40061581        0x3 00
 .bss           0x40061584        0x8 /opt/rtems-4.8-1.1.3/bin/../lib/gcc/sparc-rtems/4.2.4/../../../../sparc-rtems/lib/soft/libc.a(lib_a-tzvars.o)
                0x40061584                _daylight
                0x40061588                _timezone
 .bss           0x4006158c        0x0 /opt/rtems-4.8-1.1.3/bin/../lib/gcc/sparc-rtems/4.2.4/../../../../sparc-rtems/lib/soft/libc.a(lib_a-u_strerr.o)
 .bss           0x4006158c        0x0 /opt/rtems-4.8-1.1.3/bin/../lib/gcc/sparc-rtems/4.2.4/../../../../sparc-rtems/lib/soft/libc.a(lib_a-vfprintf.o)
 .bss           0x4006158c        0x0 /opt/rtems-4.8-1.1.3/bin/../lib/gcc/sparc-rtems/4.2.4/../../../../sparc-rtems/lib/soft/libc.a(lib_a-vprintf.o)
 .bss           0x4006158c        0x0 /opt/rtems-4.8-1.1.3/bin/../lib/gcc/sparc-rtems/4.2.4/../../../../sparc-rtems/lib/soft/libc.a(lib_a-wcrtomb.o)
 .bss           0x4006158c        0x0 /opt/rtems-4.8-1.1.3/bin/../lib/gcc/sparc-rtems/4.2.4/../../../../sparc-rtems/lib/soft/libc.a(lib_a-wcsrtombs.o)
 .bss           0x4006158c        0x0 /opt/rtems-4.8-1.1.3/bin/../lib/gcc/sparc-rtems/4.2.4/../../../../sparc-rtems/lib/soft/libc.a(lib_a-wctomb_r.o)
 .bss           0x4006158c        0x0 /opt/rtems-4.8-1.1.3/bin/../lib/gcc/sparc-rtems/4.2.4/../../../../sparc-rtems/lib/soft/libc.a(lib_a-wsetup.o)
 .bss           0x4006158c        0x0 /opt/rtems-4.8-1.1.3/bin/../lib/gcc/sparc-rtems/4.2.4/../../../../sparc-rtems/lib/soft/libc.a(lib_a-__atexit.o)
 .bss           0x4006158c        0x0 /opt/rtems-4.8-1.1.3/bin/../lib/gcc/sparc-rtems/4.2.4/../../../../sparc-rtems/lib/soft/libc.a(lib_a-__call_atexit.o)
 .bss           0x4006158c        0x0 /opt/rtems-4.8-1.1.3/bin/../lib/gcc/sparc-rtems/4.2.4/../../../../sparc-rtems/lib/soft/libc.a(lib_a-dtoa.o)
 .bss           0x4006158c        0x0 /opt/rtems-4.8-1.1.3/bin/../lib/gcc/sparc-rtems/4.2.4/../../../../sparc-rtems/lib/soft/libc.a(lib_a-fvwrite.o)
 .bss           0x4006158c        0x0 /opt/rtems-4.8-1.1.3/bin/../lib/gcc/sparc-rtems/4.2.4/../../../../sparc-rtems/lib/soft/libc.a(lib_a-gettzinfo.o)
 .bss           0x4006158c        0xc /opt/rtems-4.8-1.1.3/bin/../lib/gcc/sparc-rtems/4.2.4/../../../../sparc-rtems/lib/soft/libc.a(lib_a-locale.o)
                0x4006158c                __nlocale_changed
                0x40061590                __mlocale_changed
                0x40061594                _PathLocale
 .bss           0x40061598        0x0 /opt/rtems-4.8-1.1.3/bin/../lib/gcc/sparc-rtems/4.2.4/../../../../sparc-rtems/lib/soft/libc.a(lib_a-makebuf.o)
 .bss           0x40061598        0x0 /opt/rtems-4.8-1.1.3/bin/../lib/gcc/sparc-rtems/4.2.4/../../../../sparc-rtems/lib/soft/libc.a(lib_a-memchr.o)
 .bss           0x40061598        0x0 /opt/rtems-4.8-1.1.3/bin/../lib/gcc/sparc-rtems/4.2.4/../../../../sparc-rtems/lib/soft/libc.a(lib_a-memmove.o)
 .bss           0x40061598        0x0 /opt/rtems-4.8-1.1.3/bin/../lib/gcc/sparc-rtems/4.2.4/../../../../sparc-rtems/lib/soft/libc.a(lib_a-mprec.o)
 .bss           0x40061598        0x0 /opt/rtems-4.8-1.1.3/bin/../lib/gcc/sparc-rtems/4.2.4/../../../../sparc-rtems/lib/soft/libc.a(lib_a-putc.o)
 .bss           0x40061598        0x0 /opt/rtems-4.8-1.1.3/bin/../lib/gcc/sparc-rtems/4.2.4/../../../../sparc-rtems/lib/soft/libc.a(lib_a-s_isinfd.o)
 .bss           0x40061598        0x0 /opt/rtems-4.8-1.1.3/bin/../lib/gcc/sparc-rtems/4.2.4/../../../../sparc-rtems/lib/soft/libc.a(lib_a-s_isnand.o)
 .bss           0x40061598        0x0 /opt/rtems-4.8-1.1.3/bin/../lib/gcc/sparc-rtems/4.2.4/../../../../sparc-rtems/lib/soft/libc.a(lib_a-wbuf.o)
 .bss           0x40061598        0x0 /opt/rtems-4.8-1.1.3/bin/../lib/gcc/sparc-rtems/4.2.4/soft/libgcc.a(_udivdi3.o)
 .bss           0x40061598        0x0 /opt/rtems-4.8-1.1.3/bin/../lib/gcc/sparc-rtems/4.2.4/soft/libgcc.a(_umoddi3.o)
 .bss           0x40061598        0x0 /opt/rtems-4.8-1.1.3/bin/../lib/gcc/sparc-rtems/4.2.4/soft/libgcc.a(_addsub_df.o)
 .bss           0x40061598        0x0 /opt/rtems-4.8-1.1.3/bin/../lib/gcc/sparc-rtems/4.2.4/soft/libgcc.a(_div_df.o)
 .bss           0x40061598        0x0 /opt/rtems-4.8-1.1.3/bin/../lib/gcc/sparc-rtems/4.2.4/soft/libgcc.a(_eq_df.o)
 .bss           0x40061598        0x0 /opt/rtems-4.8-1.1.3/bin/../lib/gcc/sparc-rtems/4.2.4/soft/libgcc.a(_ne_df.o)
 .bss           0x40061598        0x0 /opt/rtems-4.8-1.1.3/bin/../lib/gcc/sparc-rtems/4.2.4/soft/libgcc.a(_gt_df.o)
 .bss           0x40061598        0x0 /opt/rtems-4.8-1.1.3/bin/../lib/gcc/sparc-rtems/4.2.4/soft/libgcc.a(_ge_df.o)
 .bss           0x40061598        0x0 /opt/rtems-4.8-1.1.3/bin/../lib/gcc/sparc-rtems/4.2.4/soft/libgcc.a(_lt_df.o)
 .bss           0x40061598        0x0 /opt/rtems-4.8-1.1.3/bin/../lib/gcc/sparc-rtems/4.2.4/soft/libgcc.a(_si_to_df.o)
 .bss           0x40061598        0x0 /opt/rtems-4.8-1.1.3/bin/../lib/gcc/sparc-rtems/4.2.4/soft/libgcc.a(_df_to_si.o)
 .bss           0x40061598        0x0 /opt/rtems-4.8-1.1.3/bin/../lib/gcc/sparc-rtems/4.2.4/soft/libgcc.a(_fpcmp_parts_df.o)
 .bss           0x40061598        0x0 /opt/rtems-4.8/sparc-rtems/leon2/lib/librtemsbsp.a(cache.rel)
 .bss           0x40061598        0x0 /opt/rtems-4.8/sparc-rtems/leon2/lib/librtemsbsp.a(libsupport_a-version.o)
 .bss           0x40061598        0x0 /opt/rtems-4.8/sparc-rtems/leon2/lib/librtemscpu.a(libcsupport_a-fstat.o)
 .bss           0x40061598        0x0 /opt/rtems-4.8/sparc-rtems/leon2/lib/librtemscpu.a(libcsupport_a-getpid.o)
 .bss           0x40061598        0x0 /opt/rtems-4.8/sparc-rtems/leon2/lib/librtemscpu.a(libcsupport_a-isatty.o)
 .bss           0x40061598        0x0 /opt/rtems-4.8/sparc-rtems/leon2/lib/librtemscpu.a(libcsupport_a-lseek.o)
 .bss           0x40061598        0x0 /opt/rtems-4.8/sparc-rtems/leon2/lib/librtemscpu.a(libcsupport_a-read.o)
 .bss           0x40061598        0x0 /opt/rtems-4.8/sparc-rtems/leon2/lib/librtemscpu.a(libcsupport_a-write_r.o)
 .bss           0x40061598        0x0 /opt/rtems-4.8/sparc-rtems/leon2/lib/librtemscpu.a(libposix_a-kill.o)
 .bss           0x40061598        0x0 /opt/rtems-4.8/sparc-rtems/leon2/lib/librtemscpu.a(libposix_a-killinfo.o)
 .bss           0x40061598        0x0 /opt/rtems-4.8/sparc-rtems/leon2/lib/librtemscpu.a(libposix_a-psignalsetprocesssignals.o)
 .bss           0x40061598        0x0 /opt/rtems-4.8/sparc-rtems/leon2/lib/librtemscpu.a(libposix_a-psignalunblockthread.o)
 .bss           0x40061598        0x0 /opt/rtems-4.8/sparc-rtems/leon2/lib/librtemscpu.a(libposix_a-pthreadkill.o)
 .bss           0x40061598        0x0 /opt/rtems-4.8/sparc-rtems/leon2/lib/librtemscpu.a(libposix_a-pthreadself.o)
 .bss           0x40061598        0x0 /opt/rtems-4.8/sparc-rtems/leon2/lib/librtemscpu.a(libposix_a-types.o)
 .bss           0x40061598        0x0 /opt/rtems-4.8/sparc-rtems/leon2/lib/librtemscpu.a(libcsupport_a-write.o)
 .bss           0x40061598        0x0 /opt/rtems-4.8-1.1.3/bin/../lib/gcc/sparc-rtems/4.2.4/crtend.o
 .bss           0x40061598        0x0 /opt/rtems-4.8-1.1.3/bin/../lib/gcc/sparc-rtems/4.2.4/crtn.o
 *(COMMON)
 COMMON         0x40061598       0x38 libosal_rtems_rastaleon2.a(rtems-config.o)
                0x40061598                smcconfig
 COMMON         0x400615d0       0x54 libosal_rtems_rastaleon2.a(osstats.o)
                0x400615d0                t_CountSemStats
                0x400615dc                t_BinSemStats
                0x400615e8                t_MutSemStats
                0x400615f4                t_PoolStats
                0x40061600                t_TimerStats
                0x4006160c                t_TaskStats
                0x40061618                t_QueueStats
 COMMON         0x40061624       0x80 /opt/libbackport/lib/libbackport_leon2-4.10-4.8.a(leon2_amba_bus.o)
                0x40061624                leon2_isrs
 COMMON         0x400616a4      0x198 /opt/rtems-4.8/sparc-rtems/leon2/lib/librtemsbsp.a(libnetchip_a-smc91111.o)
                0x400616a4                smc91111
 COMMON         0x4006183c       0x18 /opt/rtems-4.8/sparc-rtems/leon2/lib/librtemscpu.a(check.o)
                0x4006183c                Stack_check_Pattern
                0x4006184c                Stack_check_Interrupt_stack
 COMMON         0x40061854        0xc /opt/rtems-4.8/sparc-rtems/leon2/lib/librtemscpu.a(libcsupport_a-libio_init.o)
                0x40061854                rtems_libio_iops
                0x40061858                rtems_libio_iop_freelist
                0x4006185c                rtems_libio_semaphore
 COMMON         0x40061860       0x68 /opt/rtems-4.8/sparc-rtems/leon2/lib/librtemscpu.a(libcsupport_a-malloc.o)
                0x40061860                RTEMS_Malloc_Heap
                0x400618b8                RTEMS_Malloc_Sbrk_amount
                0x400618bc                RTEMS_Malloc_GC_list
 COMMON         0x400618c8        0xc /opt/rtems-4.8/sparc-rtems/leon2/lib/librtemscpu.a(libcsupport_a-termiosinitialize.o)
                0x400618c8                rtems_termios_ttyMutex
                0x400618cc                rtems_termios_ttyTail
                0x400618d0                rtems_termios_ttyHead
 COMMON         0x400618d4       0x10 /opt/rtems-4.8/sparc-rtems/leon2/lib/librtemscpu.a(libnetworking_a-if.o)
                0x400618d4                ifnet
                0x400618d8                sysctl__net_link_generic_children
                0x400618dc                sysctl__net_link_children
                0x400618e0                ifnet_addrs
 COMMON         0x400618e4        0x4 /opt/rtems-4.8/sparc-rtems/leon2/lib/librtemscpu.a(libnetworking_a-if_ethersubr.o)
                0x400618e4                sysctl__net_link_ether_children
 COMMON         0x400618e8       0xbc /opt/rtems-4.8/sparc-rtems/leon2/lib/librtemscpu.a(libnetworking_a-if_loop.o)
                0x400618e8                loif
 *fill*         0x400619a4        0x4 00
 COMMON         0x400619a8      0x190 /opt/rtems-4.8/sparc-rtems/leon2/lib/librtemscpu.a(libnetworking_a-ip_input.o)
                0x400619a8                ip_protox
                0x40061aa8                ip_nat_ptr
                0x40061aac                ip_fw_ctl_ptr
                0x40061ab0                in_ifaddr
                0x40061ab4                ipstat
                0x40061b18                ip_rsvpd
                0x40061b1c                ip_nat_ctl_ptr
                0x40061b20                ipintrq
                0x40061b34                ip_fw_chk_ptr
 COMMON         0x40061b38        0x2 /opt/rtems-4.8/sparc-rtems/leon2/lib/librtemscpu.a(libnetworking_a-ip_output.o)
                0x40061b38                ip_id
 *fill*         0x40061b3a        0x2 00
 COMMON         0x40061b3c        0xc /opt/rtems-4.8/sparc-rtems/leon2/lib/librtemscpu.a(libnetworking_a-kern_mib.o)
                0x40061b3c                sysctl__kern_children
                0x40061b40                sysctl__net_children
                0x40061b44                sysctl__sysctl_children
 COMMON         0x40061b48       0x14 /opt/rtems-4.8/sparc-rtems/leon2/lib/librtemscpu.a(libnetworking_a-kern_sysctl.o)
                0x40061b48                sysctl__sysctl_next_children
                0x40061b4c                sysctl__sysctl_oiddescr_children
                0x40061b50                sysctl__sysctl_oidfmt_children
                0x40061b54                sysctl__children
                0x40061b58                sysctl__sysctl_name_children
 COMMON         0x40061b5c       0x8c /opt/rtems-4.8/sparc-rtems/leon2/lib/librtemscpu.a(libnetworking_a-route.o)
                0x40061b5c                rt_tables
                0x40061bd4                route_cb
 COMMON         0x40061be8       0x24 /opt/rtems-4.8/sparc-rtems/leon2/lib/librtemscpu.a(libnetworking_a-rtems_glue.o)
                0x40061be8                nfs_diskless_valid
                0x40061bec                the_networkSemaphore
                0x40061bf0                rtems_bsdnet_log_priority
                0x40061bf4                rtems_bsdnet_ticks_per_second
                0x40061bf8                rtems_bsdnet_microseconds_per_tick
                0x40061bfc                calltodo
 COMMON         0x40061c0c        0x4 /opt/rtems-4.8/sparc-rtems/leon2/lib/librtemscpu.a(libnetworking_a-rtsock.o)
                0x40061c0c                sysctl__net_routetable_children
 COMMON         0x40061c10        0x4 /opt/rtems-4.8/sparc-rtems/leon2/lib/librtemscpu.a(libnetworking_a-uipc_domain.o)
                0x40061c10                domains
 COMMON         0x40061c14      0x23c /opt/rtems-4.8/sparc-rtems/leon2/lib/librtemscpu.a(libnetworking_a-uipc_mbuf.o)
                0x40061c14                max_protohdr
                0x40061c18                mclfree
                0x40061c1c                mbstat
                0x40061e38                mbutl
                0x40061e3c                mclrefcnt
                0x40061e40                max_datalen
                0x40061e44                max_hdr
                0x40061e48                max_linkhdr
                0x40061e4c                mmbfree
 COMMON         0x40061e50       0x4c /opt/rtems-4.8/sparc-rtems/leon2/lib/librtemscpu.a(librtems_a-ratemondata.o)
                0x40061e50                _Rate_monotonic_Information
 COMMON         0x40061e9c       0x4c /opt/rtems-4.8/sparc-rtems/leon2/lib/librtemscpu.a(librtems_a-semdata.o)
                0x40061e9c                _Semaphore_Information
 COMMON         0x40061ee8       0x4c /opt/rtems-4.8/sparc-rtems/leon2/lib/librtemscpu.a(librtems_a-taskdata.o)
                0x40061ee8                _RTEMS_tasks_Information
 *fill*         0x40061f34        0xc 00
 COMMON         0x40061f40      0x34c /opt/rtems-4.8/sparc-rtems/leon2/lib/librtemscpu.a(libsapi_a-exinit.o)
                0x40061f40                _CPU_ISR_Dispatch_disable
                0x40061f44                _Thread_Ready_chain
                0x40061f48                _Thread_Ticks_per_timeslice
                0x40061f4c                _CPU_Interrupt_stack_high
                0x40061f50                _Objects_Information_table
                0x40061f68                _Thread_BSP_context
                0x40061ff0                _Thread_Dispatch_disable_level
                0x40061ff4                _User_extensions_Switches_list
                0x40062000                _CPU_Interrupt_stack_low
                0x40062004                _CPU_Table
                0x4006202c                _TOD_Is_set
                0x40062030                _Internal_Objects
                0x4006203c                _Workspace_Area
                0x40062094                _ISR_Vector_table
                0x40062098                _TOD_Uptime
                0x400620a0                _Thread_Allocated_fp
                0x400620a4                _Thread_libc_reent
                0x400620a8                _Thread_Heir
                0x400620ac                _TOD_Now
                0x400620b4                _Configuration_Table
                0x400620b8                _ISR_Nest_level
                0x400620bc                _Thread_Maximum_extensions
                0x400620c0                _Thread_Do_post_task_switch_extension
                0x400620c4                _Priority_Major_bit_map
                0x400620c8                _RTEMS_Allocator_Mutex
                0x400620cc                _Watchdog_Sync_level
                0x400620d0                _Thread_Executing
                0x400620d4                _Debug_Level
                0x400620d8                _Thread_Time_of_last_context_switch
                0x400620e0                _Context_Switch_necessary
                0x400620e4                _Watchdog_Seconds_chain
                0x400620f0                _Watchdog_Ticks_chain
                0x400620fc                _System_state_Is_multiprocessing
                0x40062100                _API_Mutex_Information
                0x40062150                _Priority_Bit_map
                0x40062170                _Watchdog_Sync_count
                0x40062174                _Watchdog_Ticks_since_boot
                0x40062178                _ISR_Signals_to_thread_executing
                0x4006217c                rtems_ada_self
                0x40062180                _Thread_Internal_information
                0x400621cc                _TOD_Microseconds_per_tick
                0x400621d0                _System_state_Current
                0x400621d4                _Watchdog_Nanoseconds_since_tick_handler
                0x400621d8                _Thread_Idle
                0x400621e0                _CPU_Null_fp_context
                0x40062268                Internal_errors_What_happened
                0x40062274                _User_extensions_List
                0x40062280                _API_extensions_List
 COMMON         0x4006228c       0x4c /opt/rtems-4.8/sparc-rtems/leon2/lib/librtemscpu.a(libsapi_a-extensiondata.o)
                0x4006228c                _Extension_Information
 COMMON         0x400622d8        0x8 /opt/rtems-4.8/sparc-rtems/leon2/lib/librtemscpu.a(libsapi_a-iodata.o)
                0x400622d8                _IO_Number_of_drivers
                0x400622dc                _IO_Driver_address_table
 COMMON         0x400622e0      0x380 /opt/rtems-4.8/sparc-rtems/leon2/lib/librtemscpu.a(libsapi_a-posixapi.o)
                0x400622e0                _POSIX_RWLock_Information
                0x4006232c                _POSIX_Threads_Information
                0x40062378                _POSIX_Spinlock_Information
                0x400623c4                _POSIX_Semaphore_Information
                0x40062410                _POSIX_Timer_Information
                0x4006245c                _POSIX_Message_queue_Information
                0x400624a8                _POSIX_Mutex_Information
                0x400624f4                _POSIX_Barrier_Information
                0x40062540                _POSIX_Threads_User_initialization_threads
                0x40062544                _POSIX_Keys_Information
                0x40062590                _POSIX_Condition_variables_Information
                0x400625dc                _POSIX_Objects
                0x40062610                _POSIX_Threads_Number_of_initialization_threads
                0x40062614                _POSIX_Message_queue_Information_fds
 COMMON         0x40062660       0x2c /opt/rtems-4.8/sparc-rtems/leon2/lib/librtemscpu.a(libsapi_a-rtemsapi.o)
                0x40062660                _RTEMS_Objects
 COMMON         0x4006268c       0x40 /opt/rtems-4.8/sparc-rtems/leon2/lib/librtemscpu.a(libcsupport_a-base_fs.o)
                0x4006268c                rtems_global_user_env
 COMMON         0x400626cc        0x4 /opt/rtems-4.8/sparc-rtems/leon2/lib/librtemscpu.a(libcsupport_a-error.o)
                0x400626cc                rtems_panic_in_progress
 COMMON         0x400626d0        0xc /opt/rtems-4.8/sparc-rtems/leon2/lib/librtemscpu.a(libcsupport_a-mount.o)
                0x400626d0                rtems_filesystem_mount_table_control
 COMMON         0x400626dc        0x4 /opt/rtems-4.8/sparc-rtems/leon2/lib/librtemscpu.a(libnetworking_a-if_ether.o)
                0x400626dc                sysctl__net_link_ether_inet_children
 COMMON         0x400626e0        0x8 /opt/rtems-4.8/sparc-rtems/leon2/lib/librtemscpu.a(libnetworking_a-in_pcb.o)
                0x400626e0                zeroin_addr
                0x400626e4                sysctl__net_inet_ip_portrange_children
 COMMON         0x400626e8       0x18 /opt/rtems-4.8/sparc-rtems/leon2/lib/librtemscpu.a(libnetworking_a-in_proto.o)
                0x400626e8                sysctl__net_inet_children
                0x400626ec                sysctl__net_inet_udp_children
                0x400626f0                sysctl__net_inet_igmp_children
                0x400626f4                sysctl__net_inet_icmp_children
                0x400626f8                sysctl__net_inet_ip_children
                0x400626fc                sysctl__net_inet_tcp_children
 COMMON         0x40062700      0x178 /opt/rtems-4.8/sparc-rtems/leon2/lib/librtemscpu.a(libnetworking_a-ip_icmp.o)
                0x40062700                icmplenPanicAvoided
                0x40062704                icmpstat
 COMMON         0x40062878      0x124 /opt/rtems-4.8/sparc-rtems/leon2/lib/librtemscpu.a(libnetworking_a-tcp_input.o)
                0x40062878                tcb
                0x4006287c                tcpstat
                0x40062970                tcbinfo
                0x40062990                tcp_now
                0x40062994                tcp_iss
                0x40062998                tcp_ccgen
 COMMON         0x4006299c        0x4 /opt/rtems-4.8/sparc-rtems/leon2/lib/librtemscpu.a(libnetworking_a-tcp_timer.o)
                0x4006299c                tcp_maxidle
 COMMON         0x400629a0       0x50 /opt/rtems-4.8/sparc-rtems/leon2/lib/librtemscpu.a(libnetworking_a-udp_usrreq.o)
                0x400629a0                udpstat
                0x400629c8                udb
                0x400629d0                udbinfo
 COMMON         0x400629f0      0x350 /opt/rtems-4.8/sparc-rtems/leon2/lib/librtemscpu.a(libposix_a-psignal.o)
                0x400629f0                _POSIX_signals_Vectors
                0x40062b70                _POSIX_signals_Inactive_siginfo
                0x40062b7c                _POSIX_signals_Wait_queue
                0x40062bbc                _POSIX_signals_Pending
                0x40062bc0                _POSIX_signals_Siginfo
 COMMON         0x40062d40       0x4c /opt/rtems-4.8/sparc-rtems/leon2/lib/librtemscpu.a(librtems_a-barrierdata.o)
                0x40062d40                _Barrier_Information
 COMMON         0x40062d8c       0x4c /opt/rtems-4.8/sparc-rtems/leon2/lib/librtemscpu.a(librtems_a-dpmemdata.o)
                0x40062d8c                _Dual_ported_memory_Information
 COMMON         0x40062dd8        0x4 /opt/rtems-4.8/sparc-rtems/leon2/lib/librtemscpu.a(librtems_a-eventdata.o)
                0x40062dd8                _Event_Sync_state
 COMMON         0x40062ddc       0x4c /opt/rtems-4.8/sparc-rtems/leon2/lib/librtemscpu.a(librtems_a-msgdata.o)
                0x40062ddc                _Message_queue_Information
 COMMON         0x40062e28       0x4c /opt/rtems-4.8/sparc-rtems/leon2/lib/librtemscpu.a(librtems_a-partdata.o)
                0x40062e28                _Partition_Information
 COMMON         0x40062e74       0x4c /opt/rtems-4.8/sparc-rtems/leon2/lib/librtemscpu.a(librtems_a-regiondata.o)
                0x40062e74                _Region_Information
 COMMON         0x40062ec0       0x50 /opt/rtems-4.8/sparc-rtems/leon2/lib/librtemscpu.a(librtems_a-rtemstimerdata.o)
                0x40062ec0                _Timer_Information
                0x40062f0c                _Timer_Server
 COMMON         0x40062f10        0x4 /opt/rtems-4.8/sparc-rtems/leon2/lib/librtemscpu.a(libnetworking_a-raw_cb.o)
                0x40062f10                rawcb_list
                0x40062f14                end = .
                0x40062f18                _end = ALIGN (0x8)
                0x40062f18                __end = ALIGN (0x8)

.stab
 *(.stab)

.stabstr
 *(.stabstr)

.sdramdata      0x42000000        0x0
                0x42000000                _sdram_start = ALIGN (0x8)
 *(.sdram*)
                0x42000000                _sdram_end = ALIGN (0x8)
OUTPUT(/home/aitor/workspace/rasta-sw/osal-repo/trunk/samples/misc/soclient elf32-sparc)

.debug_line     0x00000000    0x470ba
 .debug_line    0x00000000      0x121 /opt/rtems-4.8/sparc-rtems/leon2/lib/start.o
 .debug_line    0x00000121      0x3d7 /home/aitor/workspace/rasta-sw/osal-repo/trunk/samples/misc/soclient.o
 .debug_line    0x000004f8      0x235 libosal_rtems_rastaleon2.a(osapi.o)
 .debug_line    0x0000072d      0x675 libosal_rtems_rastaleon2.a(osmut.o)
 .debug_line    0x00000da2      0x65a libosal_rtems_rastaleon2.a(ostask.o)
 .debug_line    0x000013fc      0x61a libosal_rtems_rastaleon2.a(rtems-config.o)
 .debug_line    0x00001a16       0xef libosal_rtems_rastaleon2.a(osstats.o)
 .debug_line    0x00001b05       0x94 /opt/rtems-4.8-1.1.3/bin/../lib/gcc/sparc-rtems/4.2.4/soft/libgcc.a(_mulsi3.o)
 .debug_line    0x00001b99      0x109 /opt/rtems-4.8-1.1.3/bin/../lib/gcc/sparc-rtems/4.2.4/soft/libgcc.a(_divsi3.o)
 .debug_line    0x00001ca2      0x109 /opt/rtems-4.8-1.1.3/bin/../lib/gcc/sparc-rtems/4.2.4/soft/libgcc.a(_modsi3.o)
 .debug_line    0x00001dab       0xfb /opt/rtems-4.8-1.1.3/bin/../lib/gcc/sparc-rtems/4.2.4/soft/libgcc.a(_mul_df.o)
 .debug_line    0x00001ea6       0x50 /opt/rtems-4.8-1.1.3/bin/../lib/gcc/sparc-rtems/4.2.4/soft/libgcc.a(_thenan_df.o)
 .debug_line    0x00001ef6       0x95 /opt/rtems-4.8-1.1.3/bin/../lib/gcc/sparc-rtems/4.2.4/soft/libgcc.a(_usi_to_df.o)
 .debug_line    0x00001f8b       0x64 /opt/rtems-4.8-1.1.3/bin/../lib/gcc/sparc-rtems/4.2.4/soft/libgcc.a(_muldi3.o)
 .debug_line    0x00001fef       0x6c /opt/rtems-4.8-1.1.3/bin/../lib/gcc/sparc-rtems/4.2.4/soft/libgcc.a(_clzsi2.o)
 .debug_line    0x0000205b       0xc9 /opt/rtems-4.8-1.1.3/bin/../lib/gcc/sparc-rtems/4.2.4/soft/libgcc.a(_pack_df.o)
 .debug_line    0x00002124       0x8a /opt/rtems-4.8-1.1.3/bin/../lib/gcc/sparc-rtems/4.2.4/soft/libgcc.a(_unpack_df.o)
 .debug_line    0x000021ae       0x4b /opt/rtems-4.8-1.1.3/bin/../lib/gcc/sparc-rtems/4.2.4/soft/libgcc.a(_clz.o)
 .debug_line    0x000021f9      0x654 /opt/rtems-4.8/sparc-rtems/leon2/lib/librtemsbsp.a(amba.rel)
 .debug_line    0x0000284d      0x4a3 /opt/rtems-4.8/sparc-rtems/leon2/lib/librtemsbsp.a(clock.rel)
 .debug_line    0x00002cf0      0x649 /opt/rtems-4.8/sparc-rtems/leon2/lib/librtemsbsp.a(console.rel)
 .debug_line    0x00003339      0x253 /opt/rtems-4.8/sparc-rtems/leon2/lib/librtemsbsp.a(leon_smc91111.rel)
 .debug_line    0x0000358c      0xf09 /opt/rtems-4.8/sparc-rtems/leon2/lib/librtemsbsp.a(libnetchip_a-smc91111.o)
 .debug_line    0x00004495       0xca /opt/rtems-4.8/sparc-rtems/leon2/lib/librtemsbsp.a(reg_win.rel)
 .debug_line    0x0000455f     0x1b90 /opt/rtems-4.8/sparc-rtems/leon2/lib/librtemsbsp.a(startup.rel)
 .debug_line    0x000060ef       0x8d /opt/rtems-4.8/sparc-rtems/leon2/lib/librtemsbsp.a(syscall.rel)
 .debug_line    0x0000617c      0x361 /opt/rtems-4.8/sparc-rtems/leon2/lib/librtemscpu.a(check.o)
 .debug_line    0x000064dd      0x2df /opt/rtems-4.8/sparc-rtems/leon2/lib/librtemscpu.a(ioman.o)
 .debug_line    0x000067bc      0x310 /opt/rtems-4.8/sparc-rtems/leon2/lib/librtemscpu.a(libc_a-inet_addr.o)
 .debug_line    0x00006acc      0x299 /opt/rtems-4.8/sparc-rtems/leon2/lib/librtemscpu.a(libc_a-inet_pton.o)
 .debug_line    0x00006d65      0x140 /opt/rtems-4.8/sparc-rtems/leon2/lib/librtemscpu.a(libc_a-recv.o)
 .debug_line    0x00006ea5      0x140 /opt/rtems-4.8/sparc-rtems/leon2/lib/librtemscpu.a(libc_a-send.o)
 .debug_line    0x00006fe5      0x199 /opt/rtems-4.8/sparc-rtems/leon2/lib/librtemscpu.a(libcsupport_a-__assert.o)
 .debug_line    0x0000717e      0x2d8 /opt/rtems-4.8/sparc-rtems/leon2/lib/librtemscpu.a(libcsupport_a-close.o)
 .debug_line    0x00007456      0x2eb /opt/rtems-4.8/sparc-rtems/leon2/lib/librtemscpu.a(libcsupport_a-eval.o)
 .debug_line    0x00007741      0x323 /opt/rtems-4.8/sparc-rtems/leon2/lib/librtemscpu.a(libcsupport_a-libio.o)
 .debug_line    0x00007a64      0x2c8 /opt/rtems-4.8/sparc-rtems/leon2/lib/librtemscpu.a(libcsupport_a-libio_init.o)
 .debug_line    0x00007d2c      0x4bd /opt/rtems-4.8/sparc-rtems/leon2/lib/librtemscpu.a(libcsupport_a-malloc.o)
 .debug_line    0x000081e9       0xe2 /opt/rtems-4.8/sparc-rtems/leon2/lib/librtemscpu.a(libcsupport_a-mkdir.o)
 .debug_line    0x000082cb      0x2d7 /opt/rtems-4.8/sparc-rtems/leon2/lib/librtemscpu.a(libcsupport_a-mknod.o)
 .debug_line    0x000085a2      0x401 /opt/rtems-4.8/sparc-rtems/leon2/lib/librtemscpu.a(libcsupport_a-newlibc.o)
 .debug_line    0x000089a3      0x1a9 /opt/rtems-4.8/sparc-rtems/leon2/lib/librtemscpu.a(libcsupport_a-open_dev_console.o)
 .debug_line    0x00008b4c      0x178 /opt/rtems-4.8/sparc-rtems/leon2/lib/librtemscpu.a(libcsupport_a-printk.o)
 .debug_line    0x00008cc4       0xd5 /opt/rtems-4.8/sparc-rtems/leon2/lib/librtemscpu.a(libcsupport_a-printk_plugin.o)
 .debug_line    0x00008d99      0x866 /opt/rtems-4.8/sparc-rtems/leon2/lib/librtemscpu.a(libcsupport_a-termios.o)
 .debug_line    0x000095ff      0x1ee /opt/rtems-4.8/sparc-rtems/leon2/lib/librtemscpu.a(libcsupport_a-termiosinitialize.o)
 .debug_line    0x000097ed      0x62a /opt/rtems-4.8/sparc-rtems/leon2/lib/librtemscpu.a(libnetworking_a-if.o)
 .debug_line    0x00009e17      0x5df /opt/rtems-4.8/sparc-rtems/leon2/lib/librtemscpu.a(libnetworking_a-if_ethersubr.o)
 .debug_line    0x0000a3f6      0x44c /opt/rtems-4.8/sparc-rtems/leon2/lib/librtemscpu.a(libnetworking_a-if_loop.o)
 .debug_line    0x0000a842      0x9b6 /opt/rtems-4.8/sparc-rtems/leon2/lib/librtemscpu.a(libnetworking_a-ip_input.o)
 .debug_line    0x0000b1f8      0x447 /opt/rtems-4.8/sparc-rtems/leon2/lib/librtemscpu.a(libnetworking_a-ip_mroute.o)
 .debug_line    0x0000b63f      0x891 /opt/rtems-4.8/sparc-rtems/leon2/lib/librtemscpu.a(libnetworking_a-ip_output.o)
 .debug_line    0x0000bed0      0x1c2 /opt/rtems-4.8/sparc-rtems/leon2/lib/librtemscpu.a(libnetworking_a-kern_mib.o)
 .debug_line    0x0000c092      0x5e9 /opt/rtems-4.8/sparc-rtems/leon2/lib/librtemscpu.a(libnetworking_a-kern_sysctl.o)
 .debug_line    0x0000c67b      0x627 /opt/rtems-4.8/sparc-rtems/leon2/lib/librtemscpu.a(libnetworking_a-radix.o)
 .debug_line    0x0000cca2      0x5c3 /opt/rtems-4.8/sparc-rtems/leon2/lib/librtemscpu.a(libnetworking_a-raw_ip.o)
 .debug_line    0x0000d265      0x6de /opt/rtems-4.8/sparc-rtems/leon2/lib/librtemscpu.a(libnetworking_a-route.o)
 .debug_line    0x0000d943      0xa87 /opt/rtems-4.8/sparc-rtems/leon2/lib/librtemscpu.a(libnetworking_a-rtems_glue.o)
 .debug_line    0x0000e3ca      0x38d /opt/rtems-4.8/sparc-rtems/leon2/lib/librtemscpu.a(libnetworking_a-rtems_malloc_mbuf.o)
 .debug_line    0x0000e757      0x47b /opt/rtems-4.8/sparc-rtems/leon2/lib/librtemscpu.a(libnetworking_a-rtems_showifstat.o)
 .debug_line    0x0000ebd2      0x4a3 /opt/rtems-4.8/sparc-rtems/leon2/lib/librtemscpu.a(libnetworking_a-rtems_showroute.o)
 .debug_line    0x0000f075      0x6fd /opt/rtems-4.8/sparc-rtems/leon2/lib/librtemscpu.a(libnetworking_a-rtems_syscall.o)
 .debug_line    0x0000f772      0x6dc /opt/rtems-4.8/sparc-rtems/leon2/lib/librtemscpu.a(libnetworking_a-rtsock.o)
 .debug_line    0x0000fe4e      0x1b8 /opt/rtems-4.8/sparc-rtems/leon2/lib/librtemscpu.a(libnetworking_a-sghostname.o)
 .debug_line    0x00010006      0x334 /opt/rtems-4.8/sparc-rtems/leon2/lib/librtemscpu.a(libnetworking_a-uipc_domain.o)
 .debug_line    0x0001033a      0x5b0 /opt/rtems-4.8/sparc-rtems/leon2/lib/librtemscpu.a(libnetworking_a-uipc_mbuf.o)
 .debug_line    0x000108ea      0x85e /opt/rtems-4.8/sparc-rtems/leon2/lib/librtemscpu.a(libnetworking_a-uipc_socket.o)
 .debug_line    0x00011148      0x5be /opt/rtems-4.8/sparc-rtems/leon2/lib/librtemscpu.a(libnetworking_a-uipc_socket2.o)
 .debug_line    0x00011706      0x34b /opt/rtems-4.8/sparc-rtems/leon2/lib/librtemscpu.a(librtems_a-clockget.o)
 .debug_line    0x00011a51      0x2d6 /opt/rtems-4.8/sparc-rtems/leon2/lib/librtemscpu.a(librtems_a-clocksetnsecshandler.o)
 .debug_line    0x00011d27      0x303 /opt/rtems-4.8/sparc-rtems/leon2/lib/librtemscpu.a(librtems_a-clocktick.o)
 .debug_line    0x0001202a      0x345 /opt/rtems-4.8/sparc-rtems/leon2/lib/librtemscpu.a(librtems_a-eventreceive.o)
 .debug_line    0x0001236f      0x3b7 /opt/rtems-4.8/sparc-rtems/leon2/lib/librtemscpu.a(librtems_a-eventseize.o)
 .debug_line    0x00012726      0x381 /opt/rtems-4.8/sparc-rtems/leon2/lib/librtemscpu.a(librtems_a-eventsend.o)
 .debug_line    0x00012aa7      0x382 /opt/rtems-4.8/sparc-rtems/leon2/lib/librtemscpu.a(librtems_a-eventsurrender.o)
 .debug_line    0x00012e29      0x34b /opt/rtems-4.8/sparc-rtems/leon2/lib/librtemscpu.a(librtems_a-eventtimeout.o)
 .debug_line    0x00013174      0x181 /opt/rtems-4.8/sparc-rtems/leon2/lib/librtemscpu.a(librtems_a-intrcatch.o)
 .debug_line    0x000132f5      0x38e /opt/rtems-4.8/sparc-rtems/leon2/lib/librtemscpu.a(librtems_a-ratemoncreate.o)
 .debug_line    0x00013683      0x267 /opt/rtems-4.8/sparc-rtems/leon2/lib/librtemscpu.a(librtems_a-ratemondata.o)
 .debug_line    0x000138ea      0x345 /opt/rtems-4.8/sparc-rtems/leon2/lib/librtemscpu.a(librtems_a-ratemondelete.o)
 .debug_line    0x00013c2f      0x414 /opt/rtems-4.8/sparc-rtems/leon2/lib/librtemscpu.a(librtems_a-ratemonperiod.o)
 .debug_line    0x00014043      0x33f /opt/rtems-4.8/sparc-rtems/leon2/lib/librtemscpu.a(librtems_a-ratemontimeout.o)
 .debug_line    0x00014382      0x18c /opt/rtems-4.8/sparc-rtems/leon2/lib/librtemscpu.a(librtems_a-rtemsobjectgetname.o)
 .debug_line    0x0001450e      0x3f3 /opt/rtems-4.8/sparc-rtems/leon2/lib/librtemscpu.a(librtems_a-semcreate.o)
 .debug_line    0x00014901      0x27c /opt/rtems-4.8/sparc-rtems/leon2/lib/librtemscpu.a(librtems_a-semdata.o)
 .debug_line    0x00014b7d      0x3ab /opt/rtems-4.8/sparc-rtems/leon2/lib/librtemscpu.a(librtems_a-semdelete.o)
 .debug_line    0x00014f28      0x354 /opt/rtems-4.8/sparc-rtems/leon2/lib/librtemscpu.a(librtems_a-semflush.o)
 .debug_line    0x0001527c      0x4a4 /opt/rtems-4.8/sparc-rtems/leon2/lib/librtemscpu.a(librtems_a-semobtain.o)
 .debug_line    0x00015720      0x36e /opt/rtems-4.8/sparc-rtems/leon2/lib/librtemscpu.a(librtems_a-semrelease.o)
 .debug_line    0x00015a8e      0x313 /opt/rtems-4.8/sparc-rtems/leon2/lib/librtemscpu.a(librtems_a-semtranslatereturncode.o)
 .debug_line    0x00015da1      0x3dd /opt/rtems-4.8/sparc-rtems/leon2/lib/librtemscpu.a(librtems_a-taskcreate.o)
 .debug_line    0x0001617e      0x265 /opt/rtems-4.8/sparc-rtems/leon2/lib/librtemscpu.a(librtems_a-taskdata.o)
 .debug_line    0x000163e3      0x390 /opt/rtems-4.8/sparc-rtems/leon2/lib/librtemscpu.a(librtems_a-taskdelete.o)
 .debug_line    0x00016773      0x301 /opt/rtems-4.8/sparc-rtems/leon2/lib/librtemscpu.a(librtems_a-taskident.o)
 .debug_line    0x00016a74      0x3f5 /opt/rtems-4.8/sparc-rtems/leon2/lib/librtemscpu.a(librtems_a-taskinitusers.o)
 .debug_line    0x00016e69      0x36f /opt/rtems-4.8/sparc-rtems/leon2/lib/librtemscpu.a(librtems_a-taskresume.o)
 .debug_line    0x000171d8      0x373 /opt/rtems-4.8/sparc-rtems/leon2/lib/librtemscpu.a(librtems_a-tasksetpriority.o)
 .debug_line    0x0001754b      0x362 /opt/rtems-4.8/sparc-rtems/leon2/lib/librtemscpu.a(librtems_a-taskstart.o)
 .debug_line    0x000178ad      0x370 /opt/rtems-4.8/sparc-rtems/leon2/lib/librtemscpu.a(librtems_a-tasksuspend.o)
 .debug_line    0x00017c1d      0x39c /opt/rtems-4.8/sparc-rtems/leon2/lib/librtemscpu.a(librtems_a-taskvariableadd.o)
 .debug_line    0x00017fb9      0x358 /opt/rtems-4.8/sparc-rtems/leon2/lib/librtemscpu.a(librtems_a-taskwakeafter.o)
 .debug_line    0x00018311      0x541 /opt/rtems-4.8/sparc-rtems/leon2/lib/librtemscpu.a(libsapi_a-exinit.o)
 .debug_line    0x00018852      0x2be /opt/rtems-4.8/sparc-rtems/leon2/lib/librtemscpu.a(libsapi_a-extension.o)
 .debug_line    0x00018b10      0x263 /opt/rtems-4.8/sparc-rtems/leon2/lib/librtemscpu.a(libsapi_a-extensiondata.o)
 .debug_line    0x00018d73      0x119 /opt/rtems-4.8/sparc-rtems/leon2/lib/librtemscpu.a(libsapi_a-fatal.o)
 .debug_line    0x00018e8c       0xb5 /opt/rtems-4.8/sparc-rtems/leon2/lib/librtemscpu.a(libsapi_a-getversionstring.o)
 .debug_line    0x00018f41      0x325 /opt/rtems-4.8/sparc-rtems/leon2/lib/librtemscpu.a(libsapi_a-io.o)
 .debug_line    0x00019266       0xfb /opt/rtems-4.8/sparc-rtems/leon2/lib/librtemscpu.a(libsapi_a-iodata.o)
 .debug_line    0x00019361      0x15d /opt/rtems-4.8/sparc-rtems/leon2/lib/librtemscpu.a(libsapi_a-ioinitialize.o)
 .debug_line    0x000194be      0x1c4 /opt/rtems-4.8/sparc-rtems/leon2/lib/librtemscpu.a(libsapi_a-ioregisterdriver.o)
 .debug_line    0x00019682      0x436 /opt/rtems-4.8/sparc-rtems/leon2/lib/librtemscpu.a(libsapi_a-posixapi.o)
 .debug_line    0x00019ab8      0x42d /opt/rtems-4.8/sparc-rtems/leon2/lib/librtemscpu.a(libsapi_a-rtemsapi.o)
 .debug_line    0x00019ee5      0x2e3 /opt/rtems-4.8/sparc-rtems/leon2/lib/librtemscpu.a(libscore_a-apiext.o)
 .debug_line    0x0001a1c8      0x145 /opt/rtems-4.8/sparc-rtems/leon2/lib/librtemscpu.a(libscore_a-chainappend.o)
 .debug_line    0x0001a30d      0x15a /opt/rtems-4.8/sparc-rtems/leon2/lib/librtemscpu.a(libscore_a-chainget.o)
 .debug_line    0x0001a467      0x2c2 /opt/rtems-4.8/sparc-rtems/leon2/lib/librtemscpu.a(libscore_a-coremutex.o)
 .debug_line    0x0001a729      0x2ad /opt/rtems-4.8/sparc-rtems/leon2/lib/librtemscpu.a(libscore_a-coremutexflush.o)
 .debug_line    0x0001a9d6      0x2da /opt/rtems-4.8/sparc-rtems/leon2/lib/librtemscpu.a(libscore_a-coremutexseize.o)
 .debug_line    0x0001acb0      0x308 /opt/rtems-4.8/sparc-rtems/leon2/lib/librtemscpu.a(libscore_a-coremutexsurrender.o)
 .debug_line    0x0001afb8      0x29d /opt/rtems-4.8/sparc-rtems/leon2/lib/librtemscpu.a(libscore_a-coresem.o)
 .debug_line    0x0001b255      0x29b /opt/rtems-4.8/sparc-rtems/leon2/lib/librtemscpu.a(libscore_a-coresemflush.o)
 .debug_line    0x0001b4f0      0x2a7 /opt/rtems-4.8/sparc-rtems/leon2/lib/librtemscpu.a(libscore_a-coresemsurrender.o)
 .debug_line    0x0001b797      0x29c /opt/rtems-4.8/sparc-rtems/leon2/lib/librtemscpu.a(libscore_a-coretod.o)
 .debug_line    0x0001ba33      0x218 /opt/rtems-4.8/sparc-rtems/leon2/lib/librtemscpu.a(libscore_a-coretodget.o)
 .debug_line    0x0001bc4b      0x21e /opt/rtems-4.8/sparc-rtems/leon2/lib/librtemscpu.a(libscore_a-coretodgetuptime.o)
 .debug_line    0x0001be69      0x2b8 /opt/rtems-4.8/sparc-rtems/leon2/lib/librtemscpu.a(libscore_a-coretodtickle.o)
 .debug_line    0x0001c121      0x2b5 /opt/rtems-4.8/sparc-rtems/leon2/lib/librtemscpu.a(libscore_a-heap.o)
 .debug_line    0x0001c3d6      0x1d4 /opt/rtems-4.8/sparc-rtems/leon2/lib/librtemscpu.a(libscore_a-heapallocate.o)
 .debug_line    0x0001c5aa      0x1f1 /opt/rtems-4.8/sparc-rtems/leon2/lib/librtemscpu.a(libscore_a-heapfree.o)
 .debug_line    0x0001c79b      0x2b3 /opt/rtems-4.8/sparc-rtems/leon2/lib/librtemscpu.a(libscore_a-interr.o)
 .debug_line    0x0001ca4e      0x1a9 /opt/rtems-4.8/sparc-rtems/leon2/lib/librtemscpu.a(libscore_a-isr.o)
 .debug_line    0x0001cbf7      0x29c /opt/rtems-4.8/sparc-rtems/leon2/lib/librtemscpu.a(libscore_a-iterateoverthreads.o)
 .debug_line    0x0001ce93      0x2af /opt/rtems-4.8/sparc-rtems/leon2/lib/librtemscpu.a(libscore_a-object.o)
 .debug_line    0x0001d142      0x2d3 /opt/rtems-4.8/sparc-rtems/leon2/lib/librtemscpu.a(libscore_a-objectallocate.o)
 .debug_line    0x0001d415      0x3fa /opt/rtems-4.8/sparc-rtems/leon2/lib/librtemscpu.a(libscore_a-objectextendinformation.o)
 .debug_line    0x0001d80f      0x2c3 /opt/rtems-4.8/sparc-rtems/leon2/lib/librtemscpu.a(libscore_a-objectfree.o)
 .debug_line    0x0001dad2      0x2de /opt/rtems-4.8/sparc-rtems/leon2/lib/librtemscpu.a(libscore_a-objectget.o)
 .debug_line    0x0001ddb0      0x2bf /opt/rtems-4.8/sparc-rtems/leon2/lib/librtemscpu.a(libscore_a-objectgetisr.o)
 .debug_line    0x0001e06f      0x2f0 /opt/rtems-4.8/sparc-rtems/leon2/lib/librtemscpu.a(libscore_a-objectgetnameasstring.o)
 .debug_line    0x0001e35f      0x336 /opt/rtems-4.8/sparc-rtems/leon2/lib/librtemscpu.a(libscore_a-objectinitializeinformation.o)
 .debug_line    0x0001e695      0x2dc /opt/rtems-4.8/sparc-rtems/leon2/lib/librtemscpu.a(libscore_a-objectnametoid.o)
 .debug_line    0x0001e971      0x357 /opt/rtems-4.8/sparc-rtems/leon2/lib/librtemscpu.a(libscore_a-objectshrinkinformation.o)
 .debug_line    0x0001ecc8      0x3fa /opt/rtems-4.8/sparc-rtems/leon2/lib/librtemscpu.a(libscore_a-pheapallocate.o)
 .debug_line    0x0001f0c2      0x3f5 /opt/rtems-4.8/sparc-rtems/leon2/lib/librtemscpu.a(libscore_a-pheapextend.o)
 .debug_line    0x0001f4b7      0x3f6 /opt/rtems-4.8/sparc-rtems/leon2/lib/librtemscpu.a(libscore_a-pheapfree.o)
 .debug_line    0x0001f8ad      0x3fe /opt/rtems-4.8/sparc-rtems/leon2/lib/librtemscpu.a(libscore_a-pheapgetblocksize.o)
 .debug_line    0x0001fcab      0x3fa /opt/rtems-4.8/sparc-rtems/leon2/lib/librtemscpu.a(libscore_a-pheapresizeblock.o)
 .debug_line    0x000200a5      0x31f /opt/rtems-4.8/sparc-rtems/leon2/lib/librtemscpu.a(libscore_a-thread.o)
 .debug_line    0x000203c4      0x357 /opt/rtems-4.8/sparc-rtems/leon2/lib/librtemscpu.a(libscore_a-threadchangepriority.o)
 .debug_line    0x0002071b      0x33f /opt/rtems-4.8/sparc-rtems/leon2/lib/librtemscpu.a(libscore_a-threadclearstate.o)
 .debug_line    0x00020a5a      0x317 /opt/rtems-4.8/sparc-rtems/leon2/lib/librtemscpu.a(libscore_a-threadclose.o)
 .debug_line    0x00020d71      0x31a /opt/rtems-4.8/sparc-rtems/leon2/lib/librtemscpu.a(libscore_a-threadcreateidle.o)
 .debug_line    0x0002108b      0x2fb /opt/rtems-4.8/sparc-rtems/leon2/lib/librtemscpu.a(libscore_a-threaddelayended.o)
 .debug_line    0x00021386      0x303 /opt/rtems-4.8/sparc-rtems/leon2/lib/librtemscpu.a(libscore_a-threaddispatch.o)
 .debug_line    0x00021689      0x2a8 /opt/rtems-4.8/sparc-rtems/leon2/lib/librtemscpu.a(libscore_a-threadidlebody.o)
 .debug_line    0x00021931      0x3b5 /opt/rtems-4.8/sparc-rtems/leon2/lib/librtemscpu.a(libscore_a-threadinitialize.o)
 .debug_line    0x00021ce6      0x2b1 /opt/rtems-4.8/sparc-rtems/leon2/lib/librtemscpu.a(libscore_a-threadq.o)
 .debug_line    0x00021f97      0x28b /opt/rtems-4.8/sparc-rtems/leon2/lib/librtemscpu.a(libscore_a-threadqdequeue.o)
 .debug_line    0x00022222      0x303 /opt/rtems-4.8/sparc-rtems/leon2/lib/librtemscpu.a(libscore_a-threadqdequeuefifo.o)
 .debug_line    0x00022525      0x320 /opt/rtems-4.8/sparc-rtems/leon2/lib/librtemscpu.a(libscore_a-threadqdequeuepriority.o)
 .debug_line    0x00022845      0x2cb /opt/rtems-4.8/sparc-rtems/leon2/lib/librtemscpu.a(libscore_a-threadqenqueue.o)
 .debug_line    0x00022b10      0x2ff /opt/rtems-4.8/sparc-rtems/leon2/lib/librtemscpu.a(libscore_a-threadqenqueuefifo.o)
 .debug_line    0x00022e0f      0x3ba /opt/rtems-4.8/sparc-rtems/leon2/lib/librtemscpu.a(libscore_a-threadqenqueuepriority.o)
 .debug_line    0x000231c9      0x2b5 /opt/rtems-4.8/sparc-rtems/leon2/lib/librtemscpu.a(libscore_a-threadqextractwithproxy.o)
 .debug_line    0x0002347e      0x291 /opt/rtems-4.8/sparc-rtems/leon2/lib/librtemscpu.a(libscore_a-threadqflush.o)
 .debug_line    0x0002370f      0x2b2 /opt/rtems-4.8/sparc-rtems/leon2/lib/librtemscpu.a(libscore_a-threadqrequeue.o)
 .debug_line    0x000239c1      0x2ef /opt/rtems-4.8/sparc-rtems/leon2/lib/librtemscpu.a(libscore_a-threadqtimeout.o)
 .debug_line    0x00023cb0      0x350 /opt/rtems-4.8/sparc-rtems/leon2/lib/librtemscpu.a(libscore_a-threadresume.o)
 .debug_line    0x00024000      0x2ee /opt/rtems-4.8/sparc-rtems/leon2/lib/librtemscpu.a(libscore_a-threadsetpriority.o)
 .debug_line    0x000242ee      0x351 /opt/rtems-4.8/sparc-rtems/leon2/lib/librtemscpu.a(libscore_a-threadsetstate.o)
 .debug_line    0x0002463f      0x326 /opt/rtems-4.8/sparc-rtems/leon2/lib/librtemscpu.a(libscore_a-threadsettransient.o)
 .debug_line    0x00024965      0x31a /opt/rtems-4.8/sparc-rtems/leon2/lib/librtemscpu.a(libscore_a-threadstackallocate.o)
 .debug_line    0x00024c7f      0x2fe /opt/rtems-4.8/sparc-rtems/leon2/lib/librtemscpu.a(libscore_a-threadstackfree.o)
 .debug_line    0x00024f7d      0x2be /opt/rtems-4.8/sparc-rtems/leon2/lib/librtemscpu.a(libscore_a-threadstart.o)
 .debug_line    0x0002523b      0x2e9 /opt/rtems-4.8/sparc-rtems/leon2/lib/librtemscpu.a(libscore_a-threadstartmultitasking.o)
 .debug_line    0x00025524      0x355 /opt/rtems-4.8/sparc-rtems/leon2/lib/librtemscpu.a(libscore_a-threadsuspend.o)
 .debug_line    0x00025879      0x2cf /opt/rtems-4.8/sparc-rtems/leon2/lib/librtemscpu.a(libscore_a-threadtickletimeslice.o)
 .debug_line    0x00025b48      0x302 /opt/rtems-4.8/sparc-rtems/leon2/lib/librtemscpu.a(libscore_a-threadyieldprocessor.o)
 .debug_line    0x00025e4a      0x20f /opt/rtems-4.8/sparc-rtems/leon2/lib/librtemscpu.a(libscore_a-timespecaddto.o)
 .debug_line    0x00026059      0x20a /opt/rtems-4.8/sparc-rtems/leon2/lib/librtemscpu.a(libscore_a-timespecgreaterthan.o)
 .debug_line    0x00026263      0x207 /opt/rtems-4.8/sparc-rtems/leon2/lib/librtemscpu.a(libscore_a-timespeclessthan.o)
 .debug_line    0x0002646a      0x211 /opt/rtems-4.8/sparc-rtems/leon2/lib/librtemscpu.a(libscore_a-timespecsubtract.o)
 .debug_line    0x0002667b      0x2d6 /opt/rtems-4.8/sparc-rtems/leon2/lib/librtemscpu.a(libscore_a-userext.o)
 .debug_line    0x00026951      0x2a1 /opt/rtems-4.8/sparc-rtems/leon2/lib/librtemscpu.a(libscore_a-userextaddset.o)
 .debug_line    0x00026bf2      0x2d8 /opt/rtems-4.8/sparc-rtems/leon2/lib/librtemscpu.a(libscore_a-userextthreadbegin.o)
 .debug_line    0x00026eca      0x2cb /opt/rtems-4.8/sparc-rtems/leon2/lib/librtemscpu.a(libscore_a-userextthreadcreate.o)
 .debug_line    0x00027195      0x2b8 /opt/rtems-4.8/sparc-rtems/leon2/lib/librtemscpu.a(libscore_a-userextthreaddelete.o)
 .debug_line    0x0002744d      0x2c1 /opt/rtems-4.8/sparc-rtems/leon2/lib/librtemscpu.a(libscore_a-userextthreadstart.o)
 .debug_line    0x0002770e      0x2b3 /opt/rtems-4.8/sparc-rtems/leon2/lib/librtemscpu.a(libscore_a-userextthreadswitch.o)
 .debug_line    0x000279c1      0x1bd /opt/rtems-4.8/sparc-rtems/leon2/lib/librtemscpu.a(libscore_a-watchdog.o)
 .debug_line    0x00027b7e      0x24a /opt/rtems-4.8/sparc-rtems/leon2/lib/librtemscpu.a(libscore_a-watchdoginsert.o)
 .debug_line    0x00027dc8      0x1f3 /opt/rtems-4.8/sparc-rtems/leon2/lib/librtemscpu.a(libscore_a-watchdogremove.o)
 .debug_line    0x00027fbb      0x209 /opt/rtems-4.8/sparc-rtems/leon2/lib/librtemscpu.a(libscore_a-watchdogtickle.o)
 .debug_line    0x000281c4      0x212 /opt/rtems-4.8/sparc-rtems/leon2/lib/librtemscpu.a(libscore_a-wkspace.o)
 .debug_line    0x000283d6      0x1c6 /opt/rtems-4.8/sparc-rtems/leon2/lib/librtemscpu.a(libscorecpu_a-cpu.o)
 .debug_line    0x0002859c      0x1e2 /opt/rtems-4.8/sparc-rtems/leon2/lib/librtemscpu.a(libscorecpu_a-cpu_asm.o)
 .debug_line    0x0002877e      0x2af /opt/rtems-4.8/sparc-rtems/leon2/lib/librtemscpu.a(miniimfs_init.o)
 .debug_line    0x00028a2d      0x446 /opt/rtems-4.8/sparc-rtems/leon2/lib/librtemscpu.a(imfs_eval.o)
 .debug_line    0x00028e73      0x2dd /opt/rtems-4.8/sparc-rtems/leon2/lib/librtemscpu.a(imfs_getchild.o)
 .debug_line    0x00029150      0x1c9 /opt/rtems-4.8/sparc-rtems/leon2/lib/librtemscpu.a(imfs_gtkn.o)
 .debug_line    0x00029319      0x29b /opt/rtems-4.8/sparc-rtems/leon2/lib/librtemscpu.a(imfs_handlers_device.o)
 .debug_line    0x000295b4      0x299 /opt/rtems-4.8/sparc-rtems/leon2/lib/librtemscpu.a(imfs_handlers_link.o)
 .debug_line    0x0002984d      0x2dd /opt/rtems-4.8/sparc-rtems/leon2/lib/librtemscpu.a(imfs_initsupp.o)
 .debug_line    0x00029b2a      0x2bf /opt/rtems-4.8/sparc-rtems/leon2/lib/librtemscpu.a(imfs_mknod.o)
 .debug_line    0x00029de9      0x2ab /opt/rtems-4.8/sparc-rtems/leon2/lib/librtemscpu.a(imfs_ntype.o)
 .debug_line    0x0002a094      0x2e3 /opt/rtems-4.8/sparc-rtems/leon2/lib/librtemscpu.a(imfs_rmnod.o)
 .debug_line    0x0002a377      0x2d4 /opt/rtems-4.8/sparc-rtems/leon2/lib/librtemscpu.a(imfs_stat.o)
 .debug_line    0x0002a64b      0x244 /opt/rtems-4.8/sparc-rtems/leon2/lib/librtemscpu.a(libc_a-inet_ntoa.o)
 .debug_line    0x0002a88f      0x300 /opt/rtems-4.8/sparc-rtems/leon2/lib/librtemscpu.a(libc_a-inet_ntop.o)
 .debug_line    0x0002ab8f      0x3b6 /opt/rtems-4.8/sparc-rtems/leon2/lib/librtemscpu.a(libcsupport_a-__gettod.o)
 .debug_line    0x0002af45      0x1de /opt/rtems-4.8/sparc-rtems/leon2/lib/librtemscpu.a(libcsupport_a-assoclocalbyremote.o)
 .debug_line    0x0002b123      0x1ea /opt/rtems-4.8/sparc-rtems/leon2/lib/librtemscpu.a(libcsupport_a-assoclocalbyremotebitfield.o)
 .debug_line    0x0002b30d      0x1e3 /opt/rtems-4.8/sparc-rtems/leon2/lib/librtemscpu.a(libcsupport_a-assocptrbyremote.o)
 .debug_line    0x0002b4f0      0x2f8 /opt/rtems-4.8/sparc-rtems/leon2/lib/librtemscpu.a(libcsupport_a-base_fs.o)
 .debug_line    0x0002b7e8      0x3fc /opt/rtems-4.8/sparc-rtems/leon2/lib/librtemscpu.a(libcsupport_a-error.o)
 .debug_line    0x0002bbe4      0x298 /opt/rtems-4.8/sparc-rtems/leon2/lib/librtemscpu.a(libcsupport_a-fs_null_handlers.o)
 .debug_line    0x0002be7c      0x283 /opt/rtems-4.8/sparc-rtems/leon2/lib/librtemscpu.a(libcsupport_a-getegid.o)
 .debug_line    0x0002c0ff      0x283 /opt/rtems-4.8/sparc-rtems/leon2/lib/librtemscpu.a(libcsupport_a-geteuid.o)
 .debug_line    0x0002c382      0x380 /opt/rtems-4.8/sparc-rtems/leon2/lib/librtemscpu.a(libcsupport_a-ioctl.o)
 .debug_line    0x0002c702      0x2ce /opt/rtems-4.8/sparc-rtems/leon2/lib/librtemscpu.a(libcsupport_a-libio_sockets.o)
 .debug_line    0x0002c9d0      0x350 /opt/rtems-4.8/sparc-rtems/leon2/lib/librtemscpu.a(libcsupport_a-mount.o)
 .debug_line    0x0002cd20      0x3a4 /opt/rtems-4.8/sparc-rtems/leon2/lib/librtemscpu.a(libcsupport_a-newlibc_exit.o)
 .debug_line    0x0002d0c4      0x331 /opt/rtems-4.8/sparc-rtems/leon2/lib/librtemscpu.a(libcsupport_a-open.o)
 .debug_line    0x0002d3f5      0x617 /opt/rtems-4.8/sparc-rtems/leon2/lib/librtemscpu.a(libnetworking_a-if_ether.o)
 .debug_line    0x0002da0c      0x699 /opt/rtems-4.8/sparc-rtems/leon2/lib/librtemscpu.a(libnetworking_a-in.o)
 .debug_line    0x0002e0a5      0x2ae /opt/rtems-4.8/sparc-rtems/leon2/lib/librtemscpu.a(libnetworking_a-in_cksum.o)
 .debug_line    0x0002e353      0x6a1 /opt/rtems-4.8/sparc-rtems/leon2/lib/librtemscpu.a(libnetworking_a-in_pcb.o)
 .debug_line    0x0002e9f4      0x411 /opt/rtems-4.8/sparc-rtems/leon2/lib/librtemscpu.a(libnetworking_a-in_proto.o)
 .debug_line    0x0002ee05      0x4fb /opt/rtems-4.8/sparc-rtems/leon2/lib/librtemscpu.a(libnetworking_a-in_rmx.o)
 .debug_line    0x0002f300      0x686 /opt/rtems-4.8/sparc-rtems/leon2/lib/librtemscpu.a(libnetworking_a-ip_icmp.o)
 .debug_line    0x0002f986      0x2a4 /opt/rtems-4.8/sparc-rtems/leon2/lib/librtemscpu.a(libnetworking_a-kern_subr.o)
 .debug_line    0x0002fc2a      0x484 /opt/rtems-4.8/sparc-rtems/leon2/lib/librtemscpu.a(libnetworking_a-raw_usrreq.o)
 .debug_line    0x000300ae      0x1b0 /opt/rtems-4.8/sparc-rtems/leon2/lib/librtemscpu.a(libnetworking_a-rtems_bsdnet_malloc_starvation.o)
 .debug_line    0x0003025e      0xbb4 /opt/rtems-4.8/sparc-rtems/leon2/lib/librtemscpu.a(libnetworking_a-tcp_input.o)
 .debug_line    0x00030e12      0x6be /opt/rtems-4.8/sparc-rtems/leon2/lib/librtemscpu.a(libnetworking_a-tcp_output.o)
 .debug_line    0x000314d0      0x6dd /opt/rtems-4.8/sparc-rtems/leon2/lib/librtemscpu.a(libnetworking_a-tcp_subr.o)
 .debug_line    0x00031bad      0x559 /opt/rtems-4.8/sparc-rtems/leon2/lib/librtemscpu.a(libnetworking_a-tcp_timer.o)
 .debug_line    0x00032106      0x67b /opt/rtems-4.8/sparc-rtems/leon2/lib/librtemscpu.a(libnetworking_a-tcp_usrreq.o)
 .debug_line    0x00032781      0x683 /opt/rtems-4.8/sparc-rtems/leon2/lib/librtemscpu.a(libnetworking_a-udp_usrreq.o)
 .debug_line    0x00032e04      0x2d4 /opt/rtems-4.8/sparc-rtems/leon2/lib/librtemscpu.a(libposix_a-cond.o)
 .debug_line    0x000330d8      0x2d0 /opt/rtems-4.8/sparc-rtems/leon2/lib/librtemscpu.a(libposix_a-key.o)
 .debug_line    0x000333a8      0x2c2 /opt/rtems-4.8/sparc-rtems/leon2/lib/librtemscpu.a(libposix_a-mqueue.o)
 .debug_line    0x0003366a      0x2cb /opt/rtems-4.8/sparc-rtems/leon2/lib/librtemscpu.a(libposix_a-mutex.o)
 .debug_line    0x00033935      0x2c2 /opt/rtems-4.8/sparc-rtems/leon2/lib/librtemscpu.a(libposix_a-pbarrier.o)
 .debug_line    0x00033bf7      0x2c0 /opt/rtems-4.8/sparc-rtems/leon2/lib/librtemscpu.a(libposix_a-prwlock.o)
 .debug_line    0x00033eb7      0x34f /opt/rtems-4.8/sparc-rtems/leon2/lib/librtemscpu.a(libposix_a-psignal.o)
 .debug_line    0x00034206      0x32c /opt/rtems-4.8/sparc-rtems/leon2/lib/librtemscpu.a(libposix_a-psignalchecksignal.o)
 .debug_line    0x00034532      0x3a8 /opt/rtems-4.8/sparc-rtems/leon2/lib/librtemscpu.a(libposix_a-psignalclearsignals.o)
 .debug_line    0x000348da      0x2c0 /opt/rtems-4.8/sparc-rtems/leon2/lib/librtemscpu.a(libposix_a-pspin.o)
 .debug_line    0x00034b9a      0x498 /opt/rtems-4.8/sparc-rtems/leon2/lib/librtemscpu.a(libposix_a-pthread.o)
 .debug_line    0x00035032      0x31d /opt/rtems-4.8/sparc-rtems/leon2/lib/librtemscpu.a(libposix_a-pthreadexit.o)
 .debug_line    0x0003534f      0x321 /opt/rtems-4.8/sparc-rtems/leon2/lib/librtemscpu.a(libposix_a-ptimer.o)
 .debug_line    0x00035670      0x2c5 /opt/rtems-4.8/sparc-rtems/leon2/lib/librtemscpu.a(libposix_a-semaphore.o)
 .debug_line    0x00035935      0x2d1 /opt/rtems-4.8/sparc-rtems/leon2/lib/librtemscpu.a(libposix_a-sigemptyset.o)
 .debug_line    0x00035c06      0x2c1 /opt/rtems-4.8/sparc-rtems/leon2/lib/librtemscpu.a(librtems_a-barrier.o)
 .debug_line    0x00035ec7      0x267 /opt/rtems-4.8/sparc-rtems/leon2/lib/librtemscpu.a(librtems_a-barrierdata.o)
 .debug_line    0x0003612e      0x2bd /opt/rtems-4.8/sparc-rtems/leon2/lib/librtemscpu.a(librtems_a-dpmem.o)
 .debug_line    0x000363eb      0x194 /opt/rtems-4.8/sparc-rtems/leon2/lib/librtemscpu.a(librtems_a-dpmemdata.o)
 .debug_line    0x0003657f      0x2c7 /opt/rtems-4.8/sparc-rtems/leon2/lib/librtemscpu.a(librtems_a-event.o)
 .debug_line    0x00036846      0x265 /opt/rtems-4.8/sparc-rtems/leon2/lib/librtemscpu.a(librtems_a-eventdata.o)
 .debug_line    0x00036aab       0x70 /opt/rtems-4.8/sparc-rtems/leon2/lib/librtemscpu.a(librtems_a-intr.o)
 .debug_line    0x00036b1b      0x2e2 /opt/rtems-4.8/sparc-rtems/leon2/lib/librtemscpu.a(librtems_a-msg.o)
 .debug_line    0x00036dfd      0x27e /opt/rtems-4.8/sparc-rtems/leon2/lib/librtemscpu.a(librtems_a-msgdata.o)
 .debug_line    0x0003707b      0x2c9 /opt/rtems-4.8/sparc-rtems/leon2/lib/librtemscpu.a(librtems_a-part.o)
 .debug_line    0x00037344      0x193 /opt/rtems-4.8/sparc-rtems/leon2/lib/librtemscpu.a(librtems_a-partdata.o)
 .debug_line    0x000374d7      0x2c1 /opt/rtems-4.8/sparc-rtems/leon2/lib/librtemscpu.a(librtems_a-ratemon.o)
 .debug_line    0x00037798      0x2cd /opt/rtems-4.8/sparc-rtems/leon2/lib/librtemscpu.a(librtems_a-region.o)
 .debug_line    0x00037a65      0x266 /opt/rtems-4.8/sparc-rtems/leon2/lib/librtemscpu.a(librtems_a-regiondata.o)
 .debug_line    0x00037ccb      0x2c3 /opt/rtems-4.8/sparc-rtems/leon2/lib/librtemscpu.a(librtems_a-rtemstimer.o)
 .debug_line    0x00037f8e      0x265 /opt/rtems-4.8/sparc-rtems/leon2/lib/librtemscpu.a(librtems_a-rtemstimerdata.o)
 .debug_line    0x000381f3      0x2d3 /opt/rtems-4.8/sparc-rtems/leon2/lib/librtemscpu.a(librtems_a-sem.o)
 .debug_line    0x000384c6      0x2ba /opt/rtems-4.8/sparc-rtems/leon2/lib/librtemscpu.a(librtems_a-signal.o)
 .debug_line    0x00038780      0x40b /opt/rtems-4.8/sparc-rtems/leon2/lib/librtemscpu.a(librtems_a-tasks.o)
 .debug_line    0x00038b8b      0x15c /opt/rtems-4.8/sparc-rtems/leon2/lib/librtemscpu.a(libsapi_a-debug.o)
 .debug_line    0x00038ce7      0x2c6 /opt/rtems-4.8/sparc-rtems/leon2/lib/librtemscpu.a(libsapi_a-exshutdown.o)
 .debug_line    0x00038fad      0x196 /opt/rtems-4.8/sparc-rtems/leon2/lib/librtemscpu.a(libscore_a-chain.o)
 .debug_line    0x00039143      0x145 /opt/rtems-4.8/sparc-rtems/leon2/lib/librtemscpu.a(libscore_a-chainextract.o)
 .debug_line    0x00039288      0x1f7 /opt/rtems-4.8/sparc-rtems/leon2/lib/librtemscpu.a(libscore_a-heapextend.o)
 .debug_line    0x0003947f      0x28a /opt/rtems-4.8/sparc-rtems/leon2/lib/librtemscpu.a(libscore_a-heapresizeblock.o)
 .debug_line    0x00039709      0x1c9 /opt/rtems-4.8/sparc-rtems/leon2/lib/librtemscpu.a(libscore_a-heapsizeofuserarea.o)
 .debug_line    0x000398d2      0x2b1 /opt/rtems-4.8/sparc-rtems/leon2/lib/librtemscpu.a(libscore_a-objectcomparenameraw.o)
 .debug_line    0x00039b83      0x2b3 /opt/rtems-4.8/sparc-rtems/leon2/lib/librtemscpu.a(libscore_a-objectcomparenamestring.o)
 .debug_line    0x00039e36      0x2b2 /opt/rtems-4.8/sparc-rtems/leon2/lib/librtemscpu.a(libscore_a-threadloadenv.o)
 .debug_line    0x0003a0e8      0x286 /opt/rtems-4.8/sparc-rtems/leon2/lib/librtemscpu.a(libscore_a-threadqextract.o)
 .debug_line    0x0003a36e      0x305 /opt/rtems-4.8/sparc-rtems/leon2/lib/librtemscpu.a(libscore_a-threadqextractfifo.o)
 .debug_line    0x0003a673      0x310 /opt/rtems-4.8/sparc-rtems/leon2/lib/librtemscpu.a(libscore_a-threadqextractpriority.o)
 .debug_line    0x0003a983      0x34b /opt/rtems-4.8/sparc-rtems/leon2/lib/librtemscpu.a(libscore_a-threadready.o)
 .debug_line    0x0003acce      0x2ff /opt/rtems-4.8/sparc-rtems/leon2/lib/librtemscpu.a(libscore_a-threadresettimeslice.o)
 .debug_line    0x0003afcd      0x218 /opt/rtems-4.8/sparc-rtems/leon2/lib/librtemscpu.a(libscore_a-timespectoticks.o)
 .debug_line    0x0003b1e5      0x2a3 /opt/rtems-4.8/sparc-rtems/leon2/lib/librtemscpu.a(libscore_a-userextaddapiset.o)
 .debug_line    0x0003b488      0x31a /opt/rtems-4.8/sparc-rtems/leon2/lib/librtemscpu.a(deviceio.o)
 .debug_line    0x0003b7a2      0x1c2 /opt/rtems-4.8/sparc-rtems/leon2/lib/librtemscpu.a(imfs_config.o)
 .debug_line    0x0003b964      0x335 /opt/rtems-4.8/sparc-rtems/leon2/lib/librtemscpu.a(imfs_creat.o)
 .debug_line    0x0003bc99      0x2c3 /opt/rtems-4.8/sparc-rtems/leon2/lib/librtemscpu.a(imfs_fchmod.o)
 .debug_line    0x0003bf5c      0x1db /opt/rtems-4.8/sparc-rtems/leon2/lib/librtemscpu.a(libcsupport_a-assocnamebylocal.o)
 .debug_line    0x0003c137      0x1e2 /opt/rtems-4.8/sparc-rtems/leon2/lib/librtemscpu.a(libcsupport_a-assocptrbylocal.o)
 .debug_line    0x0003c319      0x1de /opt/rtems-4.8/sparc-rtems/leon2/lib/librtemscpu.a(libcsupport_a-assocremotebylocal.o)
 .debug_line    0x0003c4f7      0x2c2 /opt/rtems-4.8/sparc-rtems/leon2/lib/librtemscpu.a(libcsupport_a-ftruncate.o)
 .debug_line    0x0003c7b9      0x594 /opt/rtems-4.8/sparc-rtems/leon2/lib/librtemscpu.a(libnetworking_a-igmp.o)
 .debug_line    0x0003cd4d      0x3fa /opt/rtems-4.8/sparc-rtems/leon2/lib/librtemscpu.a(libnetworking_a-raw_cb.o)
 .debug_line    0x0003d147      0x30d /opt/rtems-4.8/sparc-rtems/leon2/lib/librtemscpu.a(libposix_a-keyrundestructors.o)
 .debug_line    0x0003d454      0x30f /opt/rtems-4.8/sparc-rtems/leon2/lib/librtemscpu.a(libposix_a-psignalclearprocesssignals.o)
 .debug_line    0x0003d763      0x39d /opt/rtems-4.8/sparc-rtems/leon2/lib/librtemscpu.a(librtems_a-taskmode.o)
 .debug_line    0x0003db00      0x158 /opt/rtems-4.8/sparc-rtems/leon2/lib/librtemscpu.a(libsapi_a-ioclose.o)
 .debug_line    0x0003dc58      0x15a /opt/rtems-4.8/sparc-rtems/leon2/lib/librtemscpu.a(libsapi_a-iocontrol.o)
 .debug_line    0x0003ddb2      0x157 /opt/rtems-4.8/sparc-rtems/leon2/lib/librtemscpu.a(libsapi_a-ioopen.o)
 .debug_line    0x0003df09      0x157 /opt/rtems-4.8/sparc-rtems/leon2/lib/librtemscpu.a(libsapi_a-ioread.o)
 .debug_line    0x0003e060      0x158 /opt/rtems-4.8/sparc-rtems/leon2/lib/librtemscpu.a(libsapi_a-iowrite.o)
 .debug_line    0x0003e1b8      0x2cd /opt/rtems-4.8/sparc-rtems/leon2/lib/librtemscpu.a(libscore_a-threadevaluatemode.o)
 .debug_line    0x0003e485      0x32e /opt/rtems-4.8/sparc-rtems/leon2/lib/librtemscpu.a(libscore_a-threadhandler.o)
 .debug_line    0x0003e7b3      0x19a /opt/rtems-4.8/sparc-rtems/leon2/lib/librtemscpu.a(libcsupport_a-assocnamebad.o)
 .debug_line    0x0003e94d       0x68 /opt/rtems-4.8-1.1.3/bin/../lib/gcc/sparc-rtems/4.2.4/../../../../sparc-rtems/lib/soft/libc.a(lib_a-abort.o)
 .debug_line    0x0003e9b5       0x74 /opt/rtems-4.8-1.1.3/bin/../lib/gcc/sparc-rtems/4.2.4/../../../../sparc-rtems/lib/soft/libc.a(lib_a-atexit.o)
 .debug_line    0x0003ea29       0xc4 /opt/rtems-4.8-1.1.3/bin/../lib/gcc/sparc-rtems/4.2.4/../../../../sparc-rtems/lib/soft/libc.a(lib_a-bcmp.o)
 .debug_line    0x0003eaed       0x57 /opt/rtems-4.8-1.1.3/bin/../lib/gcc/sparc-rtems/4.2.4/../../../../sparc-rtems/lib/soft/libc.a(lib_a-ctype_.o)
 .debug_line    0x0003eb44      0x13c /opt/rtems-4.8-1.1.3/bin/../lib/gcc/sparc-rtems/4.2.4/../../../../sparc-rtems/lib/soft/libc.a(lib_a-errno.o)
 .debug_line    0x0003ec80      0x140 /opt/rtems-4.8-1.1.3/bin/../lib/gcc/sparc-rtems/4.2.4/../../../../sparc-rtems/lib/soft/libc.a(lib_a-exit.o)
 .debug_line    0x0003edc0      0x1c3 /opt/rtems-4.8-1.1.3/bin/../lib/gcc/sparc-rtems/4.2.4/../../../../sparc-rtems/lib/soft/libc.a(lib_a-fclose.o)
 .debug_line    0x0003ef83      0x1f3 /opt/rtems-4.8-1.1.3/bin/../lib/gcc/sparc-rtems/4.2.4/../../../../sparc-rtems/lib/soft/libc.a(lib_a-fflush.o)
 .debug_line    0x0003f176      0x1a0 /opt/rtems-4.8-1.1.3/bin/../lib/gcc/sparc-rtems/4.2.4/../../../../sparc-rtems/lib/soft/libc.a(lib_a-fileno.o)
 .debug_line    0x0003f316      0x21e /opt/rtems-4.8-1.1.3/bin/../lib/gcc/sparc-rtems/4.2.4/../../../../sparc-rtems/lib/soft/libc.a(lib_a-findfp.o)
 .debug_line    0x0003f534      0x1af /opt/rtems-4.8-1.1.3/bin/../lib/gcc/sparc-rtems/4.2.4/../../../../sparc-rtems/lib/soft/libc.a(lib_a-fprintf.o)
 .debug_line    0x0003f6e3      0x1c0 /opt/rtems-4.8-1.1.3/bin/../lib/gcc/sparc-rtems/4.2.4/../../../../sparc-rtems/lib/soft/libc.a(lib_a-fwalk.o)
 .debug_line    0x0003f8a3      0x126 /opt/rtems-4.8-1.1.3/bin/../lib/gcc/sparc-rtems/4.2.4/../../../../sparc-rtems/lib/soft/libc.a(lib_a-gmtime_r.o)
 .debug_line    0x0003f9c9      0x12e /opt/rtems-4.8-1.1.3/bin/../lib/gcc/sparc-rtems/4.2.4/../../../../sparc-rtems/lib/soft/libc.a(lib_a-impure.o)
 .debug_line    0x0003faf7       0xe0 /opt/rtems-4.8-1.1.3/bin/../lib/gcc/sparc-rtems/4.2.4/../../../../sparc-rtems/lib/soft/libc.a(lib_a-memcmp.o)
 .debug_line    0x0003fbd7       0xe4 /opt/rtems-4.8-1.1.3/bin/../lib/gcc/sparc-rtems/4.2.4/../../../../sparc-rtems/lib/soft/libc.a(lib_a-memcpy.o)
 .debug_line    0x0003fcbb       0xee /opt/rtems-4.8-1.1.3/bin/../lib/gcc/sparc-rtems/4.2.4/../../../../sparc-rtems/lib/soft/libc.a(lib_a-memset.o)
 .debug_line    0x0003fda9      0x22a /opt/rtems-4.8-1.1.3/bin/../lib/gcc/sparc-rtems/4.2.4/../../../../sparc-rtems/lib/soft/libc.a(lib_a-mktm_r.o)
 .debug_line    0x0003ffd3      0x164 /opt/rtems-4.8-1.1.3/bin/../lib/gcc/sparc-rtems/4.2.4/../../../../sparc-rtems/lib/soft/libc.a(lib_a-printf.o)
 .debug_line    0x00040137      0x144 /opt/rtems-4.8-1.1.3/bin/../lib/gcc/sparc-rtems/4.2.4/../../../../sparc-rtems/lib/soft/libc.a(lib_a-putchar.o)
 .debug_line    0x0004027b      0x161 /opt/rtems-4.8-1.1.3/bin/../lib/gcc/sparc-rtems/4.2.4/../../../../sparc-rtems/lib/soft/libc.a(lib_a-puts.o)
 .debug_line    0x000403dc      0x146 /opt/rtems-4.8-1.1.3/bin/../lib/gcc/sparc-rtems/4.2.4/../../../../sparc-rtems/lib/soft/libc.a(lib_a-raise.o)
 .debug_line    0x00040522      0x17d /opt/rtems-4.8-1.1.3/bin/../lib/gcc/sparc-rtems/4.2.4/../../../../sparc-rtems/lib/soft/libc.a(lib_a-reent.o)
 .debug_line    0x0004069f      0x1df /opt/rtems-4.8-1.1.3/bin/../lib/gcc/sparc-rtems/4.2.4/../../../../sparc-rtems/lib/soft/libc.a(lib_a-snprintf.o)
 .debug_line    0x0004087e      0x1d2 /opt/rtems-4.8-1.1.3/bin/../lib/gcc/sparc-rtems/4.2.4/../../../../sparc-rtems/lib/soft/libc.a(lib_a-sprintf.o)
 .debug_line    0x00040a50      0x1c6 /opt/rtems-4.8-1.1.3/bin/../lib/gcc/sparc-rtems/4.2.4/../../../../sparc-rtems/lib/soft/libc.a(lib_a-stdio.o)
 .debug_line    0x00040c16       0x86 /opt/rtems-4.8-1.1.3/bin/../lib/gcc/sparc-rtems/4.2.4/../../../../sparc-rtems/lib/soft/libc.a(lib_a-strchr.o)
 .debug_line    0x00040c9c       0x7e /opt/rtems-4.8-1.1.3/bin/../lib/gcc/sparc-rtems/4.2.4/../../../../sparc-rtems/lib/soft/libc.a(lib_a-strcmp.o)
 .debug_line    0x00040d1a       0x70 /opt/rtems-4.8-1.1.3/bin/../lib/gcc/sparc-rtems/4.2.4/../../../../sparc-rtems/lib/soft/libc.a(lib_a-strcpy.o)
 .debug_line    0x00040d8a      0x140 /opt/rtems-4.8-1.1.3/bin/../lib/gcc/sparc-rtems/4.2.4/../../../../sparc-rtems/lib/soft/libc.a(lib_a-strdup.o)
 .debug_line    0x00040eca      0x144 /opt/rtems-4.8-1.1.3/bin/../lib/gcc/sparc-rtems/4.2.4/../../../../sparc-rtems/lib/soft/libc.a(lib_a-strdup_r.o)
 .debug_line    0x0004100e      0x10d /opt/rtems-4.8-1.1.3/bin/../lib/gcc/sparc-rtems/4.2.4/../../../../sparc-rtems/lib/soft/libc.a(lib_a-strerror.o)
 .debug_line    0x0004111b       0xd4 /opt/rtems-4.8-1.1.3/bin/../lib/gcc/sparc-rtems/4.2.4/../../../../sparc-rtems/lib/soft/libc.a(lib_a-strlcpy.o)
 .debug_line    0x000411ef       0xd1 /opt/rtems-4.8-1.1.3/bin/../lib/gcc/sparc-rtems/4.2.4/../../../../sparc-rtems/lib/soft/libc.a(lib_a-strlen.o)
 .debug_line    0x000412c0       0xee /opt/rtems-4.8-1.1.3/bin/../lib/gcc/sparc-rtems/4.2.4/../../../../sparc-rtems/lib/soft/libc.a(lib_a-strncmp.o)
 .debug_line    0x000413ae       0xe7 /opt/rtems-4.8-1.1.3/bin/../lib/gcc/sparc-rtems/4.2.4/../../../../sparc-rtems/lib/soft/libc.a(lib_a-strncpy.o)
 .debug_line    0x00041495       0x66 /opt/rtems-4.8-1.1.3/bin/../lib/gcc/sparc-rtems/4.2.4/../../../../sparc-rtems/lib/soft/libc.a(lib_a-tzlock.o)
 .debug_line    0x000414fb       0x56 /opt/rtems-4.8-1.1.3/bin/../lib/gcc/sparc-rtems/4.2.4/../../../../sparc-rtems/lib/soft/libc.a(lib_a-tzvars.o)
 .debug_line    0x00041551       0x67 /opt/rtems-4.8-1.1.3/bin/../lib/gcc/sparc-rtems/4.2.4/../../../../sparc-rtems/lib/soft/libc.a(lib_a-u_strerr.o)
 .debug_line    0x000415b8      0x5e4 /opt/rtems-4.8-1.1.3/bin/../lib/gcc/sparc-rtems/4.2.4/../../../../sparc-rtems/lib/soft/libc.a(lib_a-vfprintf.o)
 .debug_line    0x00041b9c      0x150 /opt/rtems-4.8-1.1.3/bin/../lib/gcc/sparc-rtems/4.2.4/../../../../sparc-rtems/lib/soft/libc.a(lib_a-vprintf.o)
 .debug_line    0x00041cec      0x1b0 /opt/rtems-4.8-1.1.3/bin/../lib/gcc/sparc-rtems/4.2.4/../../../../sparc-rtems/lib/soft/libc.a(lib_a-wcrtomb.o)
 .debug_line    0x00041e9c      0x1d5 /opt/rtems-4.8-1.1.3/bin/../lib/gcc/sparc-rtems/4.2.4/../../../../sparc-rtems/lib/soft/libc.a(lib_a-wcsrtombs.o)
 .debug_line    0x00042071      0x255 /opt/rtems-4.8-1.1.3/bin/../lib/gcc/sparc-rtems/4.2.4/../../../../sparc-rtems/lib/soft/libc.a(lib_a-wctomb_r.o)
 .debug_line    0x000422c6      0x1c3 /opt/rtems-4.8-1.1.3/bin/../lib/gcc/sparc-rtems/4.2.4/../../../../sparc-rtems/lib/soft/libc.a(lib_a-wsetup.o)
 .debug_line    0x00042489      0x175 /opt/rtems-4.8-1.1.3/bin/../lib/gcc/sparc-rtems/4.2.4/../../../../sparc-rtems/lib/soft/libc.a(lib_a-__atexit.o)
 .debug_line    0x000425fe      0x16c /opt/rtems-4.8-1.1.3/bin/../lib/gcc/sparc-rtems/4.2.4/../../../../sparc-rtems/lib/soft/libc.a(lib_a-__call_atexit.o)
 .debug_line    0x0004276a      0x4b4 /opt/rtems-4.8-1.1.3/bin/../lib/gcc/sparc-rtems/4.2.4/../../../../sparc-rtems/lib/soft/libc.a(lib_a-dtoa.o)
 .debug_line    0x00042c1e      0x261 /opt/rtems-4.8-1.1.3/bin/../lib/gcc/sparc-rtems/4.2.4/../../../../sparc-rtems/lib/soft/libc.a(lib_a-fvwrite.o)
 .debug_line    0x00042e7f      0x127 /opt/rtems-4.8-1.1.3/bin/../lib/gcc/sparc-rtems/4.2.4/../../../../sparc-rtems/lib/soft/libc.a(lib_a-gettzinfo.o)
 .debug_line    0x00042fa6      0x1be /opt/rtems-4.8-1.1.3/bin/../lib/gcc/sparc-rtems/4.2.4/../../../../sparc-rtems/lib/soft/libc.a(lib_a-locale.o)
 .debug_line    0x00043164      0x1f0 /opt/rtems-4.8-1.1.3/bin/../lib/gcc/sparc-rtems/4.2.4/../../../../sparc-rtems/lib/soft/libc.a(lib_a-makebuf.o)
 .debug_line    0x00043354       0xf1 /opt/rtems-4.8-1.1.3/bin/../lib/gcc/sparc-rtems/4.2.4/../../../../sparc-rtems/lib/soft/libc.a(lib_a-memchr.o)
 .debug_line    0x00043445       0xf8 /opt/rtems-4.8-1.1.3/bin/../lib/gcc/sparc-rtems/4.2.4/../../../../sparc-rtems/lib/soft/libc.a(lib_a-memmove.o)
 .debug_line    0x0004353d      0x439 /opt/rtems-4.8-1.1.3/bin/../lib/gcc/sparc-rtems/4.2.4/../../../../sparc-rtems/lib/soft/libc.a(lib_a-mprec.o)
 .debug_line    0x00043976      0x1ad /opt/rtems-4.8-1.1.3/bin/../lib/gcc/sparc-rtems/4.2.4/../../../../sparc-rtems/lib/soft/libc.a(lib_a-putc.o)
 .debug_line    0x00043b23       0xd4 /opt/rtems-4.8-1.1.3/bin/../lib/gcc/sparc-rtems/4.2.4/../../../../sparc-rtems/lib/soft/libc.a(lib_a-s_isinfd.o)
 .debug_line    0x00043bf7       0xd5 /opt/rtems-4.8-1.1.3/bin/../lib/gcc/sparc-rtems/4.2.4/../../../../sparc-rtems/lib/soft/libc.a(lib_a-s_isnand.o)
 .debug_line    0x00043ccc      0x1c2 /opt/rtems-4.8-1.1.3/bin/../lib/gcc/sparc-rtems/4.2.4/../../../../sparc-rtems/lib/soft/libc.a(lib_a-wbuf.o)
 .debug_line    0x00043e8e       0xd5 /opt/rtems-4.8-1.1.3/bin/../lib/gcc/sparc-rtems/4.2.4/soft/libgcc.a(_udivdi3.o)
 .debug_line    0x00043f63       0xda /opt/rtems-4.8-1.1.3/bin/../lib/gcc/sparc-rtems/4.2.4/soft/libgcc.a(_umoddi3.o)
 .debug_line    0x0004403d       0xf7 /opt/rtems-4.8-1.1.3/bin/../lib/gcc/sparc-rtems/4.2.4/soft/libgcc.a(_addsub_df.o)
 .debug_line    0x00044134       0xd1 /opt/rtems-4.8-1.1.3/bin/../lib/gcc/sparc-rtems/4.2.4/soft/libgcc.a(_div_df.o)
 .debug_line    0x00044205       0x69 /opt/rtems-4.8-1.1.3/bin/../lib/gcc/sparc-rtems/4.2.4/soft/libgcc.a(_eq_df.o)
 .debug_line    0x0004426e       0x69 /opt/rtems-4.8-1.1.3/bin/../lib/gcc/sparc-rtems/4.2.4/soft/libgcc.a(_ne_df.o)
 .debug_line    0x000442d7       0x69 /opt/rtems-4.8-1.1.3/bin/../lib/gcc/sparc-rtems/4.2.4/soft/libgcc.a(_gt_df.o)
 .debug_line    0x00044340       0x69 /opt/rtems-4.8-1.1.3/bin/../lib/gcc/sparc-rtems/4.2.4/soft/libgcc.a(_ge_df.o)
 .debug_line    0x000443a9       0x69 /opt/rtems-4.8-1.1.3/bin/../lib/gcc/sparc-rtems/4.2.4/soft/libgcc.a(_lt_df.o)
 .debug_line    0x00044412       0x91 /opt/rtems-4.8-1.1.3/bin/../lib/gcc/sparc-rtems/4.2.4/soft/libgcc.a(_si_to_df.o)
 .debug_line    0x000444a3       0x7a /opt/rtems-4.8-1.1.3/bin/../lib/gcc/sparc-rtems/4.2.4/soft/libgcc.a(_df_to_si.o)
 .debug_line    0x0004451d       0x92 /opt/rtems-4.8-1.1.3/bin/../lib/gcc/sparc-rtems/4.2.4/soft/libgcc.a(_fpcmp_parts_df.o)
 .debug_line    0x000445af      0x4f2 /opt/rtems-4.8/sparc-rtems/leon2/lib/librtemsbsp.a(cache.rel)
 .debug_line    0x00044aa1       0x55 /opt/rtems-4.8/sparc-rtems/leon2/lib/librtemsbsp.a(libsupport_a-version.o)
 .debug_line    0x00044af6      0x2d1 /opt/rtems-4.8/sparc-rtems/leon2/lib/librtemscpu.a(libcsupport_a-fstat.o)
 .debug_line    0x00044dc7      0x215 /opt/rtems-4.8/sparc-rtems/leon2/lib/librtemscpu.a(libcsupport_a-getpid.o)
 .debug_line    0x00044fdc       0xef /opt/rtems-4.8/sparc-rtems/leon2/lib/librtemscpu.a(libcsupport_a-isatty.o)
 .debug_line    0x000450cb      0x2db /opt/rtems-4.8/sparc-rtems/leon2/lib/librtemscpu.a(libcsupport_a-lseek.o)
 .debug_line    0x000453a6      0x2d3 /opt/rtems-4.8/sparc-rtems/leon2/lib/librtemscpu.a(libcsupport_a-read.o)
 .debug_line    0x00045679      0x216 /opt/rtems-4.8/sparc-rtems/leon2/lib/librtemscpu.a(libcsupport_a-write_r.o)
 .debug_line    0x0004588f      0x2bd /opt/rtems-4.8/sparc-rtems/leon2/lib/librtemscpu.a(libposix_a-kill.o)
 .debug_line    0x00045b4c      0x3ef /opt/rtems-4.8/sparc-rtems/leon2/lib/librtemscpu.a(libposix_a-killinfo.o)
 .debug_line    0x00045f3b      0x30d /opt/rtems-4.8/sparc-rtems/leon2/lib/librtemscpu.a(libposix_a-psignalsetprocesssignals.o)
 .debug_line    0x00046248      0x36f /opt/rtems-4.8/sparc-rtems/leon2/lib/librtemscpu.a(libposix_a-psignalunblockthread.o)
 .debug_line    0x000465b7      0x3c8 /opt/rtems-4.8/sparc-rtems/leon2/lib/librtemscpu.a(libposix_a-pthreadkill.o)
 .debug_line    0x0004697f      0x2f1 /opt/rtems-4.8/sparc-rtems/leon2/lib/librtemscpu.a(libposix_a-pthreadself.o)
 .debug_line    0x00046c70      0x18e /opt/rtems-4.8/sparc-rtems/leon2/lib/librtemscpu.a(libposix_a-types.o)
 .debug_line    0x00046dfe      0x2bc /opt/rtems-4.8/sparc-rtems/leon2/lib/librtemscpu.a(libcsupport_a-write.o)

.debug_info     0x00000000   0x1aba51
 .debug_info    0x00000000       0xbf /opt/rtems-4.8/sparc-rtems/leon2/lib/start.o
 .debug_info    0x000000bf      0x973 /home/aitor/workspace/rasta-sw/osal-repo/trunk/samples/misc/soclient.o
 .debug_info    0x00000a32      0x594 libosal_rtems_rastaleon2.a(osapi.o)
 .debug_info    0x00000fc6      0xcc2 libosal_rtems_rastaleon2.a(osmut.o)
 .debug_info    0x00001c88     0x152c libosal_rtems_rastaleon2.a(ostask.o)
 .debug_info    0x000031b4     0x320d libosal_rtems_rastaleon2.a(rtems-config.o)
 .debug_info    0x000063c1      0x13b libosal_rtems_rastaleon2.a(osstats.o)
 .debug_info    0x000064fc       0x9b /opt/rtems-4.8-1.1.3/bin/../lib/gcc/sparc-rtems/4.2.4/soft/libgcc.a(_mulsi3.o)
 .debug_info    0x00006597       0x9b /opt/rtems-4.8-1.1.3/bin/../lib/gcc/sparc-rtems/4.2.4/soft/libgcc.a(_divsi3.o)
 .debug_info    0x00006632       0x9b /opt/rtems-4.8-1.1.3/bin/../lib/gcc/sparc-rtems/4.2.4/soft/libgcc.a(_modsi3.o)
 .debug_info    0x000066cd      0x417 /opt/rtems-4.8-1.1.3/bin/../lib/gcc/sparc-rtems/4.2.4/soft/libgcc.a(_mul_df.o)
 .debug_info    0x00006ae4      0x160 /opt/rtems-4.8-1.1.3/bin/../lib/gcc/sparc-rtems/4.2.4/soft/libgcc.a(_thenan_df.o)
 .debug_info    0x00006c44      0x20b /opt/rtems-4.8-1.1.3/bin/../lib/gcc/sparc-rtems/4.2.4/soft/libgcc.a(_usi_to_df.o)
 .debug_info    0x00006e4f      0x175 /opt/rtems-4.8-1.1.3/bin/../lib/gcc/sparc-rtems/4.2.4/soft/libgcc.a(_muldi3.o)
 .debug_info    0x00006fc4      0x123 /opt/rtems-4.8-1.1.3/bin/../lib/gcc/sparc-rtems/4.2.4/soft/libgcc.a(_clzsi2.o)
 .debug_info    0x000070e7      0x2a8 /opt/rtems-4.8-1.1.3/bin/../lib/gcc/sparc-rtems/4.2.4/soft/libgcc.a(_pack_df.o)
 .debug_info    0x0000738f      0x218 /opt/rtems-4.8-1.1.3/bin/../lib/gcc/sparc-rtems/4.2.4/soft/libgcc.a(_unpack_df.o)
 .debug_info    0x000075a7       0xbe /opt/rtems-4.8-1.1.3/bin/../lib/gcc/sparc-rtems/4.2.4/soft/libgcc.a(_clz.o)
 .debug_info    0x00007665     0x1b7e /opt/rtems-4.8/sparc-rtems/leon2/lib/librtemsbsp.a(amba.rel)
 .debug_info    0x000091e3     0x2ba3 /opt/rtems-4.8/sparc-rtems/leon2/lib/librtemsbsp.a(clock.rel)
 .debug_info    0x0000bd86     0x1596 /opt/rtems-4.8/sparc-rtems/leon2/lib/librtemsbsp.a(console.rel)
 .debug_info    0x0000d31c      0x52b /opt/rtems-4.8/sparc-rtems/leon2/lib/librtemsbsp.a(leon_smc91111.rel)
 .debug_info    0x0000d847     0x3331 /opt/rtems-4.8/sparc-rtems/leon2/lib/librtemsbsp.a(libnetchip_a-smc91111.o)
 .debug_info    0x00010b78       0xa9 /opt/rtems-4.8/sparc-rtems/leon2/lib/librtemsbsp.a(reg_win.rel)
 .debug_info    0x00010c21     0x8d5e /opt/rtems-4.8/sparc-rtems/leon2/lib/librtemsbsp.a(startup.rel)
 .debug_info    0x0001997f       0xaa /opt/rtems-4.8/sparc-rtems/leon2/lib/librtemsbsp.a(syscall.rel)
 .debug_info    0x00019a29     0x19fa /opt/rtems-4.8/sparc-rtems/leon2/lib/librtemscpu.a(check.o)
 .debug_info    0x0001b423     0x12a3 /opt/rtems-4.8/sparc-rtems/leon2/lib/librtemscpu.a(ioman.o)
 .debug_info    0x0001c6c6      0x4c2 /opt/rtems-4.8/sparc-rtems/leon2/lib/librtemscpu.a(libc_a-inet_addr.o)
 .debug_info    0x0001cb88      0x674 /opt/rtems-4.8/sparc-rtems/leon2/lib/librtemscpu.a(libc_a-inet_pton.o)
 .debug_info    0x0001d1fc       0xe1 /opt/rtems-4.8/sparc-rtems/leon2/lib/librtemscpu.a(libc_a-recv.o)
 .debug_info    0x0001d2dd       0xea /opt/rtems-4.8/sparc-rtems/leon2/lib/librtemscpu.a(libc_a-send.o)
 .debug_info    0x0001d3c7      0x3d6 /opt/rtems-4.8/sparc-rtems/leon2/lib/librtemscpu.a(libcsupport_a-__assert.o)
 .debug_info    0x0001d79d     0x1793 /opt/rtems-4.8/sparc-rtems/leon2/lib/librtemscpu.a(libcsupport_a-close.o)
 .debug_info    0x0001ef30      0xf88 /opt/rtems-4.8/sparc-rtems/leon2/lib/librtemscpu.a(libcsupport_a-eval.o)
 .debug_info    0x0001feb8     0x1101 /opt/rtems-4.8/sparc-rtems/leon2/lib/librtemscpu.a(libcsupport_a-libio.o)
 .debug_info    0x00020fb9      0xf19 /opt/rtems-4.8/sparc-rtems/leon2/lib/librtemscpu.a(libcsupport_a-libio_init.o)
 .debug_info    0x00021ed2     0x1eea /opt/rtems-4.8/sparc-rtems/leon2/lib/librtemscpu.a(libcsupport_a-malloc.o)
 .debug_info    0x00023dbc       0xbe /opt/rtems-4.8/sparc-rtems/leon2/lib/librtemscpu.a(libcsupport_a-mkdir.o)
 .debug_info    0x00023e7a      0xf38 /opt/rtems-4.8/sparc-rtems/leon2/lib/librtemscpu.a(libcsupport_a-mknod.o)
 .debug_info    0x00024db2     0x1aa6 /opt/rtems-4.8/sparc-rtems/leon2/lib/librtemscpu.a(libcsupport_a-newlibc.o)
 .debug_info    0x00026858      0x3ce /opt/rtems-4.8/sparc-rtems/leon2/lib/librtemscpu.a(libcsupport_a-open_dev_console.o)
 .debug_info    0x00026c26      0x243 /opt/rtems-4.8/sparc-rtems/leon2/lib/librtemscpu.a(libcsupport_a-printk.o)
 .debug_info    0x00026e69       0x9e /opt/rtems-4.8/sparc-rtems/leon2/lib/librtemscpu.a(libcsupport_a-printk_plugin.o)
 .debug_info    0x00026f07     0x1f09 /opt/rtems-4.8/sparc-rtems/leon2/lib/librtemscpu.a(libcsupport_a-termios.o)
 .debug_info    0x00028e10      0x4bf /opt/rtems-4.8/sparc-rtems/leon2/lib/librtemscpu.a(libcsupport_a-termiosinitialize.o)
 .debug_info    0x000292cf     0x2033 /opt/rtems-4.8/sparc-rtems/leon2/lib/librtemscpu.a(libnetworking_a-if.o)
 .debug_info    0x0002b302     0x187e /opt/rtems-4.8/sparc-rtems/leon2/lib/librtemscpu.a(libnetworking_a-if_ethersubr.o)
 .debug_info    0x0002cb80     0x1032 /opt/rtems-4.8/sparc-rtems/leon2/lib/librtemscpu.a(libnetworking_a-if_loop.o)
 .debug_info    0x0002dbb2     0x2ffa /opt/rtems-4.8/sparc-rtems/leon2/lib/librtemscpu.a(libnetworking_a-ip_input.o)
 .debug_info    0x00030bac     0x1b7a /opt/rtems-4.8/sparc-rtems/leon2/lib/librtemscpu.a(libnetworking_a-ip_mroute.o)
 .debug_info    0x00032726     0x2709 /opt/rtems-4.8/sparc-rtems/leon2/lib/librtemscpu.a(libnetworking_a-ip_output.o)
 .debug_info    0x00034e2f      0x717 /opt/rtems-4.8/sparc-rtems/leon2/lib/librtemscpu.a(libnetworking_a-kern_mib.o)
 .debug_info    0x00035546     0x18df /opt/rtems-4.8/sparc-rtems/leon2/lib/librtemscpu.a(libnetworking_a-kern_sysctl.o)
 .debug_info    0x00036e25     0x143d /opt/rtems-4.8/sparc-rtems/leon2/lib/librtemscpu.a(libnetworking_a-radix.o)
 .debug_info    0x00038262     0x1f54 /opt/rtems-4.8/sparc-rtems/leon2/lib/librtemscpu.a(libnetworking_a-raw_ip.o)
 .debug_info    0x0003a1b6     0x2107 /opt/rtems-4.8/sparc-rtems/leon2/lib/librtemscpu.a(libnetworking_a-route.o)
 .debug_info    0x0003c2bd     0x3eaa /opt/rtems-4.8/sparc-rtems/leon2/lib/librtemscpu.a(libnetworking_a-rtems_glue.o)
 .debug_info    0x00040167     0x1920 /opt/rtems-4.8/sparc-rtems/leon2/lib/librtemscpu.a(libnetworking_a-rtems_malloc_mbuf.o)
 .debug_info    0x00041a87      0xd66 /opt/rtems-4.8/sparc-rtems/leon2/lib/librtemscpu.a(libnetworking_a-rtems_showifstat.o)
 .debug_info    0x000427ed     0x147c /opt/rtems-4.8/sparc-rtems/leon2/lib/librtemscpu.a(libnetworking_a-rtems_showroute.o)
 .debug_info    0x00043c69     0x2cee /opt/rtems-4.8/sparc-rtems/leon2/lib/librtemscpu.a(libnetworking_a-rtems_syscall.o)
 .debug_info    0x00046957     0x2590 /opt/rtems-4.8/sparc-rtems/leon2/lib/librtemscpu.a(libnetworking_a-rtsock.o)
 .debug_info    0x00048ee7      0x43d /opt/rtems-4.8/sparc-rtems/leon2/lib/librtemscpu.a(libnetworking_a-sghostname.o)
 .debug_info    0x00049324      0xc76 /opt/rtems-4.8/sparc-rtems/leon2/lib/librtemscpu.a(libnetworking_a-uipc_domain.o)
 .debug_info    0x00049f9a     0x14aa /opt/rtems-4.8/sparc-rtems/leon2/lib/librtemscpu.a(libnetworking_a-uipc_mbuf.o)
 .debug_info    0x0004b444     0x1d8e /opt/rtems-4.8/sparc-rtems/leon2/lib/librtemscpu.a(libnetworking_a-uipc_socket.o)
 .debug_info    0x0004d1d2     0x1e3c /opt/rtems-4.8/sparc-rtems/leon2/lib/librtemscpu.a(libnetworking_a-uipc_socket2.o)
 .debug_info    0x0004f00e     0x1a45 /opt/rtems-4.8/sparc-rtems/leon2/lib/librtemscpu.a(librtems_a-clockget.o)
 .debug_info    0x00050a53     0x1789 /opt/rtems-4.8/sparc-rtems/leon2/lib/librtemscpu.a(librtems_a-clocksetnsecshandler.o)
 .debug_info    0x000521dc     0x17a1 /opt/rtems-4.8/sparc-rtems/leon2/lib/librtemscpu.a(librtems_a-clocktick.o)
 .debug_info    0x0005397d     0x1931 /opt/rtems-4.8/sparc-rtems/leon2/lib/librtemscpu.a(librtems_a-eventreceive.o)
 .debug_info    0x000552ae     0x1b2f /opt/rtems-4.8/sparc-rtems/leon2/lib/librtemscpu.a(librtems_a-eventseize.o)
 .debug_info    0x00056ddd     0x1aad /opt/rtems-4.8/sparc-rtems/leon2/lib/librtemscpu.a(librtems_a-eventsend.o)
 .debug_info    0x0005888a     0x19f5 /opt/rtems-4.8/sparc-rtems/leon2/lib/librtemscpu.a(librtems_a-eventsurrender.o)
 .debug_info    0x0005a27f     0x19a9 /opt/rtems-4.8/sparc-rtems/leon2/lib/librtemscpu.a(librtems_a-eventtimeout.o)
 .debug_info    0x0005bc28      0x20c /opt/rtems-4.8/sparc-rtems/leon2/lib/librtemscpu.a(librtems_a-intrcatch.o)
 .debug_info    0x0005be34     0x1a8c /opt/rtems-4.8/sparc-rtems/leon2/lib/librtemscpu.a(librtems_a-ratemoncreate.o)
 .debug_info    0x0005d8c0     0x167f /opt/rtems-4.8/sparc-rtems/leon2/lib/librtemscpu.a(librtems_a-ratemondata.o)
 .debug_info    0x0005ef3f     0x1a43 /opt/rtems-4.8/sparc-rtems/leon2/lib/librtemscpu.a(librtems_a-ratemondelete.o)
 .debug_info    0x00060982     0x1b94 /opt/rtems-4.8/sparc-rtems/leon2/lib/librtemscpu.a(librtems_a-ratemonperiod.o)
 .debug_info    0x00062516     0x195c /opt/rtems-4.8/sparc-rtems/leon2/lib/librtemscpu.a(librtems_a-ratemontimeout.o)
 .debug_info    0x00063e72      0x380 /opt/rtems-4.8/sparc-rtems/leon2/lib/librtemscpu.a(librtems_a-rtemsobjectgetname.o)
 .debug_info    0x000641f2     0x1c98 /opt/rtems-4.8/sparc-rtems/leon2/lib/librtemscpu.a(librtems_a-semcreate.o)
 .debug_info    0x00065e8a     0x16de /opt/rtems-4.8/sparc-rtems/leon2/lib/librtemscpu.a(librtems_a-semdata.o)
 .debug_info    0x00067568     0x1c64 /opt/rtems-4.8/sparc-rtems/leon2/lib/librtemscpu.a(librtems_a-semdelete.o)
 .debug_info    0x000691cc     0x1b01 /opt/rtems-4.8/sparc-rtems/leon2/lib/librtemscpu.a(librtems_a-semflush.o)
 .debug_info    0x0006accd     0x1e25 /opt/rtems-4.8/sparc-rtems/leon2/lib/librtemscpu.a(librtems_a-semobtain.o)
 .debug_info    0x0006caf2     0x1b3c /opt/rtems-4.8/sparc-rtems/leon2/lib/librtemscpu.a(librtems_a-semrelease.o)
 .debug_info    0x0006e62e     0x188f /opt/rtems-4.8/sparc-rtems/leon2/lib/librtemscpu.a(librtems_a-semtranslatereturncode.o)
 .debug_info    0x0006febd     0x1e32 /opt/rtems-4.8/sparc-rtems/leon2/lib/librtemscpu.a(librtems_a-taskcreate.o)
 .debug_info    0x00071cef     0x167f /opt/rtems-4.8/sparc-rtems/leon2/lib/librtemscpu.a(librtems_a-taskdata.o)
 .debug_info    0x0007336e     0x1c06 /opt/rtems-4.8/sparc-rtems/leon2/lib/librtemscpu.a(librtems_a-taskdelete.o)
 .debug_info    0x00074f74     0x19e5 /opt/rtems-4.8/sparc-rtems/leon2/lib/librtemscpu.a(librtems_a-taskident.o)
 .debug_info    0x00076959     0x201d /opt/rtems-4.8/sparc-rtems/leon2/lib/librtemscpu.a(librtems_a-taskinitusers.o)
 .debug_info    0x00078976     0x1b29 /opt/rtems-4.8/sparc-rtems/leon2/lib/librtemscpu.a(librtems_a-taskresume.o)
 .debug_info    0x0007a49f     0x1b45 /opt/rtems-4.8/sparc-rtems/leon2/lib/librtemscpu.a(librtems_a-tasksetpriority.o)
 .debug_info    0x0007bfe4     0x1b64 /opt/rtems-4.8/sparc-rtems/leon2/lib/librtemscpu.a(librtems_a-taskstart.o)
 .debug_info    0x0007db48     0x1b29 /opt/rtems-4.8/sparc-rtems/leon2/lib/librtemscpu.a(librtems_a-tasksuspend.o)
 .debug_info    0x0007f671     0x1b2c /opt/rtems-4.8/sparc-rtems/leon2/lib/librtemscpu.a(librtems_a-taskvariableadd.o)
 .debug_info    0x0008119d     0x1a45 /opt/rtems-4.8/sparc-rtems/leon2/lib/librtemscpu.a(librtems_a-taskwakeafter.o)
 .debug_info    0x00082be2     0x2759 /opt/rtems-4.8/sparc-rtems/leon2/lib/librtemscpu.a(libsapi_a-exinit.o)
 .debug_info    0x0008533b     0x16ec /opt/rtems-4.8/sparc-rtems/leon2/lib/librtemscpu.a(libsapi_a-extension.o)
 .debug_info    0x00086a27     0x167f /opt/rtems-4.8/sparc-rtems/leon2/lib/librtemscpu.a(libsapi_a-extensiondata.o)
 .debug_info    0x000880a6       0xc5 /opt/rtems-4.8/sparc-rtems/leon2/lib/librtemscpu.a(libsapi_a-fatal.o)
 .debug_info    0x0008816b       0xbc /opt/rtems-4.8/sparc-rtems/leon2/lib/librtemscpu.a(libsapi_a-getversionstring.o)
 .debug_info    0x00088227     0x1a21 /opt/rtems-4.8/sparc-rtems/leon2/lib/librtemscpu.a(libsapi_a-io.o)
 .debug_info    0x00089c48      0x22a /opt/rtems-4.8/sparc-rtems/leon2/lib/librtemscpu.a(libsapi_a-iodata.o)
 .debug_info    0x00089e72      0x27a /opt/rtems-4.8/sparc-rtems/leon2/lib/librtemscpu.a(libsapi_a-ioinitialize.o)
 .debug_info    0x0008a0ec      0x28d /opt/rtems-4.8/sparc-rtems/leon2/lib/librtemscpu.a(libsapi_a-ioregisterdriver.o)
 .debug_info    0x0008a379     0x1f29 /opt/rtems-4.8/sparc-rtems/leon2/lib/librtemscpu.a(libsapi_a-posixapi.o)
 .debug_info    0x0008c2a2     0x205c /opt/rtems-4.8/sparc-rtems/leon2/lib/librtemscpu.a(libsapi_a-rtemsapi.o)
 .debug_info    0x0008e2fe     0x1906 /opt/rtems-4.8/sparc-rtems/leon2/lib/librtemscpu.a(libscore_a-apiext.o)
 .debug_info    0x0008fc04      0x1c9 /opt/rtems-4.8/sparc-rtems/leon2/lib/librtemscpu.a(libscore_a-chainappend.o)
 .debug_info    0x0008fdcd      0x232 /opt/rtems-4.8/sparc-rtems/leon2/lib/librtemscpu.a(libscore_a-chainget.o)
 .debug_info    0x0008ffff     0x18ac /opt/rtems-4.8/sparc-rtems/leon2/lib/librtemscpu.a(libscore_a-coremutex.o)
 .debug_info    0x000918ab     0x1823 /opt/rtems-4.8/sparc-rtems/leon2/lib/librtemscpu.a(libscore_a-coremutexflush.o)
 .debug_info    0x000930ce     0x185a /opt/rtems-4.8/sparc-rtems/leon2/lib/librtemscpu.a(libscore_a-coremutexseize.o)
 .debug_info    0x00094928     0x191e /opt/rtems-4.8/sparc-rtems/leon2/lib/librtemscpu.a(libscore_a-coremutexsurrender.o)
 .debug_info    0x00096246     0x178e /opt/rtems-4.8/sparc-rtems/leon2/lib/librtemscpu.a(libscore_a-coresem.o)
 .debug_info    0x000979d4     0x174b /opt/rtems-4.8/sparc-rtems/leon2/lib/librtemscpu.a(libscore_a-coresemflush.o)
 .debug_info    0x0009911f     0x17cb /opt/rtems-4.8/sparc-rtems/leon2/lib/librtemscpu.a(libscore_a-coresemsurrender.o)
 .debug_info    0x0009a8ea     0x16ce /opt/rtems-4.8/sparc-rtems/leon2/lib/librtemscpu.a(libscore_a-coretod.o)
 .debug_info    0x0009bfb8      0x406 /opt/rtems-4.8/sparc-rtems/leon2/lib/librtemscpu.a(libscore_a-coretodget.o)
 .debug_info    0x0009c3be      0x406 /opt/rtems-4.8/sparc-rtems/leon2/lib/librtemscpu.a(libscore_a-coretodgetuptime.o)
 .debug_info    0x0009c7c4     0x16f7 /opt/rtems-4.8/sparc-rtems/leon2/lib/librtemscpu.a(libscore_a-coretodtickle.o)
 .debug_info    0x0009debb      0x809 /opt/rtems-4.8/sparc-rtems/leon2/lib/librtemscpu.a(libscore_a-heap.o)
 .debug_info    0x0009e6c4      0x412 /opt/rtems-4.8/sparc-rtems/leon2/lib/librtemscpu.a(libscore_a-heapallocate.o)
 .debug_info    0x0009ead6      0x742 /opt/rtems-4.8/sparc-rtems/leon2/lib/librtemscpu.a(libscore_a-heapfree.o)
 .debug_info    0x0009f218     0x17c4 /opt/rtems-4.8/sparc-rtems/leon2/lib/librtemscpu.a(libscore_a-interr.o)
 .debug_info    0x000a09dc      0x461 /opt/rtems-4.8/sparc-rtems/leon2/lib/librtemscpu.a(libscore_a-isr.o)
 .debug_info    0x000a0e3d     0x16ce /opt/rtems-4.8/sparc-rtems/leon2/lib/librtemscpu.a(libscore_a-iterateoverthreads.o)
 .debug_info    0x000a250b     0x193b /opt/rtems-4.8/sparc-rtems/leon2/lib/librtemscpu.a(libscore_a-object.o)
 .debug_info    0x000a3e46     0x18d7 /opt/rtems-4.8/sparc-rtems/leon2/lib/librtemscpu.a(libscore_a-objectallocate.o)
 .debug_info    0x000a571d     0x1ae5 /opt/rtems-4.8/sparc-rtems/leon2/lib/librtemscpu.a(libscore_a-objectextendinformation.o)
 .debug_info    0x000a7202     0x18dc /opt/rtems-4.8/sparc-rtems/leon2/lib/librtemscpu.a(libscore_a-objectfree.o)
 .debug_info    0x000a8ade     0x1927 /opt/rtems-4.8/sparc-rtems/leon2/lib/librtemscpu.a(libscore_a-objectget.o)
 .debug_info    0x000aa405     0x1921 /opt/rtems-4.8/sparc-rtems/leon2/lib/librtemscpu.a(libscore_a-objectgetisr.o)
 .debug_info    0x000abd26     0x1849 /opt/rtems-4.8/sparc-rtems/leon2/lib/librtemscpu.a(libscore_a-objectgetnameasstring.o)
 .debug_info    0x000ad56f     0x19c0 /opt/rtems-4.8/sparc-rtems/leon2/lib/librtemscpu.a(libscore_a-objectinitializeinformation.o)
 .debug_info    0x000aef2f     0x1982 /opt/rtems-4.8/sparc-rtems/leon2/lib/librtemscpu.a(libscore_a-objectnametoid.o)
 .debug_info    0x000b08b1     0x199e /opt/rtems-4.8/sparc-rtems/leon2/lib/librtemscpu.a(libscore_a-objectshrinkinformation.o)
 .debug_info    0x000b224f     0x1c4c /opt/rtems-4.8/sparc-rtems/leon2/lib/librtemscpu.a(libscore_a-pheapallocate.o)
 .debug_info    0x000b3e9b     0x1c93 /opt/rtems-4.8/sparc-rtems/leon2/lib/librtemscpu.a(libscore_a-pheapextend.o)
 .debug_info    0x000b5b2e     0x1c4e /opt/rtems-4.8/sparc-rtems/leon2/lib/librtemscpu.a(libscore_a-pheapfree.o)
 .debug_info    0x000b777c     0x1c61 /opt/rtems-4.8/sparc-rtems/leon2/lib/librtemscpu.a(libscore_a-pheapgetblocksize.o)
 .debug_info    0x000b93dd     0x1ca1 /opt/rtems-4.8/sparc-rtems/leon2/lib/librtemscpu.a(libscore_a-pheapresizeblock.o)
 .debug_info    0x000bb07e     0x1ac4 /opt/rtems-4.8/sparc-rtems/leon2/lib/librtemscpu.a(libscore_a-thread.o)
 .debug_info    0x000bcb42     0x1bc8 /opt/rtems-4.8/sparc-rtems/leon2/lib/librtemscpu.a(libscore_a-threadchangepriority.o)
 .debug_info    0x000be70a     0x19cf /opt/rtems-4.8/sparc-rtems/leon2/lib/librtemscpu.a(libscore_a-threadclearstate.o)
 .debug_info    0x000c00d9     0x1a0a /opt/rtems-4.8/sparc-rtems/leon2/lib/librtemscpu.a(libscore_a-threadclose.o)
 .debug_info    0x000c1ae3     0x19a8 /opt/rtems-4.8/sparc-rtems/leon2/lib/librtemscpu.a(libscore_a-threadcreateidle.o)
 .debug_info    0x000c348b     0x1a6a /opt/rtems-4.8/sparc-rtems/leon2/lib/librtemscpu.a(libscore_a-threaddelayended.o)
 .debug_info    0x000c4ef5     0x193e /opt/rtems-4.8/sparc-rtems/leon2/lib/librtemscpu.a(libscore_a-threaddispatch.o)
 .debug_info    0x000c6833     0x188f /opt/rtems-4.8/sparc-rtems/leon2/lib/librtemscpu.a(libscore_a-threadidlebody.o)
 .debug_info    0x000c80c2     0x1c21 /opt/rtems-4.8/sparc-rtems/leon2/lib/librtemscpu.a(libscore_a-threadinitialize.o)
 .debug_info    0x000c9ce3     0x174b /opt/rtems-4.8/sparc-rtems/leon2/lib/librtemscpu.a(libscore_a-threadq.o)
 .debug_info    0x000cb42e     0x16a3 /opt/rtems-4.8/sparc-rtems/leon2/lib/librtemscpu.a(libscore_a-threadqdequeue.o)
 .debug_info    0x000ccad1     0x1831 /opt/rtems-4.8/sparc-rtems/leon2/lib/librtemscpu.a(libscore_a-threadqdequeuefifo.o)
 .debug_info    0x000ce302     0x1868 /opt/rtems-4.8/sparc-rtems/leon2/lib/librtemscpu.a(libscore_a-threadqdequeuepriority.o)
 .debug_info    0x000cfb6a     0x1786 /opt/rtems-4.8/sparc-rtems/leon2/lib/librtemscpu.a(libscore_a-threadqenqueue.o)
 .debug_info    0x000d12f0     0x17c7 /opt/rtems-4.8/sparc-rtems/leon2/lib/librtemscpu.a(libscore_a-threadqenqueuefifo.o)
 .debug_info    0x000d2ab7     0x19c6 /opt/rtems-4.8/sparc-rtems/leon2/lib/librtemscpu.a(libscore_a-threadqenqueuepriority.o)
 .debug_info    0x000d447d     0x17a4 /opt/rtems-4.8/sparc-rtems/leon2/lib/librtemscpu.a(libscore_a-threadqextractwithproxy.o)
 .debug_info    0x000d5c21     0x16c8 /opt/rtems-4.8/sparc-rtems/leon2/lib/librtemscpu.a(libscore_a-threadqflush.o)
 .debug_info    0x000d72e9     0x1707 /opt/rtems-4.8/sparc-rtems/leon2/lib/librtemscpu.a(libscore_a-threadqrequeue.o)
 .debug_info    0x000d89f0     0x18ac /opt/rtems-4.8/sparc-rtems/leon2/lib/librtemscpu.a(libscore_a-threadqtimeout.o)
 .debug_info    0x000da29c     0x19eb /opt/rtems-4.8/sparc-rtems/leon2/lib/librtemscpu.a(libscore_a-threadresume.o)
 .debug_info    0x000dbc87     0x198d /opt/rtems-4.8/sparc-rtems/leon2/lib/librtemscpu.a(libscore_a-threadsetpriority.o)
 .debug_info    0x000dd614     0x1b7f /opt/rtems-4.8/sparc-rtems/leon2/lib/librtemscpu.a(libscore_a-threadsetstate.o)
 .debug_info    0x000df193     0x1a30 /opt/rtems-4.8/sparc-rtems/leon2/lib/librtemscpu.a(libscore_a-threadsettransient.o)
 .debug_info    0x000e0bc3     0x19fd /opt/rtems-4.8/sparc-rtems/leon2/lib/librtemscpu.a(libscore_a-threadstackallocate.o)
 .debug_info    0x000e25c0     0x1994 /opt/rtems-4.8/sparc-rtems/leon2/lib/librtemscpu.a(libscore_a-threadstackfree.o)
 .debug_info    0x000e3f54     0x18e4 /opt/rtems-4.8/sparc-rtems/leon2/lib/librtemscpu.a(libscore_a-threadstart.o)
 .debug_info    0x000e5838     0x18ae /opt/rtems-4.8/sparc-rtems/leon2/lib/librtemscpu.a(libscore_a-threadstartmultitasking.o)
 .debug_info    0x000e70e6     0x1b72 /opt/rtems-4.8/sparc-rtems/leon2/lib/librtemscpu.a(libscore_a-threadsuspend.o)
 .debug_info    0x000e8c58     0x18b8 /opt/rtems-4.8/sparc-rtems/leon2/lib/librtemscpu.a(libscore_a-threadtickletimeslice.o)
 .debug_info    0x000ea510     0x19ef /opt/rtems-4.8/sparc-rtems/leon2/lib/librtemscpu.a(libscore_a-threadyieldprocessor.o)
 .debug_info    0x000ebeff      0x3e0 /opt/rtems-4.8/sparc-rtems/leon2/lib/librtemscpu.a(libscore_a-timespecaddto.o)
 .debug_info    0x000ec2df      0x3cb /opt/rtems-4.8/sparc-rtems/leon2/lib/librtemscpu.a(libscore_a-timespecgreaterthan.o)
 .debug_info    0x000ec6aa      0x3cb /opt/rtems-4.8/sparc-rtems/leon2/lib/librtemscpu.a(libscore_a-timespeclessthan.o)
 .debug_info    0x000eca75      0x3d8 /opt/rtems-4.8/sparc-rtems/leon2/lib/librtemscpu.a(libscore_a-timespecsubtract.o)
 .debug_info    0x000ece4d     0x1aff /opt/rtems-4.8/sparc-rtems/leon2/lib/librtemscpu.a(libscore_a-userext.o)
 .debug_info    0x000ee94c     0x18a1 /opt/rtems-4.8/sparc-rtems/leon2/lib/librtemscpu.a(libscore_a-userextaddset.o)
 .debug_info    0x000f01ed     0x19fd /opt/rtems-4.8/sparc-rtems/leon2/lib/librtemscpu.a(libscore_a-userextthreadbegin.o)
 .debug_info    0x000f1bea     0x192a /opt/rtems-4.8/sparc-rtems/leon2/lib/librtemscpu.a(libscore_a-userextthreadcreate.o)
 .debug_info    0x000f3514     0x18ec /opt/rtems-4.8/sparc-rtems/leon2/lib/librtemscpu.a(libscore_a-userextthreaddelete.o)
 .debug_info    0x000f4e00     0x191b /opt/rtems-4.8/sparc-rtems/leon2/lib/librtemscpu.a(libscore_a-userextthreadstart.o)
 .debug_info    0x000f671b     0x17a2 /opt/rtems-4.8/sparc-rtems/leon2/lib/librtemscpu.a(libscore_a-userextthreadswitch.o)
 .debug_info    0x000f7ebd      0x444 /opt/rtems-4.8/sparc-rtems/leon2/lib/librtemscpu.a(libscore_a-watchdog.o)
 .debug_info    0x000f8301      0x5e3 /opt/rtems-4.8/sparc-rtems/leon2/lib/librtemscpu.a(libscore_a-watchdoginsert.o)
 .debug_info    0x000f88e4      0x56a /opt/rtems-4.8/sparc-rtems/leon2/lib/librtemscpu.a(libscore_a-watchdogremove.o)
 .debug_info    0x000f8e4e      0x55d /opt/rtems-4.8/sparc-rtems/leon2/lib/librtemscpu.a(libscore_a-watchdogtickle.o)
 .debug_info    0x000f93ab      0x4ab /opt/rtems-4.8/sparc-rtems/leon2/lib/librtemscpu.a(libscore_a-wkspace.o)
 .debug_info    0x000f9856      0x758 /opt/rtems-4.8/sparc-rtems/leon2/lib/librtemscpu.a(libscorecpu_a-cpu.o)
 .debug_info    0x000f9fae       0xb4 /opt/rtems-4.8/sparc-rtems/leon2/lib/librtemscpu.a(libscorecpu_a-cpu_asm.o)
 .debug_info    0x000fa062      0xe22 /opt/rtems-4.8/sparc-rtems/leon2/lib/librtemscpu.a(miniimfs_init.o)
 .debug_info    0x000fae84     0x14f9 /opt/rtems-4.8/sparc-rtems/leon2/lib/librtemscpu.a(imfs_eval.o)
 .debug_info    0x000fc37d     0x118a /opt/rtems-4.8/sparc-rtems/leon2/lib/librtemscpu.a(imfs_getchild.o)
 .debug_info    0x000fd507      0x441 /opt/rtems-4.8/sparc-rtems/leon2/lib/librtemscpu.a(imfs_gtkn.o)
 .debug_info    0x000fd948      0xdea /opt/rtems-4.8/sparc-rtems/leon2/lib/librtemscpu.a(imfs_handlers_device.o)
 .debug_info    0x000fe732      0xdea /opt/rtems-4.8/sparc-rtems/leon2/lib/librtemscpu.a(imfs_handlers_link.o)
 .debug_info    0x000ff51c     0x11c6 /opt/rtems-4.8/sparc-rtems/leon2/lib/librtemscpu.a(imfs_initsupp.o)
 .debug_info    0x001006e2     0x11d2 /opt/rtems-4.8/sparc-rtems/leon2/lib/librtemscpu.a(imfs_mknod.o)
 .debug_info    0x001018b4     0x1095 /opt/rtems-4.8/sparc-rtems/leon2/lib/librtemscpu.a(imfs_ntype.o)
 .debug_info    0x00102949     0x11bd /opt/rtems-4.8/sparc-rtems/leon2/lib/librtemscpu.a(imfs_rmnod.o)
 .debug_info    0x00103b06     0x116e /opt/rtems-4.8/sparc-rtems/leon2/lib/librtemscpu.a(imfs_stat.o)
 .debug_info    0x00104c74      0x401 /opt/rtems-4.8/sparc-rtems/leon2/lib/librtemscpu.a(libc_a-inet_ntoa.o)
 .debug_info    0x00105075      0x5b9 /opt/rtems-4.8/sparc-rtems/leon2/lib/librtemscpu.a(libc_a-inet_ntop.o)
 .debug_info    0x0010562e     0x1a72 /opt/rtems-4.8/sparc-rtems/leon2/lib/librtemscpu.a(libcsupport_a-__gettod.o)
 .debug_info    0x001070a0      0x422 /opt/rtems-4.8/sparc-rtems/leon2/lib/librtemscpu.a(libcsupport_a-assoclocalbyremote.o)
 .debug_info    0x001074c2      0x42d /opt/rtems-4.8/sparc-rtems/leon2/lib/librtemscpu.a(libcsupport_a-assoclocalbyremotebitfield.o)
 .debug_info    0x001078ef      0x424 /opt/rtems-4.8/sparc-rtems/leon2/lib/librtemscpu.a(libcsupport_a-assocptrbyremote.o)
 .debug_info    0x00107d13      0xfb7 /opt/rtems-4.8/sparc-rtems/leon2/lib/librtemscpu.a(libcsupport_a-base_fs.o)
 .debug_info    0x00108cca     0x1b8c /opt/rtems-4.8/sparc-rtems/leon2/lib/librtemscpu.a(libcsupport_a-error.o)
 .debug_info    0x0010a856      0xdea /opt/rtems-4.8/sparc-rtems/leon2/lib/librtemscpu.a(libcsupport_a-fs_null_handlers.o)
 .debug_info    0x0010b640      0x547 /opt/rtems-4.8/sparc-rtems/leon2/lib/librtemscpu.a(libcsupport_a-getegid.o)
 .debug_info    0x0010bb87      0x547 /opt/rtems-4.8/sparc-rtems/leon2/lib/librtemscpu.a(libcsupport_a-geteuid.o)
 .debug_info    0x0010c0ce      0xf62 /opt/rtems-4.8/sparc-rtems/leon2/lib/librtemscpu.a(libcsupport_a-ioctl.o)
 .debug_info    0x0010d030      0xe96 /opt/rtems-4.8/sparc-rtems/leon2/lib/librtemscpu.a(libcsupport_a-libio_sockets.o)
 .debug_info    0x0010dec6     0x102b /opt/rtems-4.8/sparc-rtems/leon2/lib/librtemscpu.a(libcsupport_a-mount.o)
 .debug_info    0x0010eef1     0x1969 /opt/rtems-4.8/sparc-rtems/leon2/lib/librtemscpu.a(libcsupport_a-newlibc_exit.o)
 .debug_info    0x0011085a     0x1770 /opt/rtems-4.8/sparc-rtems/leon2/lib/librtemscpu.a(libcsupport_a-open.o)
 .debug_info    0x00111fca     0x1c58 /opt/rtems-4.8/sparc-rtems/leon2/lib/librtemscpu.a(libnetworking_a-if_ether.o)
 .debug_info    0x00113c22     0x1a6b /opt/rtems-4.8/sparc-rtems/leon2/lib/librtemscpu.a(libnetworking_a-in.o)
 .debug_info    0x0011568d      0x644 /opt/rtems-4.8/sparc-rtems/leon2/lib/librtemscpu.a(libnetworking_a-in_cksum.o)
 .debug_info    0x00115cd1     0x2548 /opt/rtems-4.8/sparc-rtems/leon2/lib/librtemscpu.a(libnetworking_a-in_pcb.o)
 .debug_info    0x00118219     0x18cf /opt/rtems-4.8/sparc-rtems/leon2/lib/librtemscpu.a(libnetworking_a-in_proto.o)
 .debug_info    0x00119ae8     0x1677 /opt/rtems-4.8/sparc-rtems/leon2/lib/librtemscpu.a(libnetworking_a-in_rmx.o)
 .debug_info    0x0011b15f     0x1f38 /opt/rtems-4.8/sparc-rtems/leon2/lib/librtemscpu.a(libnetworking_a-ip_icmp.o)
 .debug_info    0x0011d097      0x671 /opt/rtems-4.8/sparc-rtems/leon2/lib/librtemscpu.a(libnetworking_a-kern_subr.o)
 .debug_info    0x0011d708     0x1762 /opt/rtems-4.8/sparc-rtems/leon2/lib/librtemscpu.a(libnetworking_a-raw_usrreq.o)
 .debug_info    0x0011ee6a      0x39b /opt/rtems-4.8/sparc-rtems/leon2/lib/librtemscpu.a(libnetworking_a-rtems_bsdnet_malloc_starvation.o)
 .debug_info    0x0011f205     0x2c01 /opt/rtems-4.8/sparc-rtems/leon2/lib/librtemscpu.a(libnetworking_a-tcp_input.o)
 .debug_info    0x00121e06     0x1f1e /opt/rtems-4.8/sparc-rtems/leon2/lib/librtemscpu.a(libnetworking_a-tcp_output.o)
 .debug_info    0x00123d24     0x2c7f /opt/rtems-4.8/sparc-rtems/leon2/lib/librtemscpu.a(libnetworking_a-tcp_subr.o)
 .debug_info    0x001269a3     0x243c /opt/rtems-4.8/sparc-rtems/leon2/lib/librtemscpu.a(libnetworking_a-tcp_timer.o)
 .debug_info    0x00128ddf     0x2f8b /opt/rtems-4.8/sparc-rtems/leon2/lib/librtemscpu.a(libnetworking_a-tcp_usrreq.o)
 .debug_info    0x0012bd6a     0x259b /opt/rtems-4.8/sparc-rtems/leon2/lib/librtemscpu.a(libnetworking_a-udp_usrreq.o)
 .debug_info    0x0012e305     0x1757 /opt/rtems-4.8/sparc-rtems/leon2/lib/librtemscpu.a(libposix_a-cond.o)
 .debug_info    0x0012fa5c     0x189f /opt/rtems-4.8/sparc-rtems/leon2/lib/librtemscpu.a(libposix_a-key.o)
 .debug_info    0x001312fb     0x1705 /opt/rtems-4.8/sparc-rtems/leon2/lib/librtemscpu.a(libposix_a-mqueue.o)
 .debug_info    0x00132a00     0x174a /opt/rtems-4.8/sparc-rtems/leon2/lib/librtemscpu.a(libposix_a-mutex.o)
 .debug_info    0x0013414a     0x16f8 /opt/rtems-4.8/sparc-rtems/leon2/lib/librtemscpu.a(libposix_a-pbarrier.o)
 .debug_info    0x00135842     0x16f8 /opt/rtems-4.8/sparc-rtems/leon2/lib/librtemscpu.a(libposix_a-prwlock.o)
 .debug_info    0x00136f3a     0x1cab /opt/rtems-4.8/sparc-rtems/leon2/lib/librtemscpu.a(libposix_a-psignal.o)
 .debug_info    0x00138be5     0x1b5b /opt/rtems-4.8/sparc-rtems/leon2/lib/librtemscpu.a(libposix_a-psignalchecksignal.o)
 .debug_info    0x0013a740     0x1dbd /opt/rtems-4.8/sparc-rtems/leon2/lib/librtemscpu.a(libposix_a-psignalclearsignals.o)
 .debug_info    0x0013c4fd     0x16f8 /opt/rtems-4.8/sparc-rtems/leon2/lib/librtemscpu.a(libposix_a-pspin.o)
 .debug_info    0x0013dbf5     0x214f /opt/rtems-4.8/sparc-rtems/leon2/lib/librtemscpu.a(libposix_a-pthread.o)
 .debug_info    0x0013fd44     0x17ca /opt/rtems-4.8/sparc-rtems/leon2/lib/librtemscpu.a(libposix_a-pthreadexit.o)
 .debug_info    0x0014150e     0x18b9 /opt/rtems-4.8/sparc-rtems/leon2/lib/librtemscpu.a(libposix_a-ptimer.o)
 .debug_info    0x00142dc7     0x16f8 /opt/rtems-4.8/sparc-rtems/leon2/lib/librtemscpu.a(libposix_a-semaphore.o)
 .debug_info    0x001444bf     0x16b8 /opt/rtems-4.8/sparc-rtems/leon2/lib/librtemscpu.a(libposix_a-sigemptyset.o)
 .debug_info    0x00145b77     0x16ec /opt/rtems-4.8/sparc-rtems/leon2/lib/librtemscpu.a(librtems_a-barrier.o)
 .debug_info    0x00147263     0x167f /opt/rtems-4.8/sparc-rtems/leon2/lib/librtemscpu.a(librtems_a-barrierdata.o)
 .debug_info    0x001488e2     0x16ec /opt/rtems-4.8/sparc-rtems/leon2/lib/librtemscpu.a(librtems_a-dpmem.o)
 .debug_info    0x00149fce      0x3be /opt/rtems-4.8/sparc-rtems/leon2/lib/librtemscpu.a(librtems_a-dpmemdata.o)
 .debug_info    0x0014a38c     0x16cb /opt/rtems-4.8/sparc-rtems/leon2/lib/librtemscpu.a(librtems_a-event.o)
 .debug_info    0x0014ba57     0x16b0 /opt/rtems-4.8/sparc-rtems/leon2/lib/librtemscpu.a(librtems_a-eventdata.o)
 .debug_info    0x0014d107       0x89 /opt/rtems-4.8/sparc-rtems/leon2/lib/librtemscpu.a(librtems_a-intr.o)
 .debug_info    0x0014d190     0x18e5 /opt/rtems-4.8/sparc-rtems/leon2/lib/librtemscpu.a(librtems_a-msg.o)
 .debug_info    0x0014ea75     0x1826 /opt/rtems-4.8/sparc-rtems/leon2/lib/librtemscpu.a(librtems_a-msgdata.o)
 .debug_info    0x0015029b     0x173e /opt/rtems-4.8/sparc-rtems/leon2/lib/librtemscpu.a(librtems_a-part.o)
 .debug_info    0x001519d9      0x3be /opt/rtems-4.8/sparc-rtems/leon2/lib/librtemscpu.a(librtems_a-partdata.o)
 .debug_info    0x00151d97     0x16ec /opt/rtems-4.8/sparc-rtems/leon2/lib/librtemscpu.a(librtems_a-ratemon.o)
 .debug_info    0x00153483     0x173e /opt/rtems-4.8/sparc-rtems/leon2/lib/librtemscpu.a(librtems_a-region.o)
 .debug_info    0x00154bc1     0x167f /opt/rtems-4.8/sparc-rtems/leon2/lib/librtemscpu.a(librtems_a-regiondata.o)
 .debug_info    0x00156240     0x16f9 /opt/rtems-4.8/sparc-rtems/leon2/lib/librtemscpu.a(librtems_a-rtemstimer.o)
 .debug_info    0x00157939     0x1691 /opt/rtems-4.8/sparc-rtems/leon2/lib/librtemscpu.a(librtems_a-rtemstimerdata.o)
 .debug_info    0x00158fca     0x174b /opt/rtems-4.8/sparc-rtems/leon2/lib/librtemscpu.a(librtems_a-sem.o)
 .debug_info    0x0015a715     0x168d /opt/rtems-4.8/sparc-rtems/leon2/lib/librtemscpu.a(librtems_a-signal.o)
 .debug_info    0x0015bda2     0x1f0e /opt/rtems-4.8/sparc-rtems/leon2/lib/librtemscpu.a(librtems_a-tasks.o)
 .debug_info    0x0015dcb0      0x130 /opt/rtems-4.8/sparc-rtems/leon2/lib/librtemscpu.a(libsapi_a-debug.o)
 .debug_info    0x0015dde0     0x172a /opt/rtems-4.8/sparc-rtems/leon2/lib/librtemscpu.a(libsapi_a-exshutdown.o)
 .debug_info    0x0015f50a      0x1eb /opt/rtems-4.8/sparc-rtems/leon2/lib/librtemscpu.a(libscore_a-chain.o)
 .debug_info    0x0015f6f5      0x15a /opt/rtems-4.8/sparc-rtems/leon2/lib/librtemscpu.a(libscore_a-chainextract.o)
 .debug_info    0x0015f84f      0x478 /opt/rtems-4.8/sparc-rtems/leon2/lib/librtemscpu.a(libscore_a-heapextend.o)
 .debug_info    0x0015fcc7      0x82d /opt/rtems-4.8/sparc-rtems/leon2/lib/librtemscpu.a(libscore_a-heapresizeblock.o)
 .debug_info    0x001604f4      0x502 /opt/rtems-4.8/sparc-rtems/leon2/lib/librtemscpu.a(libscore_a-heapsizeofuserarea.o)
 .debug_info    0x001609f6     0x18ad /opt/rtems-4.8/sparc-rtems/leon2/lib/librtemscpu.a(libscore_a-objectcomparenameraw.o)
 .debug_info    0x001622a3     0x18ad /opt/rtems-4.8/sparc-rtems/leon2/lib/librtemscpu.a(libscore_a-objectcomparenamestring.o)
 .debug_info    0x00163b50     0x18aa /opt/rtems-4.8/sparc-rtems/leon2/lib/librtemscpu.a(libscore_a-threadloadenv.o)
 .debug_info    0x001653fa     0x169f /opt/rtems-4.8/sparc-rtems/leon2/lib/librtemscpu.a(libscore_a-threadqextract.o)
 .debug_info    0x00166a99     0x17b7 /opt/rtems-4.8/sparc-rtems/leon2/lib/librtemscpu.a(libscore_a-threadqextractfifo.o)
 .debug_info    0x00168250     0x1862 /opt/rtems-4.8/sparc-rtems/leon2/lib/librtemscpu.a(libscore_a-threadqextractpriority.o)
 .debug_info    0x00169ab2     0x1aaf /opt/rtems-4.8/sparc-rtems/leon2/lib/librtemscpu.a(libscore_a-threadready.o)
 .debug_info    0x0016b561     0x19ef /opt/rtems-4.8/sparc-rtems/leon2/lib/librtemscpu.a(libscore_a-threadresettimeslice.o)
 .debug_info    0x0016cf50      0x3dc /opt/rtems-4.8/sparc-rtems/leon2/lib/librtemscpu.a(libscore_a-timespectoticks.o)
 .debug_info    0x0016d32c     0x188c /opt/rtems-4.8/sparc-rtems/leon2/lib/librtemscpu.a(libscore_a-userextaddapiset.o)
 .debug_info    0x0016ebb8     0x151f /opt/rtems-4.8/sparc-rtems/leon2/lib/librtemscpu.a(deviceio.o)
 .debug_info    0x001700d7      0x464 /opt/rtems-4.8/sparc-rtems/leon2/lib/librtemscpu.a(imfs_config.o)
 .debug_info    0x0017053b     0x12d2 /opt/rtems-4.8/sparc-rtems/leon2/lib/librtemscpu.a(imfs_creat.o)
 .debug_info    0x0017180d     0x10ff /opt/rtems-4.8/sparc-rtems/leon2/lib/librtemscpu.a(imfs_fchmod.o)
 .debug_info    0x0017290c      0x424 /opt/rtems-4.8/sparc-rtems/leon2/lib/librtemscpu.a(libcsupport_a-assocnamebylocal.o)
 .debug_info    0x00172d30      0x424 /opt/rtems-4.8/sparc-rtems/leon2/lib/librtemscpu.a(libcsupport_a-assocptrbylocal.o)
 .debug_info    0x00173154      0x422 /opt/rtems-4.8/sparc-rtems/leon2/lib/librtemscpu.a(libcsupport_a-assocremotebylocal.o)
 .debug_info    0x00173576      0xe48 /opt/rtems-4.8/sparc-rtems/leon2/lib/librtemscpu.a(libcsupport_a-ftruncate.o)
 .debug_info    0x001743be     0x192f /opt/rtems-4.8/sparc-rtems/leon2/lib/librtemscpu.a(libnetworking_a-igmp.o)
 .debug_info    0x00175ced     0x16c1 /opt/rtems-4.8/sparc-rtems/leon2/lib/librtemscpu.a(libnetworking_a-raw_cb.o)
 .debug_info    0x001773ae     0x1954 /opt/rtems-4.8/sparc-rtems/leon2/lib/librtemscpu.a(libposix_a-keyrundestructors.o)
 .debug_info    0x00178d02     0x1886 /opt/rtems-4.8/sparc-rtems/leon2/lib/librtemscpu.a(libposix_a-psignalclearprocesssignals.o)
 .debug_info    0x0017a588     0x1c5f /opt/rtems-4.8/sparc-rtems/leon2/lib/librtemscpu.a(librtems_a-taskmode.o)
 .debug_info    0x0017c1e7      0x27a /opt/rtems-4.8/sparc-rtems/leon2/lib/librtemscpu.a(libsapi_a-ioclose.o)
 .debug_info    0x0017c461      0x27a /opt/rtems-4.8/sparc-rtems/leon2/lib/librtemscpu.a(libsapi_a-iocontrol.o)
 .debug_info    0x0017c6db      0x27a /opt/rtems-4.8/sparc-rtems/leon2/lib/librtemscpu.a(libsapi_a-ioopen.o)
 .debug_info    0x0017c955      0x27a /opt/rtems-4.8/sparc-rtems/leon2/lib/librtemscpu.a(libsapi_a-ioread.o)
 .debug_info    0x0017cbcf      0x27a /opt/rtems-4.8/sparc-rtems/leon2/lib/librtemscpu.a(libsapi_a-iowrite.o)
 .debug_info    0x0017ce49     0x18d4 /opt/rtems-4.8/sparc-rtems/leon2/lib/librtemscpu.a(libscore_a-threadevaluatemode.o)
 .debug_info    0x0017e71d     0x19f5 /opt/rtems-4.8/sparc-rtems/leon2/lib/librtemscpu.a(libscore_a-threadhandler.o)
 .debug_info    0x00180112      0x3df /opt/rtems-4.8/sparc-rtems/leon2/lib/librtemscpu.a(libcsupport_a-assocnamebad.o)
 .debug_info    0x001804f1       0x8b /opt/rtems-4.8-1.1.3/bin/../lib/gcc/sparc-rtems/4.2.4/../../../../sparc-rtems/lib/soft/libc.a(lib_a-abort.o)
 .debug_info    0x0018057c       0xbc /opt/rtems-4.8-1.1.3/bin/../lib/gcc/sparc-rtems/4.2.4/../../../../sparc-rtems/lib/soft/libc.a(lib_a-atexit.o)
 .debug_info    0x00180638       0xc2 /opt/rtems-4.8-1.1.3/bin/../lib/gcc/sparc-rtems/4.2.4/../../../../sparc-rtems/lib/soft/libc.a(lib_a-bcmp.o)
 .debug_info    0x001806fa       0x9c /opt/rtems-4.8-1.1.3/bin/../lib/gcc/sparc-rtems/4.2.4/../../../../sparc-rtems/lib/soft/libc.a(lib_a-ctype_.o)
 .debug_info    0x00180796      0x922 /opt/rtems-4.8-1.1.3/bin/../lib/gcc/sparc-rtems/4.2.4/../../../../sparc-rtems/lib/soft/libc.a(lib_a-errno.o)
 .debug_info    0x001810b8      0x931 /opt/rtems-4.8-1.1.3/bin/../lib/gcc/sparc-rtems/4.2.4/../../../../sparc-rtems/lib/soft/libc.a(lib_a-exit.o)
 .debug_info    0x001819e9      0x984 /opt/rtems-4.8-1.1.3/bin/../lib/gcc/sparc-rtems/4.2.4/../../../../sparc-rtems/lib/soft/libc.a(lib_a-fclose.o)
 .debug_info    0x0018236d      0x9a6 /opt/rtems-4.8-1.1.3/bin/../lib/gcc/sparc-rtems/4.2.4/../../../../sparc-rtems/lib/soft/libc.a(lib_a-fflush.o)
 .debug_info    0x00182d13      0x94c /opt/rtems-4.8-1.1.3/bin/../lib/gcc/sparc-rtems/4.2.4/../../../../sparc-rtems/lib/soft/libc.a(lib_a-fileno.o)
 .debug_info    0x0018365f      0xb65 /opt/rtems-4.8-1.1.3/bin/../lib/gcc/sparc-rtems/4.2.4/../../../../sparc-rtems/lib/soft/libc.a(lib_a-findfp.o)
 .debug_info    0x001841c4      0x976 /opt/rtems-4.8-1.1.3/bin/../lib/gcc/sparc-rtems/4.2.4/../../../../sparc-rtems/lib/soft/libc.a(lib_a-fprintf.o)
 .debug_info    0x00184b3a      0xad7 /opt/rtems-4.8-1.1.3/bin/../lib/gcc/sparc-rtems/4.2.4/../../../../sparc-rtems/lib/soft/libc.a(lib_a-fwalk.o)
 .debug_info    0x00185611      0x154 /opt/rtems-4.8-1.1.3/bin/../lib/gcc/sparc-rtems/4.2.4/../../../../sparc-rtems/lib/soft/libc.a(lib_a-gmtime_r.o)
 .debug_info    0x00185765      0x931 /opt/rtems-4.8-1.1.3/bin/../lib/gcc/sparc-rtems/4.2.4/../../../../sparc-rtems/lib/soft/libc.a(lib_a-impure.o)
 .debug_info    0x00186096      0x108 /opt/rtems-4.8-1.1.3/bin/../lib/gcc/sparc-rtems/4.2.4/../../../../sparc-rtems/lib/soft/libc.a(lib_a-memcmp.o)
 .debug_info    0x0018619e      0x10c /opt/rtems-4.8-1.1.3/bin/../lib/gcc/sparc-rtems/4.2.4/../../../../sparc-rtems/lib/soft/libc.a(lib_a-memcpy.o)
 .debug_info    0x001862aa      0x106 /opt/rtems-4.8-1.1.3/bin/../lib/gcc/sparc-rtems/4.2.4/../../../../sparc-rtems/lib/soft/libc.a(lib_a-memset.o)
 .debug_info    0x001863b0      0x3f1 /opt/rtems-4.8-1.1.3/bin/../lib/gcc/sparc-rtems/4.2.4/../../../../sparc-rtems/lib/soft/libc.a(lib_a-mktm_r.o)
 .debug_info    0x001867a1      0x9ba /opt/rtems-4.8-1.1.3/bin/../lib/gcc/sparc-rtems/4.2.4/../../../../sparc-rtems/lib/soft/libc.a(lib_a-printf.o)
 .debug_info    0x0018715b      0x964 /opt/rtems-4.8-1.1.3/bin/../lib/gcc/sparc-rtems/4.2.4/../../../../sparc-rtems/lib/soft/libc.a(lib_a-putchar.o)
 .debug_info    0x00187abf      0xa17 /opt/rtems-4.8-1.1.3/bin/../lib/gcc/sparc-rtems/4.2.4/../../../../sparc-rtems/lib/soft/libc.a(lib_a-puts.o)
 .debug_info    0x001884d6      0x96c /opt/rtems-4.8-1.1.3/bin/../lib/gcc/sparc-rtems/4.2.4/../../../../sparc-rtems/lib/soft/libc.a(lib_a-raise.o)
 .debug_info    0x00188e42      0x9fe /opt/rtems-4.8-1.1.3/bin/../lib/gcc/sparc-rtems/4.2.4/../../../../sparc-rtems/lib/soft/libc.a(lib_a-reent.o)
 .debug_info    0x00189840      0xa2c /opt/rtems-4.8-1.1.3/bin/../lib/gcc/sparc-rtems/4.2.4/../../../../sparc-rtems/lib/soft/libc.a(lib_a-snprintf.o)
 .debug_info    0x0018a26c      0xa06 /opt/rtems-4.8-1.1.3/bin/../lib/gcc/sparc-rtems/4.2.4/../../../../sparc-rtems/lib/soft/libc.a(lib_a-sprintf.o)
 .debug_info    0x0018ac72      0xa6c /opt/rtems-4.8-1.1.3/bin/../lib/gcc/sparc-rtems/4.2.4/../../../../sparc-rtems/lib/soft/libc.a(lib_a-stdio.o)
 .debug_info    0x0018b6de      0x109 /opt/rtems-4.8-1.1.3/bin/../lib/gcc/sparc-rtems/4.2.4/../../../../sparc-rtems/lib/soft/libc.a(lib_a-strchr.o)
 .debug_info    0x0018b7e7       0xd0 /opt/rtems-4.8-1.1.3/bin/../lib/gcc/sparc-rtems/4.2.4/../../../../sparc-rtems/lib/soft/libc.a(lib_a-strcmp.o)
 .debug_info    0x0018b8b7      0x101 /opt/rtems-4.8-1.1.3/bin/../lib/gcc/sparc-rtems/4.2.4/../../../../sparc-rtems/lib/soft/libc.a(lib_a-strcpy.o)
 .debug_info    0x0018b9b8      0x930 /opt/rtems-4.8-1.1.3/bin/../lib/gcc/sparc-rtems/4.2.4/../../../../sparc-rtems/lib/soft/libc.a(lib_a-strdup.o)
 .debug_info    0x0018c2e8      0x954 /opt/rtems-4.8-1.1.3/bin/../lib/gcc/sparc-rtems/4.2.4/../../../../sparc-rtems/lib/soft/libc.a(lib_a-strdup_r.o)
 .debug_info    0x0018cc3c       0xb0 /opt/rtems-4.8-1.1.3/bin/../lib/gcc/sparc-rtems/4.2.4/../../../../sparc-rtems/lib/soft/libc.a(lib_a-strerror.o)
 .debug_info    0x0018ccec       0xf6 /opt/rtems-4.8-1.1.3/bin/../lib/gcc/sparc-rtems/4.2.4/../../../../sparc-rtems/lib/soft/libc.a(lib_a-strlcpy.o)
 .debug_info    0x0018cde2       0xcc /opt/rtems-4.8-1.1.3/bin/../lib/gcc/sparc-rtems/4.2.4/../../../../sparc-rtems/lib/soft/libc.a(lib_a-strlen.o)
 .debug_info    0x0018ceae       0xe4 /opt/rtems-4.8-1.1.3/bin/../lib/gcc/sparc-rtems/4.2.4/../../../../sparc-rtems/lib/soft/libc.a(lib_a-strncmp.o)
 .debug_info    0x0018cf92      0x121 /opt/rtems-4.8-1.1.3/bin/../lib/gcc/sparc-rtems/4.2.4/../../../../sparc-rtems/lib/soft/libc.a(lib_a-strncpy.o)
 .debug_info    0x0018d0b3       0xa8 /opt/rtems-4.8-1.1.3/bin/../lib/gcc/sparc-rtems/4.2.4/../../../../sparc-rtems/lib/soft/libc.a(lib_a-tzlock.o)
 .debug_info    0x0018d15b       0xc2 /opt/rtems-4.8-1.1.3/bin/../lib/gcc/sparc-rtems/4.2.4/../../../../sparc-rtems/lib/soft/libc.a(lib_a-tzvars.o)
 .debug_info    0x0018d21d       0x65 /opt/rtems-4.8-1.1.3/bin/../lib/gcc/sparc-rtems/4.2.4/../../../../sparc-rtems/lib/soft/libc.a(lib_a-u_strerr.o)
 .debug_info    0x0018d282     0x1135 /opt/rtems-4.8-1.1.3/bin/../lib/gcc/sparc-rtems/4.2.4/../../../../sparc-rtems/lib/soft/libc.a(lib_a-vfprintf.o)
 .debug_info    0x0018e3b7      0x9a2 /opt/rtems-4.8-1.1.3/bin/../lib/gcc/sparc-rtems/4.2.4/../../../../sparc-rtems/lib/soft/libc.a(lib_a-vprintf.o)
 .debug_info    0x0018ed59      0x9ef /opt/rtems-4.8-1.1.3/bin/../lib/gcc/sparc-rtems/4.2.4/../../../../sparc-rtems/lib/soft/libc.a(lib_a-wcrtomb.o)
 .debug_info    0x0018f748      0xa7e /opt/rtems-4.8-1.1.3/bin/../lib/gcc/sparc-rtems/4.2.4/../../../../sparc-rtems/lib/soft/libc.a(lib_a-wcsrtombs.o)
 .debug_info    0x001901c6      0x9e9 /opt/rtems-4.8-1.1.3/bin/../lib/gcc/sparc-rtems/4.2.4/../../../../sparc-rtems/lib/soft/libc.a(lib_a-wctomb_r.o)
 .debug_info    0x00190baf      0x942 /opt/rtems-4.8-1.1.3/bin/../lib/gcc/sparc-rtems/4.2.4/../../../../sparc-rtems/lib/soft/libc.a(lib_a-wsetup.o)
 .debug_info    0x001914f1      0x998 /opt/rtems-4.8-1.1.3/bin/../lib/gcc/sparc-rtems/4.2.4/../../../../sparc-rtems/lib/soft/libc.a(lib_a-__atexit.o)
 .debug_info    0x00191e89      0x98f /opt/rtems-4.8-1.1.3/bin/../lib/gcc/sparc-rtems/4.2.4/../../../../sparc-rtems/lib/soft/libc.a(lib_a-__call_atexit.o)
 .debug_info    0x00192818      0xd5e /opt/rtems-4.8-1.1.3/bin/../lib/gcc/sparc-rtems/4.2.4/../../../../sparc-rtems/lib/soft/libc.a(lib_a-dtoa.o)
 .debug_info    0x00193576      0xa7d /opt/rtems-4.8-1.1.3/bin/../lib/gcc/sparc-rtems/4.2.4/../../../../sparc-rtems/lib/soft/libc.a(lib_a-fvwrite.o)
 .debug_info    0x00193ff3      0x172 /opt/rtems-4.8-1.1.3/bin/../lib/gcc/sparc-rtems/4.2.4/../../../../sparc-rtems/lib/soft/libc.a(lib_a-gettzinfo.o)
 .debug_info    0x00194165      0xb8d /opt/rtems-4.8-1.1.3/bin/../lib/gcc/sparc-rtems/4.2.4/../../../../sparc-rtems/lib/soft/libc.a(lib_a-locale.o)
 .debug_info    0x00194cf2      0xae3 /opt/rtems-4.8-1.1.3/bin/../lib/gcc/sparc-rtems/4.2.4/../../../../sparc-rtems/lib/soft/libc.a(lib_a-makebuf.o)
 .debug_info    0x001957d5      0x12d /opt/rtems-4.8-1.1.3/bin/../lib/gcc/sparc-rtems/4.2.4/../../../../sparc-rtems/lib/soft/libc.a(lib_a-memchr.o)
 .debug_info    0x00195902      0x139 /opt/rtems-4.8-1.1.3/bin/../lib/gcc/sparc-rtems/4.2.4/../../../../sparc-rtems/lib/soft/libc.a(lib_a-memmove.o)
 .debug_info    0x00195a3b     0x13f8 /opt/rtems-4.8-1.1.3/bin/../lib/gcc/sparc-rtems/4.2.4/../../../../sparc-rtems/lib/soft/libc.a(lib_a-mprec.o)
 .debug_info    0x00196e33      0x9b3 /opt/rtems-4.8-1.1.3/bin/../lib/gcc/sparc-rtems/4.2.4/../../../../sparc-rtems/lib/soft/libc.a(lib_a-putc.o)
 .debug_info    0x001977e6       0xd1 /opt/rtems-4.8-1.1.3/bin/../lib/gcc/sparc-rtems/4.2.4/../../../../sparc-rtems/lib/soft/libc.a(lib_a-s_isinfd.o)
 .debug_info    0x001978b7       0xd3 /opt/rtems-4.8-1.1.3/bin/../lib/gcc/sparc-rtems/4.2.4/../../../../sparc-rtems/lib/soft/libc.a(lib_a-s_isnand.o)
 .debug_info    0x0019798a      0x9a0 /opt/rtems-4.8-1.1.3/bin/../lib/gcc/sparc-rtems/4.2.4/../../../../sparc-rtems/lib/soft/libc.a(lib_a-wbuf.o)
 .debug_info    0x0019832a      0x329 /opt/rtems-4.8-1.1.3/bin/../lib/gcc/sparc-rtems/4.2.4/soft/libgcc.a(_udivdi3.o)
 .debug_info    0x00198653      0x333 /opt/rtems-4.8-1.1.3/bin/../lib/gcc/sparc-rtems/4.2.4/soft/libgcc.a(_umoddi3.o)
 .debug_info    0x00198986      0x43f /opt/rtems-4.8-1.1.3/bin/../lib/gcc/sparc-rtems/4.2.4/soft/libgcc.a(_addsub_df.o)
 .debug_info    0x00198dc5      0x34a /opt/rtems-4.8-1.1.3/bin/../lib/gcc/sparc-rtems/4.2.4/soft/libgcc.a(_div_df.o)
 .debug_info    0x0019910f      0x24d /opt/rtems-4.8-1.1.3/bin/../lib/gcc/sparc-rtems/4.2.4/soft/libgcc.a(_eq_df.o)
 .debug_info    0x0019935c      0x24d /opt/rtems-4.8-1.1.3/bin/../lib/gcc/sparc-rtems/4.2.4/soft/libgcc.a(_ne_df.o)
 .debug_info    0x001995a9      0x24d /opt/rtems-4.8-1.1.3/bin/../lib/gcc/sparc-rtems/4.2.4/soft/libgcc.a(_gt_df.o)
 .debug_info    0x001997f6      0x24d /opt/rtems-4.8-1.1.3/bin/../lib/gcc/sparc-rtems/4.2.4/soft/libgcc.a(_ge_df.o)
 .debug_info    0x00199a43      0x24d /opt/rtems-4.8-1.1.3/bin/../lib/gcc/sparc-rtems/4.2.4/soft/libgcc.a(_lt_df.o)
 .debug_info    0x00199c90      0x210 /opt/rtems-4.8-1.1.3/bin/../lib/gcc/sparc-rtems/4.2.4/soft/libgcc.a(_si_to_df.o)
 .debug_info    0x00199ea0      0x27d /opt/rtems-4.8-1.1.3/bin/../lib/gcc/sparc-rtems/4.2.4/soft/libgcc.a(_df_to_si.o)
 .debug_info    0x0019a11d      0x219 /opt/rtems-4.8-1.1.3/bin/../lib/gcc/sparc-rtems/4.2.4/soft/libgcc.a(_fpcmp_parts_df.o)
 .debug_info    0x0019a336      0xcc2 /opt/rtems-4.8/sparc-rtems/leon2/lib/librtemsbsp.a(cache.rel)
 .debug_info    0x0019aff8       0xa7 /opt/rtems-4.8/sparc-rtems/leon2/lib/librtemsbsp.a(libsupport_a-version.o)
 .debug_info    0x0019b09f     0x16e5 /opt/rtems-4.8/sparc-rtems/leon2/lib/librtemscpu.a(libcsupport_a-fstat.o)
 .debug_info    0x0019c784      0xc02 /opt/rtems-4.8/sparc-rtems/leon2/lib/librtemscpu.a(libcsupport_a-getpid.o)
 .debug_info    0x0019d386      0x20c /opt/rtems-4.8/sparc-rtems/leon2/lib/librtemscpu.a(libcsupport_a-isatty.o)
 .debug_info    0x0019d592     0x1721 /opt/rtems-4.8/sparc-rtems/leon2/lib/librtemscpu.a(libcsupport_a-lseek.o)
 .debug_info    0x0019ecb3     0x1711 /opt/rtems-4.8/sparc-rtems/leon2/lib/librtemscpu.a(libcsupport_a-read.o)
 .debug_info    0x001a03c4      0xc63 /opt/rtems-4.8/sparc-rtems/leon2/lib/librtemscpu.a(libcsupport_a-write_r.o)
 .debug_info    0x001a1027     0x1704 /opt/rtems-4.8/sparc-rtems/leon2/lib/librtemscpu.a(libposix_a-kill.o)
 .debug_info    0x001a272b     0x1c10 /opt/rtems-4.8/sparc-rtems/leon2/lib/librtemscpu.a(libposix_a-killinfo.o)
 .debug_info    0x001a433b     0x1886 /opt/rtems-4.8/sparc-rtems/leon2/lib/librtemscpu.a(libposix_a-psignalsetprocesssignals.o)
 .debug_info    0x001a5bc1     0x1b6d /opt/rtems-4.8/sparc-rtems/leon2/lib/librtemscpu.a(libposix_a-psignalunblockthread.o)
 .debug_info    0x001a772e     0x1aae /opt/rtems-4.8/sparc-rtems/leon2/lib/librtemscpu.a(libposix_a-pthreadkill.o)
 .debug_info    0x001a91dc     0x169b /opt/rtems-4.8/sparc-rtems/leon2/lib/librtemscpu.a(libposix_a-pthreadself.o)
 .debug_info    0x001aa877      0x381 /opt/rtems-4.8/sparc-rtems/leon2/lib/librtemscpu.a(libposix_a-types.o)
 .debug_info    0x001aabf8      0xe59 /opt/rtems-4.8/sparc-rtems/leon2/lib/librtemscpu.a(libcsupport_a-write.o)

.debug_abbrev   0x00000000    0x30898
 .debug_abbrev  0x00000000       0x14 /opt/rtems-4.8/sparc-rtems/leon2/lib/start.o
 .debug_abbrev  0x00000014      0x295 /home/aitor/workspace/rasta-sw/osal-repo/trunk/samples/misc/soclient.o
 .debug_abbrev  0x000002a9      0x19b libosal_rtems_rastaleon2.a(osapi.o)
 .debug_abbrev  0x00000444      0x2ca libosal_rtems_rastaleon2.a(osmut.o)
 .debug_abbrev  0x0000070e      0x407 libosal_rtems_rastaleon2.a(ostask.o)
 .debug_abbrev  0x00000b15      0x2a4 libosal_rtems_rastaleon2.a(rtems-config.o)
 .debug_abbrev  0x00000db9       0x79 libosal_rtems_rastaleon2.a(osstats.o)
 .debug_abbrev  0x00000e32       0x14 /opt/rtems-4.8-1.1.3/bin/../lib/gcc/sparc-rtems/4.2.4/soft/libgcc.a(_mulsi3.o)
 .debug_abbrev  0x00000e46       0x14 /opt/rtems-4.8-1.1.3/bin/../lib/gcc/sparc-rtems/4.2.4/soft/libgcc.a(_divsi3.o)
 .debug_abbrev  0x00000e5a       0x14 /opt/rtems-4.8-1.1.3/bin/../lib/gcc/sparc-rtems/4.2.4/soft/libgcc.a(_modsi3.o)
 .debug_abbrev  0x00000e6e      0x1d2 /opt/rtems-4.8-1.1.3/bin/../lib/gcc/sparc-rtems/4.2.4/soft/libgcc.a(_mul_df.o)
 .debug_abbrev  0x00001040       0xc3 /opt/rtems-4.8-1.1.3/bin/../lib/gcc/sparc-rtems/4.2.4/soft/libgcc.a(_thenan_df.o)
 .debug_abbrev  0x00001103      0x15c /opt/rtems-4.8-1.1.3/bin/../lib/gcc/sparc-rtems/4.2.4/soft/libgcc.a(_usi_to_df.o)
 .debug_abbrev  0x0000125f       0xfb /opt/rtems-4.8-1.1.3/bin/../lib/gcc/sparc-rtems/4.2.4/soft/libgcc.a(_muldi3.o)
 .debug_abbrev  0x0000135a       0xb3 /opt/rtems-4.8-1.1.3/bin/../lib/gcc/sparc-rtems/4.2.4/soft/libgcc.a(_clzsi2.o)
 .debug_abbrev  0x0000140d      0x19d /opt/rtems-4.8-1.1.3/bin/../lib/gcc/sparc-rtems/4.2.4/soft/libgcc.a(_pack_df.o)
 .debug_abbrev  0x000015aa      0x12a /opt/rtems-4.8-1.1.3/bin/../lib/gcc/sparc-rtems/4.2.4/soft/libgcc.a(_unpack_df.o)
 .debug_abbrev  0x000016d4       0x6a /opt/rtems-4.8-1.1.3/bin/../lib/gcc/sparc-rtems/4.2.4/soft/libgcc.a(_clz.o)
 .debug_abbrev  0x0000173e      0x57a /opt/rtems-4.8/sparc-rtems/leon2/lib/librtemsbsp.a(amba.rel)
 .debug_abbrev  0x00001cb8      0x276 /opt/rtems-4.8/sparc-rtems/leon2/lib/librtemsbsp.a(clock.rel)
 .debug_abbrev  0x00001f2e      0x4c2 /opt/rtems-4.8/sparc-rtems/leon2/lib/librtemsbsp.a(console.rel)
 .debug_abbrev  0x000023f0      0x15e /opt/rtems-4.8/sparc-rtems/leon2/lib/librtemsbsp.a(leon_smc91111.rel)
 .debug_abbrev  0x0000254e      0x45b /opt/rtems-4.8/sparc-rtems/leon2/lib/librtemsbsp.a(libnetchip_a-smc91111.o)
 .debug_abbrev  0x000029a9       0x14 /opt/rtems-4.8/sparc-rtems/leon2/lib/librtemsbsp.a(reg_win.rel)
 .debug_abbrev  0x000029bd     0x1130 /opt/rtems-4.8/sparc-rtems/leon2/lib/librtemsbsp.a(startup.rel)
 .debug_abbrev  0x00003aed       0x14 /opt/rtems-4.8/sparc-rtems/leon2/lib/librtemsbsp.a(syscall.rel)
 .debug_abbrev  0x00003b01      0x33c /opt/rtems-4.8/sparc-rtems/leon2/lib/librtemscpu.a(check.o)
 .debug_abbrev  0x00003e3d      0x23c /opt/rtems-4.8/sparc-rtems/leon2/lib/librtemscpu.a(ioman.o)
 .debug_abbrev  0x00004079      0x1b2 /opt/rtems-4.8/sparc-rtems/leon2/lib/librtemscpu.a(libc_a-inet_addr.o)
 .debug_abbrev  0x0000422b      0x21f /opt/rtems-4.8/sparc-rtems/leon2/lib/librtemscpu.a(libc_a-inet_pton.o)
 .debug_abbrev  0x0000444a       0x89 /opt/rtems-4.8/sparc-rtems/leon2/lib/librtemscpu.a(libc_a-recv.o)
 .debug_abbrev  0x000044d3       0x92 /opt/rtems-4.8/sparc-rtems/leon2/lib/librtemscpu.a(libc_a-send.o)
 .debug_abbrev  0x00004565      0x147 /opt/rtems-4.8/sparc-rtems/leon2/lib/librtemscpu.a(libcsupport_a-__assert.o)
 .debug_abbrev  0x000046ac      0x1f6 /opt/rtems-4.8/sparc-rtems/leon2/lib/librtemscpu.a(libcsupport_a-close.o)
 .debug_abbrev  0x000048a2      0x1a2 /opt/rtems-4.8/sparc-rtems/leon2/lib/librtemscpu.a(libcsupport_a-eval.o)
 .debug_abbrev  0x00004a44      0x24e /opt/rtems-4.8/sparc-rtems/leon2/lib/librtemscpu.a(libcsupport_a-libio.o)
 .debug_abbrev  0x00004c92      0x175 /opt/rtems-4.8/sparc-rtems/leon2/lib/librtemscpu.a(libcsupport_a-libio_init.o)
 .debug_abbrev  0x00004e07      0x366 /opt/rtems-4.8/sparc-rtems/leon2/lib/librtemscpu.a(libcsupport_a-malloc.o)
 .debug_abbrev  0x0000516d       0x74 /opt/rtems-4.8/sparc-rtems/leon2/lib/librtemscpu.a(libcsupport_a-mkdir.o)
 .debug_abbrev  0x000051e1      0x195 /opt/rtems-4.8/sparc-rtems/leon2/lib/librtemscpu.a(libcsupport_a-mknod.o)
 .debug_abbrev  0x00005376      0x29a /opt/rtems-4.8/sparc-rtems/leon2/lib/librtemscpu.a(libcsupport_a-newlibc.o)
 .debug_abbrev  0x00005610      0x12f /opt/rtems-4.8/sparc-rtems/leon2/lib/librtemscpu.a(libcsupport_a-open_dev_console.o)
 .debug_abbrev  0x0000573f      0x15d /opt/rtems-4.8/sparc-rtems/leon2/lib/librtemscpu.a(libcsupport_a-printk.o)
 .debug_abbrev  0x0000589c       0x9e /opt/rtems-4.8/sparc-rtems/leon2/lib/librtemscpu.a(libcsupport_a-printk_plugin.o)
 .debug_abbrev  0x0000593a      0x388 /opt/rtems-4.8/sparc-rtems/leon2/lib/librtemscpu.a(libcsupport_a-termios.o)
 .debug_abbrev  0x00005cc2      0x14b /opt/rtems-4.8/sparc-rtems/leon2/lib/librtemscpu.a(libcsupport_a-termiosinitialize.o)
 .debug_abbrev  0x00005e0d      0x3f5 /opt/rtems-4.8/sparc-rtems/leon2/lib/librtemscpu.a(libnetworking_a-if.o)
 .debug_abbrev  0x00006202      0x336 /opt/rtems-4.8/sparc-rtems/leon2/lib/librtemscpu.a(libnetworking_a-if_ethersubr.o)
 .debug_abbrev  0x00006538      0x21a /opt/rtems-4.8/sparc-rtems/leon2/lib/librtemscpu.a(libnetworking_a-if_loop.o)
 .debug_abbrev  0x00006752      0x4bc /opt/rtems-4.8/sparc-rtems/leon2/lib/librtemscpu.a(libnetworking_a-ip_input.o)
 .debug_abbrev  0x00006c0e      0x234 /opt/rtems-4.8/sparc-rtems/leon2/lib/librtemscpu.a(libnetworking_a-ip_mroute.o)
 .debug_abbrev  0x00006e42      0x3e2 /opt/rtems-4.8/sparc-rtems/leon2/lib/librtemscpu.a(libnetworking_a-ip_output.o)
 .debug_abbrev  0x00007224      0x15a /opt/rtems-4.8/sparc-rtems/leon2/lib/librtemscpu.a(libnetworking_a-kern_mib.o)
 .debug_abbrev  0x0000737e      0x3e0 /opt/rtems-4.8/sparc-rtems/leon2/lib/librtemscpu.a(libnetworking_a-kern_sysctl.o)
 .debug_abbrev  0x0000775e      0x36f /opt/rtems-4.8/sparc-rtems/leon2/lib/librtemscpu.a(libnetworking_a-radix.o)
 .debug_abbrev  0x00007acd      0x2fc /opt/rtems-4.8/sparc-rtems/leon2/lib/librtemscpu.a(libnetworking_a-raw_ip.o)
 .debug_abbrev  0x00007dc9      0x3cd /opt/rtems-4.8/sparc-rtems/leon2/lib/librtemscpu.a(libnetworking_a-route.o)
 .debug_abbrev  0x00008196      0x4e2 /opt/rtems-4.8/sparc-rtems/leon2/lib/librtemscpu.a(libnetworking_a-rtems_glue.o)
 .debug_abbrev  0x00008678      0x1da /opt/rtems-4.8/sparc-rtems/leon2/lib/librtemscpu.a(libnetworking_a-rtems_malloc_mbuf.o)
 .debug_abbrev  0x00008852      0x1fa /opt/rtems-4.8/sparc-rtems/leon2/lib/librtemscpu.a(libnetworking_a-rtems_showifstat.o)
 .debug_abbrev  0x00008a4c      0x274 /opt/rtems-4.8/sparc-rtems/leon2/lib/librtemscpu.a(libnetworking_a-rtems_showroute.o)
 .debug_abbrev  0x00008cc0      0x3bd /opt/rtems-4.8/sparc-rtems/leon2/lib/librtemscpu.a(libnetworking_a-rtems_syscall.o)
 .debug_abbrev  0x0000907d      0x3af /opt/rtems-4.8/sparc-rtems/leon2/lib/librtemscpu.a(libnetworking_a-rtsock.o)
 .debug_abbrev  0x0000942c      0x16d /opt/rtems-4.8/sparc-rtems/leon2/lib/librtemscpu.a(libnetworking_a-sghostname.o)
 .debug_abbrev  0x00009599      0x228 /opt/rtems-4.8/sparc-rtems/leon2/lib/librtemscpu.a(libnetworking_a-uipc_domain.o)
 .debug_abbrev  0x000097c1      0x38d /opt/rtems-4.8/sparc-rtems/leon2/lib/librtemscpu.a(libnetworking_a-uipc_mbuf.o)
 .debug_abbrev  0x00009b4e      0x3f8 /opt/rtems-4.8/sparc-rtems/leon2/lib/librtemscpu.a(libnetworking_a-uipc_socket.o)
 .debug_abbrev  0x00009f46      0x3e1 /opt/rtems-4.8/sparc-rtems/leon2/lib/librtemscpu.a(libnetworking_a-uipc_socket2.o)
 .debug_abbrev  0x0000a327      0x298 /opt/rtems-4.8/sparc-rtems/leon2/lib/librtemscpu.a(librtems_a-clockget.o)
 .debug_abbrev  0x0000a5bf      0x1d4 /opt/rtems-4.8/sparc-rtems/leon2/lib/librtemscpu.a(librtems_a-clocksetnsecshandler.o)
 .debug_abbrev  0x0000a793      0x1ed /opt/rtems-4.8/sparc-rtems/leon2/lib/librtemscpu.a(librtems_a-clocktick.o)
 .debug_abbrev  0x0000a980      0x232 /opt/rtems-4.8/sparc-rtems/leon2/lib/librtemscpu.a(librtems_a-eventreceive.o)
 .debug_abbrev  0x0000abb2      0x29e /opt/rtems-4.8/sparc-rtems/leon2/lib/librtemscpu.a(librtems_a-eventseize.o)
 .debug_abbrev  0x0000ae50      0x340 /opt/rtems-4.8/sparc-rtems/leon2/lib/librtemscpu.a(librtems_a-eventsend.o)
 .debug_abbrev  0x0000b190      0x275 /opt/rtems-4.8/sparc-rtems/leon2/lib/librtemscpu.a(librtems_a-eventsurrender.o)
 .debug_abbrev  0x0000b405      0x317 /opt/rtems-4.8/sparc-rtems/leon2/lib/librtemscpu.a(librtems_a-eventtimeout.o)
 .debug_abbrev  0x0000b71c       0xc2 /opt/rtems-4.8/sparc-rtems/leon2/lib/librtemscpu.a(librtems_a-intrcatch.o)
 .debug_abbrev  0x0000b7de      0x2b7 /opt/rtems-4.8/sparc-rtems/leon2/lib/librtemscpu.a(librtems_a-ratemoncreate.o)
 .debug_abbrev  0x0000ba95      0x1b4 /opt/rtems-4.8/sparc-rtems/leon2/lib/librtemscpu.a(librtems_a-ratemondata.o)
 .debug_abbrev  0x0000bc49      0x2c2 /opt/rtems-4.8/sparc-rtems/leon2/lib/librtemscpu.a(librtems_a-ratemondelete.o)
 .debug_abbrev  0x0000bf0b      0x315 /opt/rtems-4.8/sparc-rtems/leon2/lib/librtemscpu.a(librtems_a-ratemonperiod.o)
 .debug_abbrev  0x0000c220      0x28d /opt/rtems-4.8/sparc-rtems/leon2/lib/librtemscpu.a(librtems_a-ratemontimeout.o)
 .debug_abbrev  0x0000c4ad      0x131 /opt/rtems-4.8/sparc-rtems/leon2/lib/librtemscpu.a(librtems_a-rtemsobjectgetname.o)
 .debug_abbrev  0x0000c5de      0x302 /opt/rtems-4.8/sparc-rtems/leon2/lib/librtemscpu.a(librtems_a-semcreate.o)
 .debug_abbrev  0x0000c8e0      0x1b4 /opt/rtems-4.8/sparc-rtems/leon2/lib/librtemscpu.a(librtems_a-semdata.o)
 .debug_abbrev  0x0000ca94      0x2b5 /opt/rtems-4.8/sparc-rtems/leon2/lib/librtemscpu.a(librtems_a-semdelete.o)
 .debug_abbrev  0x0000cd49      0x257 /opt/rtems-4.8/sparc-rtems/leon2/lib/librtemscpu.a(librtems_a-semflush.o)
 .debug_abbrev  0x0000cfa0      0x2de /opt/rtems-4.8/sparc-rtems/leon2/lib/librtemscpu.a(librtems_a-semobtain.o)
 .debug_abbrev  0x0000d27e      0x255 /opt/rtems-4.8/sparc-rtems/leon2/lib/librtemscpu.a(librtems_a-semrelease.o)
 .debug_abbrev  0x0000d4d3      0x1dc /opt/rtems-4.8/sparc-rtems/leon2/lib/librtemscpu.a(librtems_a-semtranslatereturncode.o)
 .debug_abbrev  0x0000d6af      0x2e9 /opt/rtems-4.8/sparc-rtems/leon2/lib/librtemscpu.a(librtems_a-taskcreate.o)
 .debug_abbrev  0x0000d998      0x1b4 /opt/rtems-4.8/sparc-rtems/leon2/lib/librtemscpu.a(librtems_a-taskdata.o)
 .debug_abbrev  0x0000db4c      0x338 /opt/rtems-4.8/sparc-rtems/leon2/lib/librtemscpu.a(librtems_a-taskdelete.o)
 .debug_abbrev  0x0000de84      0x1f9 /opt/rtems-4.8/sparc-rtems/leon2/lib/librtemscpu.a(librtems_a-taskident.o)
 .debug_abbrev  0x0000e07d      0x207 /opt/rtems-4.8/sparc-rtems/leon2/lib/librtemscpu.a(librtems_a-taskinitusers.o)
 .debug_abbrev  0x0000e284      0x2fb /opt/rtems-4.8/sparc-rtems/leon2/lib/librtemscpu.a(librtems_a-taskresume.o)
 .debug_abbrev  0x0000e57f      0x2fb /opt/rtems-4.8/sparc-rtems/leon2/lib/librtemscpu.a(librtems_a-tasksetpriority.o)
 .debug_abbrev  0x0000e87a      0x30a /opt/rtems-4.8/sparc-rtems/leon2/lib/librtemscpu.a(librtems_a-taskstart.o)
 .debug_abbrev  0x0000eb84      0x2fb /opt/rtems-4.8/sparc-rtems/leon2/lib/librtemscpu.a(librtems_a-tasksuspend.o)
 .debug_abbrev  0x0000ee7f      0x344 /opt/rtems-4.8/sparc-rtems/leon2/lib/librtemscpu.a(librtems_a-taskvariableadd.o)
 .debug_abbrev  0x0000f1c3      0x24f /opt/rtems-4.8/sparc-rtems/leon2/lib/librtemscpu.a(librtems_a-taskwakeafter.o)
 .debug_abbrev  0x0000f412      0x2d4 /opt/rtems-4.8/sparc-rtems/leon2/lib/librtemscpu.a(libsapi_a-exinit.o)
 .debug_abbrev  0x0000f6e6      0x1c9 /opt/rtems-4.8/sparc-rtems/leon2/lib/librtemscpu.a(libsapi_a-extension.o)
 .debug_abbrev  0x0000f8af      0x1b4 /opt/rtems-4.8/sparc-rtems/leon2/lib/librtemscpu.a(libsapi_a-extensiondata.o)
 .debug_abbrev  0x0000fa63       0x6f /opt/rtems-4.8/sparc-rtems/leon2/lib/librtemscpu.a(libsapi_a-fatal.o)
 .debug_abbrev  0x0000fad2       0x6e /opt/rtems-4.8/sparc-rtems/leon2/lib/librtemscpu.a(libsapi_a-getversionstring.o)
 .debug_abbrev  0x0000fb40      0x1e7 /opt/rtems-4.8/sparc-rtems/leon2/lib/librtemscpu.a(libsapi_a-io.o)
 .debug_abbrev  0x0000fd27       0x9a /opt/rtems-4.8/sparc-rtems/leon2/lib/librtemscpu.a(libsapi_a-iodata.o)
 .debug_abbrev  0x0000fdc1       0xd1 /opt/rtems-4.8/sparc-rtems/leon2/lib/librtemscpu.a(libsapi_a-ioinitialize.o)
 .debug_abbrev  0x0000fe92       0xe7 /opt/rtems-4.8/sparc-rtems/leon2/lib/librtemscpu.a(libsapi_a-ioregisterdriver.o)
 .debug_abbrev  0x0000ff79      0x1e9 /opt/rtems-4.8/sparc-rtems/leon2/lib/librtemscpu.a(libsapi_a-posixapi.o)
 .debug_abbrev  0x00010162      0x1e9 /opt/rtems-4.8/sparc-rtems/leon2/lib/librtemscpu.a(libsapi_a-rtemsapi.o)
 .debug_abbrev  0x0001034b      0x24a /opt/rtems-4.8/sparc-rtems/leon2/lib/librtemscpu.a(libscore_a-apiext.o)
 .debug_abbrev  0x00010595      0x123 /opt/rtems-4.8/sparc-rtems/leon2/lib/librtemscpu.a(libscore_a-chainappend.o)
 .debug_abbrev  0x000106b8      0x13f /opt/rtems-4.8/sparc-rtems/leon2/lib/librtemscpu.a(libscore_a-chainget.o)
 .debug_abbrev  0x000107f7      0x1f8 /opt/rtems-4.8/sparc-rtems/leon2/lib/librtemscpu.a(libscore_a-coremutex.o)
 .debug_abbrev  0x000109ef      0x1c9 /opt/rtems-4.8/sparc-rtems/leon2/lib/librtemscpu.a(libscore_a-coremutexflush.o)
 .debug_abbrev  0x00010bb8      0x216 /opt/rtems-4.8/sparc-rtems/leon2/lib/librtemscpu.a(libscore_a-coremutexseize.o)
 .debug_abbrev  0x00010dce      0x230 /opt/rtems-4.8/sparc-rtems/leon2/lib/librtemscpu.a(libscore_a-coremutexsurrender.o)
 .debug_abbrev  0x00010ffe      0x1f8 /opt/rtems-4.8/sparc-rtems/leon2/lib/librtemscpu.a(libscore_a-coresem.o)
 .debug_abbrev  0x000111f6      0x1c9 /opt/rtems-4.8/sparc-rtems/leon2/lib/librtemscpu.a(libscore_a-coresemflush.o)
 .debug_abbrev  0x000113bf      0x205 /opt/rtems-4.8/sparc-rtems/leon2/lib/librtemscpu.a(libscore_a-coresemsurrender.o)
 .debug_abbrev  0x000115c4      0x1d6 /opt/rtems-4.8/sparc-rtems/leon2/lib/librtemscpu.a(libscore_a-coretod.o)
 .debug_abbrev  0x0001179a      0x156 /opt/rtems-4.8/sparc-rtems/leon2/lib/librtemscpu.a(libscore_a-coretodget.o)
 .debug_abbrev  0x000118f0      0x156 /opt/rtems-4.8/sparc-rtems/leon2/lib/librtemscpu.a(libscore_a-coretodgetuptime.o)
 .debug_abbrev  0x00011a46      0x1e9 /opt/rtems-4.8/sparc-rtems/leon2/lib/librtemscpu.a(libscore_a-coretodtickle.o)
 .debug_abbrev  0x00011c2f      0x215 /opt/rtems-4.8/sparc-rtems/leon2/lib/librtemscpu.a(libscore_a-heap.o)
 .debug_abbrev  0x00011e44      0x17d /opt/rtems-4.8/sparc-rtems/leon2/lib/librtemscpu.a(libscore_a-heapallocate.o)
 .debug_abbrev  0x00011fc1      0x1f0 /opt/rtems-4.8/sparc-rtems/leon2/lib/librtemscpu.a(libscore_a-heapfree.o)
 .debug_abbrev  0x000121b1      0x219 /opt/rtems-4.8/sparc-rtems/leon2/lib/librtemscpu.a(libscore_a-interr.o)
 .debug_abbrev  0x000123ca      0x13e /opt/rtems-4.8/sparc-rtems/leon2/lib/librtemscpu.a(libscore_a-isr.o)
 .debug_abbrev  0x00012508      0x1f4 /opt/rtems-4.8/sparc-rtems/leon2/lib/librtemscpu.a(libscore_a-iterateoverthreads.o)
 .debug_abbrev  0x000126fc      0x1c9 /opt/rtems-4.8/sparc-rtems/leon2/lib/librtemscpu.a(libscore_a-object.o)
 .debug_abbrev  0x000128c5      0x203 /opt/rtems-4.8/sparc-rtems/leon2/lib/librtemscpu.a(libscore_a-objectallocate.o)
 .debug_abbrev  0x00012ac8      0x26f /opt/rtems-4.8/sparc-rtems/leon2/lib/librtemscpu.a(libscore_a-objectextendinformation.o)
 .debug_abbrev  0x00012d37      0x210 /opt/rtems-4.8/sparc-rtems/leon2/lib/librtemscpu.a(libscore_a-objectfree.o)
 .debug_abbrev  0x00012f47      0x24e /opt/rtems-4.8/sparc-rtems/leon2/lib/librtemscpu.a(libscore_a-objectget.o)
 .debug_abbrev  0x00013195      0x221 /opt/rtems-4.8/sparc-rtems/leon2/lib/librtemscpu.a(libscore_a-objectgetisr.o)
 .debug_abbrev  0x000133b6      0x299 /opt/rtems-4.8/sparc-rtems/leon2/lib/librtemscpu.a(libscore_a-objectgetnameasstring.o)
 .debug_abbrev  0x0001364f      0x253 /opt/rtems-4.8/sparc-rtems/leon2/lib/librtemscpu.a(libscore_a-objectinitializeinformation.o)
 .debug_abbrev  0x000138a2      0x223 /opt/rtems-4.8/sparc-rtems/leon2/lib/librtemscpu.a(libscore_a-objectnametoid.o)
 .debug_abbrev  0x00013ac5      0x259 /opt/rtems-4.8/sparc-rtems/leon2/lib/librtemscpu.a(libscore_a-objectshrinkinformation.o)
 .debug_abbrev  0x00013d1e      0x2d2 /opt/rtems-4.8/sparc-rtems/leon2/lib/librtemscpu.a(libscore_a-pheapallocate.o)
 .debug_abbrev  0x00013ff0      0x2e1 /opt/rtems-4.8/sparc-rtems/leon2/lib/librtemscpu.a(libscore_a-pheapextend.o)
 .debug_abbrev  0x000142d1      0x2d2 /opt/rtems-4.8/sparc-rtems/leon2/lib/librtemscpu.a(libscore_a-pheapfree.o)
 .debug_abbrev  0x000145a3      0x2d2 /opt/rtems-4.8/sparc-rtems/leon2/lib/librtemscpu.a(libscore_a-pheapgetblocksize.o)
 .debug_abbrev  0x00014875      0x2e1 /opt/rtems-4.8/sparc-rtems/leon2/lib/librtemscpu.a(libscore_a-pheapresizeblock.o)
 .debug_abbrev  0x00014b56      0x224 /opt/rtems-4.8/sparc-rtems/leon2/lib/librtemscpu.a(libscore_a-thread.o)
 .debug_abbrev  0x00014d7a      0x325 /opt/rtems-4.8/sparc-rtems/leon2/lib/librtemscpu.a(libscore_a-threadchangepriority.o)
 .debug_abbrev  0x0001509f      0x277 /opt/rtems-4.8/sparc-rtems/leon2/lib/librtemscpu.a(libscore_a-threadclearstate.o)
 .debug_abbrev  0x00015316      0x28e /opt/rtems-4.8/sparc-rtems/leon2/lib/librtemscpu.a(libscore_a-threadclose.o)
 .debug_abbrev  0x000155a4      0x209 /opt/rtems-4.8/sparc-rtems/leon2/lib/librtemscpu.a(libscore_a-threadcreateidle.o)
 .debug_abbrev  0x000157ad      0x30e /opt/rtems-4.8/sparc-rtems/leon2/lib/librtemscpu.a(libscore_a-threaddelayended.o)
 .debug_abbrev  0x00015abb      0x210 /opt/rtems-4.8/sparc-rtems/leon2/lib/librtemscpu.a(libscore_a-threaddispatch.o)
 .debug_abbrev  0x00015ccb      0x1cb /opt/rtems-4.8/sparc-rtems/leon2/lib/librtemscpu.a(libscore_a-threadidlebody.o)
 .debug_abbrev  0x00015e96      0x2a6 /opt/rtems-4.8/sparc-rtems/leon2/lib/librtemscpu.a(libscore_a-threadinitialize.o)
 .debug_abbrev  0x0001613c      0x235 /opt/rtems-4.8/sparc-rtems/leon2/lib/librtemscpu.a(libscore_a-threadq.o)
 .debug_abbrev  0x00016371      0x1d8 /opt/rtems-4.8/sparc-rtems/leon2/lib/librtemscpu.a(libscore_a-threadqdequeue.o)
 .debug_abbrev  0x00016549      0x299 /opt/rtems-4.8/sparc-rtems/leon2/lib/librtemscpu.a(libscore_a-threadqdequeuefifo.o)
 .debug_abbrev  0x000167e2      0x253 /opt/rtems-4.8/sparc-rtems/leon2/lib/librtemscpu.a(libscore_a-threadqdequeuepriority.o)
 .debug_abbrev  0x00016a35      0x240 /opt/rtems-4.8/sparc-rtems/leon2/lib/librtemscpu.a(libscore_a-threadqenqueue.o)
 .debug_abbrev  0x00016c75      0x27d /opt/rtems-4.8/sparc-rtems/leon2/lib/librtemscpu.a(libscore_a-threadqenqueuefifo.o)
 .debug_abbrev  0x00016ef2      0x2a5 /opt/rtems-4.8/sparc-rtems/leon2/lib/librtemscpu.a(libscore_a-threadqenqueuepriority.o)
 .debug_abbrev  0x00017197      0x219 /opt/rtems-4.8/sparc-rtems/leon2/lib/librtemscpu.a(libscore_a-threadqextractwithproxy.o)
 .debug_abbrev  0x000173b0      0x1d8 /opt/rtems-4.8/sparc-rtems/leon2/lib/librtemscpu.a(libscore_a-threadqflush.o)
 .debug_abbrev  0x00017588      0x22e /opt/rtems-4.8/sparc-rtems/leon2/lib/librtemscpu.a(libscore_a-threadqrequeue.o)
 .debug_abbrev  0x000177b6      0x30a /opt/rtems-4.8/sparc-rtems/leon2/lib/librtemscpu.a(libscore_a-threadqtimeout.o)
 .debug_abbrev  0x00017ac0      0x297 /opt/rtems-4.8/sparc-rtems/leon2/lib/librtemscpu.a(libscore_a-threadresume.o)
 .debug_abbrev  0x00017d57      0x23f /opt/rtems-4.8/sparc-rtems/leon2/lib/librtemscpu.a(libscore_a-threadsetpriority.o)
 .debug_abbrev  0x00017f96      0x2b7 /opt/rtems-4.8/sparc-rtems/leon2/lib/librtemscpu.a(libscore_a-threadsetstate.o)
 .debug_abbrev  0x0001824d      0x263 /opt/rtems-4.8/sparc-rtems/leon2/lib/librtemscpu.a(libscore_a-threadsettransient.o)
 .debug_abbrev  0x000184b0      0x221 /opt/rtems-4.8/sparc-rtems/leon2/lib/librtemscpu.a(libscore_a-threadstackallocate.o)
 .debug_abbrev  0x000186d1      0x201 /opt/rtems-4.8/sparc-rtems/leon2/lib/librtemscpu.a(libscore_a-threadstackfree.o)
 .debug_abbrev  0x000188d2      0x1fa /opt/rtems-4.8/sparc-rtems/leon2/lib/librtemscpu.a(libscore_a-threadstart.o)
 .debug_abbrev  0x00018acc      0x1ee /opt/rtems-4.8/sparc-rtems/leon2/lib/librtemscpu.a(libscore_a-threadstartmultitasking.o)
 .debug_abbrev  0x00018cba      0x2a8 /opt/rtems-4.8/sparc-rtems/leon2/lib/librtemscpu.a(libscore_a-threadsuspend.o)
 .debug_abbrev  0x00018f62      0x1e9 /opt/rtems-4.8/sparc-rtems/leon2/lib/librtemscpu.a(libscore_a-threadtickletimeslice.o)
 .debug_abbrev  0x0001914b      0x268 /opt/rtems-4.8/sparc-rtems/leon2/lib/librtemscpu.a(libscore_a-threadyieldprocessor.o)
 .debug_abbrev  0x000193b3      0x15a /opt/rtems-4.8/sparc-rtems/leon2/lib/librtemscpu.a(libscore_a-timespecaddto.o)
 .debug_abbrev  0x0001950d      0x14b /opt/rtems-4.8/sparc-rtems/leon2/lib/librtemscpu.a(libscore_a-timespecgreaterthan.o)
 .debug_abbrev  0x00019658      0x14b /opt/rtems-4.8/sparc-rtems/leon2/lib/librtemscpu.a(libscore_a-timespeclessthan.o)
 .debug_abbrev  0x000197a3      0x149 /opt/rtems-4.8/sparc-rtems/leon2/lib/librtemscpu.a(libscore_a-timespecsubtract.o)
 .debug_abbrev  0x000198ec      0x251 /opt/rtems-4.8/sparc-rtems/leon2/lib/librtemscpu.a(libscore_a-userext.o)
 .debug_abbrev  0x00019b3d      0x1c9 /opt/rtems-4.8/sparc-rtems/leon2/lib/librtemscpu.a(libscore_a-userextaddset.o)
 .debug_abbrev  0x00019d06      0x231 /opt/rtems-4.8/sparc-rtems/leon2/lib/librtemscpu.a(libscore_a-userextthreadbegin.o)
 .debug_abbrev  0x00019f37      0x224 /opt/rtems-4.8/sparc-rtems/leon2/lib/librtemscpu.a(libscore_a-userextthreadcreate.o)
 .debug_abbrev  0x0001a15b      0x20c /opt/rtems-4.8/sparc-rtems/leon2/lib/librtemscpu.a(libscore_a-userextthreaddelete.o)
 .debug_abbrev  0x0001a367      0x222 /opt/rtems-4.8/sparc-rtems/leon2/lib/librtemscpu.a(libscore_a-userextthreadstart.o)
 .debug_abbrev  0x0001a589      0x222 /opt/rtems-4.8/sparc-rtems/leon2/lib/librtemscpu.a(libscore_a-userextthreadswitch.o)
 .debug_abbrev  0x0001a7ab      0x184 /opt/rtems-4.8/sparc-rtems/leon2/lib/librtemscpu.a(libscore_a-watchdog.o)
 .debug_abbrev  0x0001a92f      0x233 /opt/rtems-4.8/sparc-rtems/leon2/lib/librtemscpu.a(libscore_a-watchdoginsert.o)
 .debug_abbrev  0x0001ab62      0x1d8 /opt/rtems-4.8/sparc-rtems/leon2/lib/librtemscpu.a(libscore_a-watchdogremove.o)
 .debug_abbrev  0x0001ad3a      0x1c6 /opt/rtems-4.8/sparc-rtems/leon2/lib/librtemscpu.a(libscore_a-watchdogtickle.o)
 .debug_abbrev  0x0001af00      0x184 /opt/rtems-4.8/sparc-rtems/leon2/lib/librtemscpu.a(libscore_a-wkspace.o)
 .debug_abbrev  0x0001b084      0x1c2 /opt/rtems-4.8/sparc-rtems/leon2/lib/librtemscpu.a(libscorecpu_a-cpu.o)
 .debug_abbrev  0x0001b246       0x14 /opt/rtems-4.8/sparc-rtems/leon2/lib/librtemscpu.a(libscorecpu_a-cpu_asm.o)
 .debug_abbrev  0x0001b25a      0x16a /opt/rtems-4.8/sparc-rtems/leon2/lib/librtemscpu.a(miniimfs_init.o)
 .debug_abbrev  0x0001b3c4      0x262 /opt/rtems-4.8/sparc-rtems/leon2/lib/librtemscpu.a(imfs_eval.o)
 .debug_abbrev  0x0001b626      0x1ea /opt/rtems-4.8/sparc-rtems/leon2/lib/librtemscpu.a(imfs_getchild.o)
 .debug_abbrev  0x0001b810      0x167 /opt/rtems-4.8/sparc-rtems/leon2/lib/librtemscpu.a(imfs_gtkn.o)
 .debug_abbrev  0x0001b977      0x142 /opt/rtems-4.8/sparc-rtems/leon2/lib/librtemscpu.a(imfs_handlers_device.o)
 .debug_abbrev  0x0001bab9      0x142 /opt/rtems-4.8/sparc-rtems/leon2/lib/librtemscpu.a(imfs_handlers_link.o)
 .debug_abbrev  0x0001bbfb      0x1f4 /opt/rtems-4.8/sparc-rtems/leon2/lib/librtemscpu.a(imfs_initsupp.o)
 .debug_abbrev  0x0001bdef      0x1e7 /opt/rtems-4.8/sparc-rtems/leon2/lib/librtemscpu.a(imfs_mknod.o)
 .debug_abbrev  0x0001bfd6      0x180 /opt/rtems-4.8/sparc-rtems/leon2/lib/librtemscpu.a(imfs_ntype.o)
 .debug_abbrev  0x0001c156      0x198 /opt/rtems-4.8/sparc-rtems/leon2/lib/librtemscpu.a(imfs_rmnod.o)
 .debug_abbrev  0x0001c2ee      0x211 /opt/rtems-4.8/sparc-rtems/leon2/lib/librtemscpu.a(imfs_stat.o)
 .debug_abbrev  0x0001c4ff      0x142 /opt/rtems-4.8/sparc-rtems/leon2/lib/librtemscpu.a(libc_a-inet_ntoa.o)
 .debug_abbrev  0x0001c641      0x20d /opt/rtems-4.8/sparc-rtems/leon2/lib/librtemscpu.a(libc_a-inet_ntop.o)
 .debug_abbrev  0x0001c84e      0x27a /opt/rtems-4.8/sparc-rtems/leon2/lib/librtemscpu.a(libcsupport_a-__gettod.o)
 .debug_abbrev  0x0001cac8      0x158 /opt/rtems-4.8/sparc-rtems/leon2/lib/librtemscpu.a(libcsupport_a-assoclocalbyremote.o)
 .debug_abbrev  0x0001cc20      0x167 /opt/rtems-4.8/sparc-rtems/leon2/lib/librtemscpu.a(libcsupport_a-assoclocalbyremotebitfield.o)
 .debug_abbrev  0x0001cd87      0x158 /opt/rtems-4.8/sparc-rtems/leon2/lib/librtemscpu.a(libcsupport_a-assocptrbyremote.o)
 .debug_abbrev  0x0001cedf      0x1a0 /opt/rtems-4.8/sparc-rtems/leon2/lib/librtemscpu.a(libcsupport_a-base_fs.o)
 .debug_abbrev  0x0001d07f      0x286 /opt/rtems-4.8/sparc-rtems/leon2/lib/librtemscpu.a(libcsupport_a-error.o)
 .debug_abbrev  0x0001d305      0x142 /opt/rtems-4.8/sparc-rtems/leon2/lib/librtemscpu.a(libcsupport_a-fs_null_handlers.o)
 .debug_abbrev  0x0001d447      0x13a /opt/rtems-4.8/sparc-rtems/leon2/lib/librtemscpu.a(libcsupport_a-getegid.o)
 .debug_abbrev  0x0001d581      0x13a /opt/rtems-4.8/sparc-rtems/leon2/lib/librtemscpu.a(libcsupport_a-geteuid.o)
 .debug_abbrev  0x0001d6bb      0x1b0 /opt/rtems-4.8/sparc-rtems/leon2/lib/librtemscpu.a(libcsupport_a-ioctl.o)
 .debug_abbrev  0x0001d86b      0x18f /opt/rtems-4.8/sparc-rtems/leon2/lib/librtemscpu.a(libcsupport_a-libio_sockets.o)
 .debug_abbrev  0x0001d9fa      0x28c /opt/rtems-4.8/sparc-rtems/leon2/lib/librtemscpu.a(libcsupport_a-mount.o)
 .debug_abbrev  0x0001dc86      0x20f /opt/rtems-4.8/sparc-rtems/leon2/lib/librtemscpu.a(libcsupport_a-newlibc_exit.o)
 .debug_abbrev  0x0001de95      0x222 /opt/rtems-4.8/sparc-rtems/leon2/lib/librtemscpu.a(libcsupport_a-open.o)
 .debug_abbrev  0x0001e0b7      0x364 /opt/rtems-4.8/sparc-rtems/leon2/lib/librtemscpu.a(libnetworking_a-if_ether.o)
 .debug_abbrev  0x0001e41b      0x33f /opt/rtems-4.8/sparc-rtems/leon2/lib/librtemscpu.a(libnetworking_a-in.o)
 .debug_abbrev  0x0001e75a      0x1aa /opt/rtems-4.8/sparc-rtems/leon2/lib/librtemscpu.a(libnetworking_a-in_cksum.o)
 .debug_abbrev  0x0001e904      0x3a0 /opt/rtems-4.8/sparc-rtems/leon2/lib/librtemscpu.a(libnetworking_a-in_pcb.o)
 .debug_abbrev  0x0001eca4      0x188 /opt/rtems-4.8/sparc-rtems/leon2/lib/librtemscpu.a(libnetworking_a-in_proto.o)
 .debug_abbrev  0x0001ee2c      0x2fc /opt/rtems-4.8/sparc-rtems/leon2/lib/librtemscpu.a(libnetworking_a-in_rmx.o)
 .debug_abbrev  0x0001f128      0x3cd /opt/rtems-4.8/sparc-rtems/leon2/lib/librtemscpu.a(libnetworking_a-ip_icmp.o)
 .debug_abbrev  0x0001f4f5      0x1bf /opt/rtems-4.8/sparc-rtems/leon2/lib/librtemscpu.a(libnetworking_a-kern_subr.o)
 .debug_abbrev  0x0001f6b4      0x242 /opt/rtems-4.8/sparc-rtems/leon2/lib/librtemscpu.a(libnetworking_a-raw_usrreq.o)
 .debug_abbrev  0x0001f8f6      0x120 /opt/rtems-4.8/sparc-rtems/leon2/lib/librtemscpu.a(libnetworking_a-rtems_bsdnet_malloc_starvation.o)
 .debug_abbrev  0x0001fa16      0x3fb /opt/rtems-4.8/sparc-rtems/leon2/lib/librtemscpu.a(libnetworking_a-tcp_input.o)
 .debug_abbrev  0x0001fe11      0x308 /opt/rtems-4.8/sparc-rtems/leon2/lib/librtemscpu.a(libnetworking_a-tcp_output.o)
 .debug_abbrev  0x00020119      0x435 /opt/rtems-4.8/sparc-rtems/leon2/lib/librtemscpu.a(libnetworking_a-tcp_subr.o)
 .debug_abbrev  0x0002054e      0x2f1 /opt/rtems-4.8/sparc-rtems/leon2/lib/librtemscpu.a(libnetworking_a-tcp_timer.o)
 .debug_abbrev  0x0002083f      0x3a5 /opt/rtems-4.8/sparc-rtems/leon2/lib/librtemscpu.a(libnetworking_a-tcp_usrreq.o)
 .debug_abbrev  0x00020be4      0x3f7 /opt/rtems-4.8/sparc-rtems/leon2/lib/librtemscpu.a(libnetworking_a-udp_usrreq.o)
 .debug_abbrev  0x00020fdb      0x1c9 /opt/rtems-4.8/sparc-rtems/leon2/lib/librtemscpu.a(libposix_a-cond.o)
 .debug_abbrev  0x000211a4      0x1c9 /opt/rtems-4.8/sparc-rtems/leon2/lib/librtemscpu.a(libposix_a-key.o)
 .debug_abbrev  0x0002136d      0x1c9 /opt/rtems-4.8/sparc-rtems/leon2/lib/librtemscpu.a(libposix_a-mqueue.o)
 .debug_abbrev  0x00021536      0x1c9 /opt/rtems-4.8/sparc-rtems/leon2/lib/librtemscpu.a(libposix_a-mutex.o)
 .debug_abbrev  0x000216ff      0x1c9 /opt/rtems-4.8/sparc-rtems/leon2/lib/librtemscpu.a(libposix_a-pbarrier.o)
 .debug_abbrev  0x000218c8      0x1c9 /opt/rtems-4.8/sparc-rtems/leon2/lib/librtemscpu.a(libposix_a-prwlock.o)
 .debug_abbrev  0x00021a91      0x290 /opt/rtems-4.8/sparc-rtems/leon2/lib/librtemscpu.a(libposix_a-psignal.o)
 .debug_abbrev  0x00021d21      0x21d /opt/rtems-4.8/sparc-rtems/leon2/lib/librtemscpu.a(libposix_a-psignalchecksignal.o)
 .debug_abbrev  0x00021f3e      0x318 /opt/rtems-4.8/sparc-rtems/leon2/lib/librtemscpu.a(libposix_a-psignalclearsignals.o)
 .debug_abbrev  0x00022256      0x1c9 /opt/rtems-4.8/sparc-rtems/leon2/lib/librtemscpu.a(libposix_a-pspin.o)
 .debug_abbrev  0x0002241f      0x377 /opt/rtems-4.8/sparc-rtems/leon2/lib/librtemscpu.a(libposix_a-pthread.o)
 .debug_abbrev  0x00022796      0x27d /opt/rtems-4.8/sparc-rtems/leon2/lib/librtemscpu.a(libposix_a-pthreadexit.o)
 .debug_abbrev  0x00022a13      0x1c9 /opt/rtems-4.8/sparc-rtems/leon2/lib/librtemscpu.a(libposix_a-ptimer.o)
 .debug_abbrev  0x00022bdc      0x1c9 /opt/rtems-4.8/sparc-rtems/leon2/lib/librtemscpu.a(libposix_a-semaphore.o)
 .debug_abbrev  0x00022da5      0x1cb /opt/rtems-4.8/sparc-rtems/leon2/lib/librtemscpu.a(libposix_a-sigemptyset.o)
 .debug_abbrev  0x00022f70      0x1c9 /opt/rtems-4.8/sparc-rtems/leon2/lib/librtemscpu.a(librtems_a-barrier.o)
 .debug_abbrev  0x00023139      0x1b4 /opt/rtems-4.8/sparc-rtems/leon2/lib/librtemscpu.a(librtems_a-barrierdata.o)
 .debug_abbrev  0x000232ed      0x1c9 /opt/rtems-4.8/sparc-rtems/leon2/lib/librtemscpu.a(librtems_a-dpmem.o)
 .debug_abbrev  0x000234b6      0x12a /opt/rtems-4.8/sparc-rtems/leon2/lib/librtemscpu.a(librtems_a-dpmemdata.o)
 .debug_abbrev  0x000235e0      0x1b8 /opt/rtems-4.8/sparc-rtems/leon2/lib/librtemscpu.a(librtems_a-event.o)
 .debug_abbrev  0x00023798      0x1b4 /opt/rtems-4.8/sparc-rtems/leon2/lib/librtemscpu.a(librtems_a-eventdata.o)
 .debug_abbrev  0x0002394c       0x3d /opt/rtems-4.8/sparc-rtems/leon2/lib/librtemscpu.a(librtems_a-intr.o)
 .debug_abbrev  0x00023989      0x1c9 /opt/rtems-4.8/sparc-rtems/leon2/lib/librtemscpu.a(librtems_a-msg.o)
 .debug_abbrev  0x00023b52      0x1b4 /opt/rtems-4.8/sparc-rtems/leon2/lib/librtemscpu.a(librtems_a-msgdata.o)
 .debug_abbrev  0x00023d06      0x1c9 /opt/rtems-4.8/sparc-rtems/leon2/lib/librtemscpu.a(librtems_a-part.o)
 .debug_abbrev  0x00023ecf      0x12a /opt/rtems-4.8/sparc-rtems/leon2/lib/librtemscpu.a(librtems_a-partdata.o)
 .debug_abbrev  0x00023ff9      0x1c9 /opt/rtems-4.8/sparc-rtems/leon2/lib/librtemscpu.a(librtems_a-ratemon.o)
 .debug_abbrev  0x000241c2      0x1c9 /opt/rtems-4.8/sparc-rtems/leon2/lib/librtemscpu.a(librtems_a-region.o)
 .debug_abbrev  0x0002438b      0x1b4 /opt/rtems-4.8/sparc-rtems/leon2/lib/librtemscpu.a(librtems_a-regiondata.o)
 .debug_abbrev  0x0002453f      0x1c9 /opt/rtems-4.8/sparc-rtems/leon2/lib/librtemscpu.a(librtems_a-rtemstimer.o)
 .debug_abbrev  0x00024708      0x1b4 /opt/rtems-4.8/sparc-rtems/leon2/lib/librtemscpu.a(librtems_a-rtemstimerdata.o)
 .debug_abbrev  0x000248bc      0x1c9 /opt/rtems-4.8/sparc-rtems/leon2/lib/librtemscpu.a(librtems_a-sem.o)
 .debug_abbrev  0x00024a85      0x1b8 /opt/rtems-4.8/sparc-rtems/leon2/lib/librtemscpu.a(librtems_a-signal.o)
 .debug_abbrev  0x00024c3d      0x2f8 /opt/rtems-4.8/sparc-rtems/leon2/lib/librtemscpu.a(librtems_a-tasks.o)
 .debug_abbrev  0x00024f35       0x9a /opt/rtems-4.8/sparc-rtems/leon2/lib/librtemscpu.a(libsapi_a-debug.o)
 .debug_abbrev  0x00024fcf      0x219 /opt/rtems-4.8/sparc-rtems/leon2/lib/librtemscpu.a(libsapi_a-exshutdown.o)
 .debug_abbrev  0x000251e8       0xd4 /opt/rtems-4.8/sparc-rtems/leon2/lib/librtemscpu.a(libscore_a-chain.o)
 .debug_abbrev  0x000252bc       0xd5 /opt/rtems-4.8/sparc-rtems/leon2/lib/librtemscpu.a(libscore_a-chainextract.o)
 .debug_abbrev  0x00025391      0x1a9 /opt/rtems-4.8/sparc-rtems/leon2/lib/librtemscpu.a(libscore_a-heapextend.o)
 .debug_abbrev  0x0002553a      0x21b /opt/rtems-4.8/sparc-rtems/leon2/lib/librtemscpu.a(libscore_a-heapresizeblock.o)
 .debug_abbrev  0x00025755      0x1b8 /opt/rtems-4.8/sparc-rtems/leon2/lib/librtemscpu.a(libscore_a-heapsizeofuserarea.o)
 .debug_abbrev  0x0002590d      0x1da /opt/rtems-4.8/sparc-rtems/leon2/lib/librtemscpu.a(libscore_a-objectcomparenameraw.o)
 .debug_abbrev  0x00025ae7      0x1da /opt/rtems-4.8/sparc-rtems/leon2/lib/librtemscpu.a(libscore_a-objectcomparenamestring.o)
 .debug_abbrev  0x00025cc1      0x1d8 /opt/rtems-4.8/sparc-rtems/leon2/lib/librtemscpu.a(libscore_a-threadloadenv.o)
 .debug_abbrev  0x00025e99      0x1c9 /opt/rtems-4.8/sparc-rtems/leon2/lib/librtemscpu.a(libscore_a-threadqextract.o)
 .debug_abbrev  0x00026062      0x24d /opt/rtems-4.8/sparc-rtems/leon2/lib/librtemscpu.a(libscore_a-threadqextractfifo.o)
 .debug_abbrev  0x000262af      0x262 /opt/rtems-4.8/sparc-rtems/leon2/lib/librtemscpu.a(libscore_a-threadqextractpriority.o)
 .debug_abbrev  0x00026511      0x2b0 /opt/rtems-4.8/sparc-rtems/leon2/lib/librtemscpu.a(libscore_a-threadready.o)
 .debug_abbrev  0x000267c1      0x268 /opt/rtems-4.8/sparc-rtems/leon2/lib/librtemscpu.a(libscore_a-threadresettimeslice.o)
 .debug_abbrev  0x00026a29      0x14b /opt/rtems-4.8/sparc-rtems/leon2/lib/librtemscpu.a(libscore_a-timespectoticks.o)
 .debug_abbrev  0x00026b74      0x1c9 /opt/rtems-4.8/sparc-rtems/leon2/lib/librtemscpu.a(libscore_a-userextaddapiset.o)
 .debug_abbrev  0x00026d3d      0x20a /opt/rtems-4.8/sparc-rtems/leon2/lib/librtemscpu.a(deviceio.o)
 .debug_abbrev  0x00026f47      0x11c /opt/rtems-4.8/sparc-rtems/leon2/lib/librtemscpu.a(imfs_config.o)
 .debug_abbrev  0x00027063      0x20a /opt/rtems-4.8/sparc-rtems/leon2/lib/librtemscpu.a(imfs_creat.o)
 .debug_abbrev  0x0002726d      0x1b6 /opt/rtems-4.8/sparc-rtems/leon2/lib/librtemscpu.a(imfs_fchmod.o)
 .debug_abbrev  0x00027423      0x158 /opt/rtems-4.8/sparc-rtems/leon2/lib/librtemscpu.a(libcsupport_a-assocnamebylocal.o)
 .debug_abbrev  0x0002757b      0x158 /opt/rtems-4.8/sparc-rtems/leon2/lib/librtemscpu.a(libcsupport_a-assocptrbylocal.o)
 .debug_abbrev  0x000276d3      0x158 /opt/rtems-4.8/sparc-rtems/leon2/lib/librtemscpu.a(libcsupport_a-assocremotebylocal.o)
 .debug_abbrev  0x0002782b      0x186 /opt/rtems-4.8/sparc-rtems/leon2/lib/librtemscpu.a(libcsupport_a-ftruncate.o)
 .debug_abbrev  0x000279b1      0x313 /opt/rtems-4.8/sparc-rtems/leon2/lib/librtemscpu.a(libnetworking_a-igmp.o)
 .debug_abbrev  0x00027cc4      0x1fc /opt/rtems-4.8/sparc-rtems/leon2/lib/librtemscpu.a(libnetworking_a-raw_cb.o)
 .debug_abbrev  0x00027ec0      0x22c /opt/rtems-4.8/sparc-rtems/leon2/lib/librtemscpu.a(libposix_a-keyrundestructors.o)
 .debug_abbrev  0x000280ec      0x1d6 /opt/rtems-4.8/sparc-rtems/leon2/lib/librtemscpu.a(libposix_a-psignalclearprocesssignals.o)
 .debug_abbrev  0x000282c2      0x2a6 /opt/rtems-4.8/sparc-rtems/leon2/lib/librtemscpu.a(librtems_a-taskmode.o)
 .debug_abbrev  0x00028568       0xd1 /opt/rtems-4.8/sparc-rtems/leon2/lib/librtemscpu.a(libsapi_a-ioclose.o)
 .debug_abbrev  0x00028639       0xd1 /opt/rtems-4.8/sparc-rtems/leon2/lib/librtemscpu.a(libsapi_a-iocontrol.o)
 .debug_abbrev  0x0002870a       0xd1 /opt/rtems-4.8/sparc-rtems/leon2/lib/librtemscpu.a(libsapi_a-ioopen.o)
 .debug_abbrev  0x000287db       0xd1 /opt/rtems-4.8/sparc-rtems/leon2/lib/librtemscpu.a(libsapi_a-ioread.o)
 .debug_abbrev  0x000288ac       0xd1 /opt/rtems-4.8/sparc-rtems/leon2/lib/librtemscpu.a(libsapi_a-iowrite.o)
 .debug_abbrev  0x0002897d      0x1eb /opt/rtems-4.8/sparc-rtems/leon2/lib/librtemscpu.a(libscore_a-threadevaluatemode.o)
 .debug_abbrev  0x00028b68      0x239 /opt/rtems-4.8/sparc-rtems/leon2/lib/librtemscpu.a(libscore_a-threadhandler.o)
 .debug_abbrev  0x00028da1      0x149 /opt/rtems-4.8/sparc-rtems/leon2/lib/librtemscpu.a(libcsupport_a-assocnamebad.o)
 .debug_abbrev  0x00028eea       0x48 /opt/rtems-4.8-1.1.3/bin/../lib/gcc/sparc-rtems/4.2.4/../../../../sparc-rtems/lib/soft/libc.a(lib_a-abort.o)
 .debug_abbrev  0x00028f32       0x81 /opt/rtems-4.8-1.1.3/bin/../lib/gcc/sparc-rtems/4.2.4/../../../../sparc-rtems/lib/soft/libc.a(lib_a-atexit.o)
 .debug_abbrev  0x00028fb3       0x85 /opt/rtems-4.8-1.1.3/bin/../lib/gcc/sparc-rtems/4.2.4/../../../../sparc-rtems/lib/soft/libc.a(lib_a-bcmp.o)
 .debug_abbrev  0x00029038       0x6a /opt/rtems-4.8-1.1.3/bin/../lib/gcc/sparc-rtems/4.2.4/../../../../sparc-rtems/lib/soft/libc.a(lib_a-ctype_.o)
 .debug_abbrev  0x000290a2      0x168 /opt/rtems-4.8-1.1.3/bin/../lib/gcc/sparc-rtems/4.2.4/../../../../sparc-rtems/lib/soft/libc.a(lib_a-errno.o)
 .debug_abbrev  0x0002920a      0x177 /opt/rtems-4.8-1.1.3/bin/../lib/gcc/sparc-rtems/4.2.4/../../../../sparc-rtems/lib/soft/libc.a(lib_a-exit.o)
 .debug_abbrev  0x00029381      0x1bf /opt/rtems-4.8-1.1.3/bin/../lib/gcc/sparc-rtems/4.2.4/../../../../sparc-rtems/lib/soft/libc.a(lib_a-fclose.o)
 .debug_abbrev  0x00029540      0x19e /opt/rtems-4.8-1.1.3/bin/../lib/gcc/sparc-rtems/4.2.4/../../../../sparc-rtems/lib/soft/libc.a(lib_a-fflush.o)
 .debug_abbrev  0x000296de      0x186 /opt/rtems-4.8-1.1.3/bin/../lib/gcc/sparc-rtems/4.2.4/../../../../sparc-rtems/lib/soft/libc.a(lib_a-fileno.o)
 .debug_abbrev  0x00029864      0x26c /opt/rtems-4.8-1.1.3/bin/../lib/gcc/sparc-rtems/4.2.4/../../../../sparc-rtems/lib/soft/libc.a(lib_a-findfp.o)
 .debug_abbrev  0x00029ad0      0x1a1 /opt/rtems-4.8-1.1.3/bin/../lib/gcc/sparc-rtems/4.2.4/../../../../sparc-rtems/lib/soft/libc.a(lib_a-fprintf.o)
 .debug_abbrev  0x00029c71      0x1f7 /opt/rtems-4.8-1.1.3/bin/../lib/gcc/sparc-rtems/4.2.4/../../../../sparc-rtems/lib/soft/libc.a(lib_a-fwalk.o)
 .debug_abbrev  0x00029e68       0xa5 /opt/rtems-4.8-1.1.3/bin/../lib/gcc/sparc-rtems/4.2.4/../../../../sparc-rtems/lib/soft/libc.a(lib_a-gmtime_r.o)
 .debug_abbrev  0x00029f0d      0x160 /opt/rtems-4.8-1.1.3/bin/../lib/gcc/sparc-rtems/4.2.4/../../../../sparc-rtems/lib/soft/libc.a(lib_a-impure.o)
 .debug_abbrev  0x0002a06d       0x94 /opt/rtems-4.8-1.1.3/bin/../lib/gcc/sparc-rtems/4.2.4/../../../../sparc-rtems/lib/soft/libc.a(lib_a-memcmp.o)
 .debug_abbrev  0x0002a101       0x99 /opt/rtems-4.8-1.1.3/bin/../lib/gcc/sparc-rtems/4.2.4/../../../../sparc-rtems/lib/soft/libc.a(lib_a-memcpy.o)
 .debug_abbrev  0x0002a19a       0xb0 /opt/rtems-4.8-1.1.3/bin/../lib/gcc/sparc-rtems/4.2.4/../../../../sparc-rtems/lib/soft/libc.a(lib_a-memset.o)
 .debug_abbrev  0x0002a24a      0x152 /opt/rtems-4.8-1.1.3/bin/../lib/gcc/sparc-rtems/4.2.4/../../../../sparc-rtems/lib/soft/libc.a(lib_a-mktm_r.o)
 .debug_abbrev  0x0002a39c      0x1b2 /opt/rtems-4.8-1.1.3/bin/../lib/gcc/sparc-rtems/4.2.4/../../../../sparc-rtems/lib/soft/libc.a(lib_a-printf.o)
 .debug_abbrev  0x0002a54e      0x188 /opt/rtems-4.8-1.1.3/bin/../lib/gcc/sparc-rtems/4.2.4/../../../../sparc-rtems/lib/soft/libc.a(lib_a-putchar.o)
 .debug_abbrev  0x0002a6d6      0x1c4 /opt/rtems-4.8-1.1.3/bin/../lib/gcc/sparc-rtems/4.2.4/../../../../sparc-rtems/lib/soft/libc.a(lib_a-puts.o)
 .debug_abbrev  0x0002a89a      0x1a1 /opt/rtems-4.8-1.1.3/bin/../lib/gcc/sparc-rtems/4.2.4/../../../../sparc-rtems/lib/soft/libc.a(lib_a-raise.o)
 .debug_abbrev  0x0002aa3b      0x1e1 /opt/rtems-4.8-1.1.3/bin/../lib/gcc/sparc-rtems/4.2.4/../../../../sparc-rtems/lib/soft/libc.a(lib_a-reent.o)
 .debug_abbrev  0x0002ac1c      0x1c3 /opt/rtems-4.8-1.1.3/bin/../lib/gcc/sparc-rtems/4.2.4/../../../../sparc-rtems/lib/soft/libc.a(lib_a-snprintf.o)
 .debug_abbrev  0x0002addf      0x1b2 /opt/rtems-4.8-1.1.3/bin/../lib/gcc/sparc-rtems/4.2.4/../../../../sparc-rtems/lib/soft/libc.a(lib_a-sprintf.o)
 .debug_abbrev  0x0002af91      0x1db /opt/rtems-4.8-1.1.3/bin/../lib/gcc/sparc-rtems/4.2.4/../../../../sparc-rtems/lib/soft/libc.a(lib_a-stdio.o)
 .debug_abbrev  0x0002b16c       0xa7 /opt/rtems-4.8-1.1.3/bin/../lib/gcc/sparc-rtems/4.2.4/../../../../sparc-rtems/lib/soft/libc.a(lib_a-strchr.o)
 .debug_abbrev  0x0002b213       0x78 /opt/rtems-4.8-1.1.3/bin/../lib/gcc/sparc-rtems/4.2.4/../../../../sparc-rtems/lib/soft/libc.a(lib_a-strcmp.o)
 .debug_abbrev  0x0002b28b       0xb6 /opt/rtems-4.8-1.1.3/bin/../lib/gcc/sparc-rtems/4.2.4/../../../../sparc-rtems/lib/soft/libc.a(lib_a-strcpy.o)
 .debug_abbrev  0x0002b341      0x179 /opt/rtems-4.8-1.1.3/bin/../lib/gcc/sparc-rtems/4.2.4/../../../../sparc-rtems/lib/soft/libc.a(lib_a-strdup.o)
 .debug_abbrev  0x0002b4ba      0x193 /opt/rtems-4.8-1.1.3/bin/../lib/gcc/sparc-rtems/4.2.4/../../../../sparc-rtems/lib/soft/libc.a(lib_a-strdup_r.o)
 .debug_abbrev  0x0002b64d       0x71 /opt/rtems-4.8-1.1.3/bin/../lib/gcc/sparc-rtems/4.2.4/../../../../sparc-rtems/lib/soft/libc.a(lib_a-strerror.o)
 .debug_abbrev  0x0002b6be       0xa3 /opt/rtems-4.8-1.1.3/bin/../lib/gcc/sparc-rtems/4.2.4/../../../../sparc-rtems/lib/soft/libc.a(lib_a-strlcpy.o)
 .debug_abbrev  0x0002b761       0x92 /opt/rtems-4.8-1.1.3/bin/../lib/gcc/sparc-rtems/4.2.4/../../../../sparc-rtems/lib/soft/libc.a(lib_a-strlen.o)
 .debug_abbrev  0x0002b7f3       0x85 /opt/rtems-4.8-1.1.3/bin/../lib/gcc/sparc-rtems/4.2.4/../../../../sparc-rtems/lib/soft/libc.a(lib_a-strncmp.o)
 .debug_abbrev  0x0002b878       0x96 /opt/rtems-4.8-1.1.3/bin/../lib/gcc/sparc-rtems/4.2.4/../../../../sparc-rtems/lib/soft/libc.a(lib_a-strncpy.o)
 .debug_abbrev  0x0002b90e       0x57 /opt/rtems-4.8-1.1.3/bin/../lib/gcc/sparc-rtems/4.2.4/../../../../sparc-rtems/lib/soft/libc.a(lib_a-tzlock.o)
 .debug_abbrev  0x0002b965       0x5f /opt/rtems-4.8-1.1.3/bin/../lib/gcc/sparc-rtems/4.2.4/../../../../sparc-rtems/lib/soft/libc.a(lib_a-tzvars.o)
 .debug_abbrev  0x0002b9c4       0x5b /opt/rtems-4.8-1.1.3/bin/../lib/gcc/sparc-rtems/4.2.4/../../../../sparc-rtems/lib/soft/libc.a(lib_a-u_strerr.o)
 .debug_abbrev  0x0002ba1f      0x3b0 /opt/rtems-4.8-1.1.3/bin/../lib/gcc/sparc-rtems/4.2.4/../../../../sparc-rtems/lib/soft/libc.a(lib_a-vfprintf.o)
 .debug_abbrev  0x0002bdcf      0x182 /opt/rtems-4.8-1.1.3/bin/../lib/gcc/sparc-rtems/4.2.4/../../../../sparc-rtems/lib/soft/libc.a(lib_a-vprintf.o)
 .debug_abbrev  0x0002bf51      0x1bf /opt/rtems-4.8-1.1.3/bin/../lib/gcc/sparc-rtems/4.2.4/../../../../sparc-rtems/lib/soft/libc.a(lib_a-wcrtomb.o)
 .debug_abbrev  0x0002c110      0x1e2 /opt/rtems-4.8-1.1.3/bin/../lib/gcc/sparc-rtems/4.2.4/../../../../sparc-rtems/lib/soft/libc.a(lib_a-wcsrtombs.o)
 .debug_abbrev  0x0002c2f2      0x1d0 /opt/rtems-4.8-1.1.3/bin/../lib/gcc/sparc-rtems/4.2.4/../../../../sparc-rtems/lib/soft/libc.a(lib_a-wctomb_r.o)
 .debug_abbrev  0x0002c4c2      0x179 /opt/rtems-4.8-1.1.3/bin/../lib/gcc/sparc-rtems/4.2.4/../../../../sparc-rtems/lib/soft/libc.a(lib_a-wsetup.o)
 .debug_abbrev  0x0002c63b      0x1bc /opt/rtems-4.8-1.1.3/bin/../lib/gcc/sparc-rtems/4.2.4/../../../../sparc-rtems/lib/soft/libc.a(lib_a-__atexit.o)
 .debug_abbrev  0x0002c7f7      0x1cd /opt/rtems-4.8-1.1.3/bin/../lib/gcc/sparc-rtems/4.2.4/../../../../sparc-rtems/lib/soft/libc.a(lib_a-__call_atexit.o)
 .debug_abbrev  0x0002c9c4      0x23b /opt/rtems-4.8-1.1.3/bin/../lib/gcc/sparc-rtems/4.2.4/../../../../sparc-rtems/lib/soft/libc.a(lib_a-dtoa.o)
 .debug_abbrev  0x0002cbff      0x1cc /opt/rtems-4.8-1.1.3/bin/../lib/gcc/sparc-rtems/4.2.4/../../../../sparc-rtems/lib/soft/libc.a(lib_a-fvwrite.o)
 .debug_abbrev  0x0002cdcb       0xae /opt/rtems-4.8-1.1.3/bin/../lib/gcc/sparc-rtems/4.2.4/../../../../sparc-rtems/lib/soft/libc.a(lib_a-gettzinfo.o)
 .debug_abbrev  0x0002ce79      0x1f0 /opt/rtems-4.8-1.1.3/bin/../lib/gcc/sparc-rtems/4.2.4/../../../../sparc-rtems/lib/soft/libc.a(lib_a-locale.o)
 .debug_abbrev  0x0002d069      0x1a4 /opt/rtems-4.8-1.1.3/bin/../lib/gcc/sparc-rtems/4.2.4/../../../../sparc-rtems/lib/soft/libc.a(lib_a-makebuf.o)
 .debug_abbrev  0x0002d20d       0xbe /opt/rtems-4.8-1.1.3/bin/../lib/gcc/sparc-rtems/4.2.4/../../../../sparc-rtems/lib/soft/libc.a(lib_a-memchr.o)
 .debug_abbrev  0x0002d2cb       0xa2 /opt/rtems-4.8-1.1.3/bin/../lib/gcc/sparc-rtems/4.2.4/../../../../sparc-rtems/lib/soft/libc.a(lib_a-memmove.o)
 .debug_abbrev  0x0002d36d      0x2af /opt/rtems-4.8-1.1.3/bin/../lib/gcc/sparc-rtems/4.2.4/../../../../sparc-rtems/lib/soft/libc.a(lib_a-mprec.o)
 .debug_abbrev  0x0002d61c      0x197 /opt/rtems-4.8-1.1.3/bin/../lib/gcc/sparc-rtems/4.2.4/../../../../sparc-rtems/lib/soft/libc.a(lib_a-putc.o)
 .debug_abbrev  0x0002d7b3       0x82 /opt/rtems-4.8-1.1.3/bin/../lib/gcc/sparc-rtems/4.2.4/../../../../sparc-rtems/lib/soft/libc.a(lib_a-s_isinfd.o)
 .debug_abbrev  0x0002d835       0x82 /opt/rtems-4.8-1.1.3/bin/../lib/gcc/sparc-rtems/4.2.4/../../../../sparc-rtems/lib/soft/libc.a(lib_a-s_isnand.o)
 .debug_abbrev  0x0002d8b7      0x1b0 /opt/rtems-4.8-1.1.3/bin/../lib/gcc/sparc-rtems/4.2.4/../../../../sparc-rtems/lib/soft/libc.a(lib_a-wbuf.o)
 .debug_abbrev  0x0002da67      0x181 /opt/rtems-4.8-1.1.3/bin/../lib/gcc/sparc-rtems/4.2.4/soft/libgcc.a(_udivdi3.o)
 .debug_abbrev  0x0002dbe8      0x181 /opt/rtems-4.8-1.1.3/bin/../lib/gcc/sparc-rtems/4.2.4/soft/libgcc.a(_umoddi3.o)
 .debug_abbrev  0x0002dd69      0x1be /opt/rtems-4.8-1.1.3/bin/../lib/gcc/sparc-rtems/4.2.4/soft/libgcc.a(_addsub_df.o)
 .debug_abbrev  0x0002df27      0x1c2 /opt/rtems-4.8-1.1.3/bin/../lib/gcc/sparc-rtems/4.2.4/soft/libgcc.a(_div_df.o)
 .debug_abbrev  0x0002e0e9      0x130 /opt/rtems-4.8-1.1.3/bin/../lib/gcc/sparc-rtems/4.2.4/soft/libgcc.a(_eq_df.o)
 .debug_abbrev  0x0002e219      0x130 /opt/rtems-4.8-1.1.3/bin/../lib/gcc/sparc-rtems/4.2.4/soft/libgcc.a(_ne_df.o)
 .debug_abbrev  0x0002e349      0x130 /opt/rtems-4.8-1.1.3/bin/../lib/gcc/sparc-rtems/4.2.4/soft/libgcc.a(_gt_df.o)
 .debug_abbrev  0x0002e479      0x130 /opt/rtems-4.8-1.1.3/bin/../lib/gcc/sparc-rtems/4.2.4/soft/libgcc.a(_ge_df.o)
 .debug_abbrev  0x0002e5a9      0x130 /opt/rtems-4.8-1.1.3/bin/../lib/gcc/sparc-rtems/4.2.4/soft/libgcc.a(_lt_df.o)
 .debug_abbrev  0x0002e6d9      0x146 /opt/rtems-4.8-1.1.3/bin/../lib/gcc/sparc-rtems/4.2.4/soft/libgcc.a(_si_to_df.o)
 .debug_abbrev  0x0002e81f      0x155 /opt/rtems-4.8-1.1.3/bin/../lib/gcc/sparc-rtems/4.2.4/soft/libgcc.a(_df_to_si.o)
 .debug_abbrev  0x0002e974      0x14a /opt/rtems-4.8-1.1.3/bin/../lib/gcc/sparc-rtems/4.2.4/soft/libgcc.a(_fpcmp_parts_df.o)
 .debug_abbrev  0x0002eabe      0x3ca /opt/rtems-4.8/sparc-rtems/leon2/lib/librtemsbsp.a(cache.rel)
 .debug_abbrev  0x0002ee88       0x5b /opt/rtems-4.8/sparc-rtems/leon2/lib/librtemsbsp.a(libsupport_a-version.o)
 .debug_abbrev  0x0002eee3      0x1f8 /opt/rtems-4.8/sparc-rtems/leon2/lib/librtemscpu.a(libcsupport_a-fstat.o)
 .debug_abbrev  0x0002f0db      0x1b3 /opt/rtems-4.8/sparc-rtems/leon2/lib/librtemscpu.a(libcsupport_a-getpid.o)
 .debug_abbrev  0x0002f28e       0xa3 /opt/rtems-4.8/sparc-rtems/leon2/lib/librtemscpu.a(libcsupport_a-isatty.o)
 .debug_abbrev  0x0002f331      0x207 /opt/rtems-4.8/sparc-rtems/leon2/lib/librtemscpu.a(libcsupport_a-lseek.o)
 .debug_abbrev  0x0002f538      0x1f8 /opt/rtems-4.8/sparc-rtems/leon2/lib/librtemscpu.a(libcsupport_a-read.o)
 .debug_abbrev  0x0002f730      0x1c1 /opt/rtems-4.8/sparc-rtems/leon2/lib/librtemscpu.a(libcsupport_a-write_r.o)
 .debug_abbrev  0x0002f8f1      0x1da /opt/rtems-4.8/sparc-rtems/leon2/lib/librtemscpu.a(libposix_a-kill.o)
 .debug_abbrev  0x0002facb      0x2d1 /opt/rtems-4.8/sparc-rtems/leon2/lib/librtemscpu.a(libposix_a-killinfo.o)
 .debug_abbrev  0x0002fd9c      0x1d6 /opt/rtems-4.8/sparc-rtems/leon2/lib/librtemscpu.a(libposix_a-psignalsetprocesssignals.o)
 .debug_abbrev  0x0002ff72      0x25d /opt/rtems-4.8/sparc-rtems/leon2/lib/librtemscpu.a(libposix_a-psignalunblockthread.o)
 .debug_abbrev  0x000301cf      0x287 /opt/rtems-4.8/sparc-rtems/leon2/lib/librtemscpu.a(libposix_a-pthreadkill.o)
 .debug_abbrev  0x00030456      0x1ba /opt/rtems-4.8/sparc-rtems/leon2/lib/librtemscpu.a(libposix_a-pthreadself.o)
 .debug_abbrev  0x00030610      0x111 /opt/rtems-4.8/sparc-rtems/leon2/lib/librtemscpu.a(libposix_a-types.o)
 .debug_abbrev  0x00030721      0x177 /opt/rtems-4.8/sparc-rtems/leon2/lib/librtemscpu.a(libcsupport_a-write.o)

.debug_aranges  0x00000000     0x3080
 .debug_aranges
                0x00000000       0x20 /opt/rtems-4.8/sparc-rtems/leon2/lib/start.o
 .debug_aranges
                0x00000020       0x20 /home/aitor/workspace/rasta-sw/osal-repo/trunk/samples/misc/soclient.o
 .debug_aranges
                0x00000040       0x20 libosal_rtems_rastaleon2.a(osapi.o)
 .debug_aranges
                0x00000060       0x20 libosal_rtems_rastaleon2.a(osmut.o)
 .debug_aranges
                0x00000080       0x20 libosal_rtems_rastaleon2.a(ostask.o)
 .debug_aranges
                0x000000a0       0x20 libosal_rtems_rastaleon2.a(rtems-config.o)
 .debug_aranges
                0x000000c0       0x20 libosal_rtems_rastaleon2.a(osstats.o)
 .debug_aranges
                0x000000e0       0x20 /opt/rtems-4.8-1.1.3/bin/../lib/gcc/sparc-rtems/4.2.4/soft/libgcc.a(_mulsi3.o)
 .debug_aranges
                0x00000100       0x20 /opt/rtems-4.8-1.1.3/bin/../lib/gcc/sparc-rtems/4.2.4/soft/libgcc.a(_divsi3.o)
 .debug_aranges
                0x00000120       0x20 /opt/rtems-4.8-1.1.3/bin/../lib/gcc/sparc-rtems/4.2.4/soft/libgcc.a(_modsi3.o)
 .debug_aranges
                0x00000140       0x20 /opt/rtems-4.8-1.1.3/bin/../lib/gcc/sparc-rtems/4.2.4/soft/libgcc.a(_mul_df.o)
 .debug_aranges
                0x00000160       0x20 /opt/rtems-4.8-1.1.3/bin/../lib/gcc/sparc-rtems/4.2.4/soft/libgcc.a(_usi_to_df.o)
 .debug_aranges
                0x00000180       0x20 /opt/rtems-4.8-1.1.3/bin/../lib/gcc/sparc-rtems/4.2.4/soft/libgcc.a(_muldi3.o)
 .debug_aranges
                0x000001a0       0x20 /opt/rtems-4.8-1.1.3/bin/../lib/gcc/sparc-rtems/4.2.4/soft/libgcc.a(_clzsi2.o)
 .debug_aranges
                0x000001c0       0x20 /opt/rtems-4.8-1.1.3/bin/../lib/gcc/sparc-rtems/4.2.4/soft/libgcc.a(_pack_df.o)
 .debug_aranges
                0x000001e0       0x20 /opt/rtems-4.8-1.1.3/bin/../lib/gcc/sparc-rtems/4.2.4/soft/libgcc.a(_unpack_df.o)
 .debug_aranges
                0x00000200       0x40 /opt/rtems-4.8/sparc-rtems/leon2/lib/librtemsbsp.a(amba.rel)
 .debug_aranges
                0x00000240       0x20 /opt/rtems-4.8/sparc-rtems/leon2/lib/librtemsbsp.a(clock.rel)
 .debug_aranges
                0x00000260       0x40 /opt/rtems-4.8/sparc-rtems/leon2/lib/librtemsbsp.a(console.rel)
 .debug_aranges
                0x000002a0       0x20 /opt/rtems-4.8/sparc-rtems/leon2/lib/librtemsbsp.a(leon_smc91111.rel)
 .debug_aranges
                0x000002c0       0x20 /opt/rtems-4.8/sparc-rtems/leon2/lib/librtemsbsp.a(libnetchip_a-smc91111.o)
 .debug_aranges
                0x000002e0       0x20 /opt/rtems-4.8/sparc-rtems/leon2/lib/librtemsbsp.a(reg_win.rel)
 .debug_aranges
                0x00000300      0x160 /opt/rtems-4.8/sparc-rtems/leon2/lib/librtemsbsp.a(startup.rel)
 .debug_aranges
                0x00000460       0x20 /opt/rtems-4.8/sparc-rtems/leon2/lib/librtemsbsp.a(syscall.rel)
 .debug_aranges
                0x00000480       0x20 /opt/rtems-4.8/sparc-rtems/leon2/lib/librtemscpu.a(check.o)
 .debug_aranges
                0x000004a0       0x20 /opt/rtems-4.8/sparc-rtems/leon2/lib/librtemscpu.a(ioman.o)
 .debug_aranges
                0x000004c0       0x20 /opt/rtems-4.8/sparc-rtems/leon2/lib/librtemscpu.a(libc_a-inet_addr.o)
 .debug_aranges
                0x000004e0       0x20 /opt/rtems-4.8/sparc-rtems/leon2/lib/librtemscpu.a(libc_a-inet_pton.o)
 .debug_aranges
                0x00000500       0x20 /opt/rtems-4.8/sparc-rtems/leon2/lib/librtemscpu.a(libc_a-recv.o)
 .debug_aranges
                0x00000520       0x20 /opt/rtems-4.8/sparc-rtems/leon2/lib/librtemscpu.a(libc_a-send.o)
 .debug_aranges
                0x00000540       0x20 /opt/rtems-4.8/sparc-rtems/leon2/lib/librtemscpu.a(libcsupport_a-__assert.o)
 .debug_aranges
                0x00000560       0x20 /opt/rtems-4.8/sparc-rtems/leon2/lib/librtemscpu.a(libcsupport_a-close.o)
 .debug_aranges
                0x00000580       0x20 /opt/rtems-4.8/sparc-rtems/leon2/lib/librtemscpu.a(libcsupport_a-eval.o)
 .debug_aranges
                0x000005a0       0x20 /opt/rtems-4.8/sparc-rtems/leon2/lib/librtemscpu.a(libcsupport_a-libio.o)
 .debug_aranges
                0x000005c0       0x20 /opt/rtems-4.8/sparc-rtems/leon2/lib/librtemscpu.a(libcsupport_a-libio_init.o)
 .debug_aranges
                0x000005e0       0x20 /opt/rtems-4.8/sparc-rtems/leon2/lib/librtemscpu.a(libcsupport_a-malloc.o)
 .debug_aranges
                0x00000600       0x20 /opt/rtems-4.8/sparc-rtems/leon2/lib/librtemscpu.a(libcsupport_a-mkdir.o)
 .debug_aranges
                0x00000620       0x20 /opt/rtems-4.8/sparc-rtems/leon2/lib/librtemscpu.a(libcsupport_a-mknod.o)
 .debug_aranges
                0x00000640       0x20 /opt/rtems-4.8/sparc-rtems/leon2/lib/librtemscpu.a(libcsupport_a-newlibc.o)
 .debug_aranges
                0x00000660       0x20 /opt/rtems-4.8/sparc-rtems/leon2/lib/librtemscpu.a(libcsupport_a-open_dev_console.o)
 .debug_aranges
                0x00000680       0x20 /opt/rtems-4.8/sparc-rtems/leon2/lib/librtemscpu.a(libcsupport_a-printk.o)
 .debug_aranges
                0x000006a0       0x20 /opt/rtems-4.8/sparc-rtems/leon2/lib/librtemscpu.a(libcsupport_a-printk_plugin.o)
 .debug_aranges
                0x000006c0       0x20 /opt/rtems-4.8/sparc-rtems/leon2/lib/librtemscpu.a(libcsupport_a-termios.o)
 .debug_aranges
                0x000006e0       0x20 /opt/rtems-4.8/sparc-rtems/leon2/lib/librtemscpu.a(libcsupport_a-termiosinitialize.o)
 .debug_aranges
                0x00000700       0x20 /opt/rtems-4.8/sparc-rtems/leon2/lib/librtemscpu.a(libnetworking_a-if.o)
 .debug_aranges
                0x00000720       0x20 /opt/rtems-4.8/sparc-rtems/leon2/lib/librtemscpu.a(libnetworking_a-if_ethersubr.o)
 .debug_aranges
                0x00000740       0x20 /opt/rtems-4.8/sparc-rtems/leon2/lib/librtemscpu.a(libnetworking_a-if_loop.o)
 .debug_aranges
                0x00000760       0x20 /opt/rtems-4.8/sparc-rtems/leon2/lib/librtemscpu.a(libnetworking_a-ip_input.o)
 .debug_aranges
                0x00000780       0x20 /opt/rtems-4.8/sparc-rtems/leon2/lib/librtemscpu.a(libnetworking_a-ip_mroute.o)
 .debug_aranges
                0x000007a0       0x20 /opt/rtems-4.8/sparc-rtems/leon2/lib/librtemscpu.a(libnetworking_a-ip_output.o)
 .debug_aranges
                0x000007c0       0x20 /opt/rtems-4.8/sparc-rtems/leon2/lib/librtemscpu.a(libnetworking_a-kern_sysctl.o)
 .debug_aranges
                0x000007e0       0x20 /opt/rtems-4.8/sparc-rtems/leon2/lib/librtemscpu.a(libnetworking_a-radix.o)
 .debug_aranges
                0x00000800       0x20 /opt/rtems-4.8/sparc-rtems/leon2/lib/librtemscpu.a(libnetworking_a-raw_ip.o)
 .debug_aranges
                0x00000820       0x20 /opt/rtems-4.8/sparc-rtems/leon2/lib/librtemscpu.a(libnetworking_a-route.o)
 .debug_aranges
                0x00000840       0x20 /opt/rtems-4.8/sparc-rtems/leon2/lib/librtemscpu.a(libnetworking_a-rtems_glue.o)
 .debug_aranges
                0x00000860       0x20 /opt/rtems-4.8/sparc-rtems/leon2/lib/librtemscpu.a(libnetworking_a-rtems_malloc_mbuf.o)
 .debug_aranges
                0x00000880       0x20 /opt/rtems-4.8/sparc-rtems/leon2/lib/librtemscpu.a(libnetworking_a-rtems_showifstat.o)
 .debug_aranges
                0x000008a0       0x20 /opt/rtems-4.8/sparc-rtems/leon2/lib/librtemscpu.a(libnetworking_a-rtems_showroute.o)
 .debug_aranges
                0x000008c0       0x20 /opt/rtems-4.8/sparc-rtems/leon2/lib/librtemscpu.a(libnetworking_a-rtems_syscall.o)
 .debug_aranges
                0x000008e0       0x20 /opt/rtems-4.8/sparc-rtems/leon2/lib/librtemscpu.a(libnetworking_a-rtsock.o)
 .debug_aranges
                0x00000900       0x20 /opt/rtems-4.8/sparc-rtems/leon2/lib/librtemscpu.a(libnetworking_a-sghostname.o)
 .debug_aranges
                0x00000920       0x20 /opt/rtems-4.8/sparc-rtems/leon2/lib/librtemscpu.a(libnetworking_a-uipc_domain.o)
 .debug_aranges
                0x00000940       0x20 /opt/rtems-4.8/sparc-rtems/leon2/lib/librtemscpu.a(libnetworking_a-uipc_mbuf.o)
 .debug_aranges
                0x00000960       0x20 /opt/rtems-4.8/sparc-rtems/leon2/lib/librtemscpu.a(libnetworking_a-uipc_socket.o)
 .debug_aranges
                0x00000980       0x20 /opt/rtems-4.8/sparc-rtems/leon2/lib/librtemscpu.a(libnetworking_a-uipc_socket2.o)
 .debug_aranges
                0x000009a0       0x20 /opt/rtems-4.8/sparc-rtems/leon2/lib/librtemscpu.a(librtems_a-clockget.o)
 .debug_aranges
                0x000009c0       0x20 /opt/rtems-4.8/sparc-rtems/leon2/lib/librtemscpu.a(librtems_a-clocksetnsecshandler.o)
 .debug_aranges
                0x000009e0       0x20 /opt/rtems-4.8/sparc-rtems/leon2/lib/librtemscpu.a(librtems_a-clocktick.o)
 .debug_aranges
                0x00000a00       0x20 /opt/rtems-4.8/sparc-rtems/leon2/lib/librtemscpu.a(librtems_a-eventreceive.o)
 .debug_aranges
                0x00000a20       0x20 /opt/rtems-4.8/sparc-rtems/leon2/lib/librtemscpu.a(librtems_a-eventseize.o)
 .debug_aranges
                0x00000a40       0x20 /opt/rtems-4.8/sparc-rtems/leon2/lib/librtemscpu.a(librtems_a-eventsend.o)
 .debug_aranges
                0x00000a60       0x20 /opt/rtems-4.8/sparc-rtems/leon2/lib/librtemscpu.a(librtems_a-eventsurrender.o)
 .debug_aranges
                0x00000a80       0x20 /opt/rtems-4.8/sparc-rtems/leon2/lib/librtemscpu.a(librtems_a-eventtimeout.o)
 .debug_aranges
                0x00000aa0       0x20 /opt/rtems-4.8/sparc-rtems/leon2/lib/librtemscpu.a(librtems_a-intrcatch.o)
 .debug_aranges
                0x00000ac0       0x20 /opt/rtems-4.8/sparc-rtems/leon2/lib/librtemscpu.a(librtems_a-ratemoncreate.o)
 .debug_aranges
                0x00000ae0       0x20 /opt/rtems-4.8/sparc-rtems/leon2/lib/librtemscpu.a(librtems_a-ratemondelete.o)
 .debug_aranges
                0x00000b00       0x20 /opt/rtems-4.8/sparc-rtems/leon2/lib/librtemscpu.a(librtems_a-ratemonperiod.o)
 .debug_aranges
                0x00000b20       0x20 /opt/rtems-4.8/sparc-rtems/leon2/lib/librtemscpu.a(librtems_a-ratemontimeout.o)
 .debug_aranges
                0x00000b40       0x20 /opt/rtems-4.8/sparc-rtems/leon2/lib/librtemscpu.a(librtems_a-rtemsobjectgetname.o)
 .debug_aranges
                0x00000b60       0x20 /opt/rtems-4.8/sparc-rtems/leon2/lib/librtemscpu.a(librtems_a-semcreate.o)
 .debug_aranges
                0x00000b80       0x20 /opt/rtems-4.8/sparc-rtems/leon2/lib/librtemscpu.a(librtems_a-semdelete.o)
 .debug_aranges
                0x00000ba0       0x20 /opt/rtems-4.8/sparc-rtems/leon2/lib/librtemscpu.a(librtems_a-semflush.o)
 .debug_aranges
                0x00000bc0       0x20 /opt/rtems-4.8/sparc-rtems/leon2/lib/librtemscpu.a(librtems_a-semobtain.o)
 .debug_aranges
                0x00000be0       0x20 /opt/rtems-4.8/sparc-rtems/leon2/lib/librtemscpu.a(librtems_a-semrelease.o)
 .debug_aranges
                0x00000c00       0x20 /opt/rtems-4.8/sparc-rtems/leon2/lib/librtemscpu.a(librtems_a-semtranslatereturncode.o)
 .debug_aranges
                0x00000c20       0x20 /opt/rtems-4.8/sparc-rtems/leon2/lib/librtemscpu.a(librtems_a-taskcreate.o)
 .debug_aranges
                0x00000c40       0x20 /opt/rtems-4.8/sparc-rtems/leon2/lib/librtemscpu.a(librtems_a-taskdelete.o)
 .debug_aranges
                0x00000c60       0x20 /opt/rtems-4.8/sparc-rtems/leon2/lib/librtemscpu.a(librtems_a-taskident.o)
 .debug_aranges
                0x00000c80       0x20 /opt/rtems-4.8/sparc-rtems/leon2/lib/librtemscpu.a(librtems_a-taskinitusers.o)
 .debug_aranges
                0x00000ca0       0x20 /opt/rtems-4.8/sparc-rtems/leon2/lib/librtemscpu.a(librtems_a-taskresume.o)
 .debug_aranges
                0x00000cc0       0x20 /opt/rtems-4.8/sparc-rtems/leon2/lib/librtemscpu.a(librtems_a-tasksetpriority.o)
 .debug_aranges
                0x00000ce0       0x20 /opt/rtems-4.8/sparc-rtems/leon2/lib/librtemscpu.a(librtems_a-taskstart.o)
 .debug_aranges
                0x00000d00       0x20 /opt/rtems-4.8/sparc-rtems/leon2/lib/librtemscpu.a(librtems_a-tasksuspend.o)
 .debug_aranges
                0x00000d20       0x20 /opt/rtems-4.8/sparc-rtems/leon2/lib/librtemscpu.a(librtems_a-taskvariableadd.o)
 .debug_aranges
                0x00000d40       0x20 /opt/rtems-4.8/sparc-rtems/leon2/lib/librtemscpu.a(librtems_a-taskwakeafter.o)
 .debug_aranges
                0x00000d60       0x20 /opt/rtems-4.8/sparc-rtems/leon2/lib/librtemscpu.a(libsapi_a-exinit.o)
 .debug_aranges
                0x00000d80       0x20 /opt/rtems-4.8/sparc-rtems/leon2/lib/librtemscpu.a(libsapi_a-extension.o)
 .debug_aranges
                0x00000da0       0x20 /opt/rtems-4.8/sparc-rtems/leon2/lib/librtemscpu.a(libsapi_a-fatal.o)
 .debug_aranges
                0x00000dc0       0x20 /opt/rtems-4.8/sparc-rtems/leon2/lib/librtemscpu.a(libsapi_a-getversionstring.o)
 .debug_aranges
                0x00000de0       0x20 /opt/rtems-4.8/sparc-rtems/leon2/lib/librtemscpu.a(libsapi_a-io.o)
 .debug_aranges
                0x00000e00       0x20 /opt/rtems-4.8/sparc-rtems/leon2/lib/librtemscpu.a(libsapi_a-ioinitialize.o)
 .debug_aranges
                0x00000e20       0x20 /opt/rtems-4.8/sparc-rtems/leon2/lib/librtemscpu.a(libsapi_a-ioregisterdriver.o)
 .debug_aranges
                0x00000e40       0x20 /opt/rtems-4.8/sparc-rtems/leon2/lib/librtemscpu.a(libsapi_a-posixapi.o)
 .debug_aranges
                0x00000e60       0x20 /opt/rtems-4.8/sparc-rtems/leon2/lib/librtemscpu.a(libsapi_a-rtemsapi.o)
 .debug_aranges
                0x00000e80       0x20 /opt/rtems-4.8/sparc-rtems/leon2/lib/librtemscpu.a(libscore_a-apiext.o)
 .debug_aranges
                0x00000ea0       0x20 /opt/rtems-4.8/sparc-rtems/leon2/lib/librtemscpu.a(libscore_a-chainappend.o)
 .debug_aranges
                0x00000ec0       0x20 /opt/rtems-4.8/sparc-rtems/leon2/lib/librtemscpu.a(libscore_a-chainget.o)
 .debug_aranges
                0x00000ee0       0x20 /opt/rtems-4.8/sparc-rtems/leon2/lib/librtemscpu.a(libscore_a-coremutex.o)
 .debug_aranges
                0x00000f00       0x20 /opt/rtems-4.8/sparc-rtems/leon2/lib/librtemscpu.a(libscore_a-coremutexflush.o)
 .debug_aranges
                0x00000f20       0x20 /opt/rtems-4.8/sparc-rtems/leon2/lib/librtemscpu.a(libscore_a-coremutexseize.o)
 .debug_aranges
                0x00000f40       0x20 /opt/rtems-4.8/sparc-rtems/leon2/lib/librtemscpu.a(libscore_a-coremutexsurrender.o)
 .debug_aranges
                0x00000f60       0x20 /opt/rtems-4.8/sparc-rtems/leon2/lib/librtemscpu.a(libscore_a-coresem.o)
 .debug_aranges
                0x00000f80       0x20 /opt/rtems-4.8/sparc-rtems/leon2/lib/librtemscpu.a(libscore_a-coresemflush.o)
 .debug_aranges
                0x00000fa0       0x20 /opt/rtems-4.8/sparc-rtems/leon2/lib/librtemscpu.a(libscore_a-coresemsurrender.o)
 .debug_aranges
                0x00000fc0       0x20 /opt/rtems-4.8/sparc-rtems/leon2/lib/librtemscpu.a(libscore_a-coretod.o)
 .debug_aranges
                0x00000fe0       0x20 /opt/rtems-4.8/sparc-rtems/leon2/lib/librtemscpu.a(libscore_a-coretodget.o)
 .debug_aranges
                0x00001000       0x20 /opt/rtems-4.8/sparc-rtems/leon2/lib/librtemscpu.a(libscore_a-coretodgetuptime.o)
 .debug_aranges
                0x00001020       0x20 /opt/rtems-4.8/sparc-rtems/leon2/lib/librtemscpu.a(libscore_a-coretodtickle.o)
 .debug_aranges
                0x00001040       0x20 /opt/rtems-4.8/sparc-rtems/leon2/lib/librtemscpu.a(libscore_a-heap.o)
 .debug_aranges
                0x00001060       0x20 /opt/rtems-4.8/sparc-rtems/leon2/lib/librtemscpu.a(libscore_a-heapallocate.o)
 .debug_aranges
                0x00001080       0x20 /opt/rtems-4.8/sparc-rtems/leon2/lib/librtemscpu.a(libscore_a-heapfree.o)
 .debug_aranges
                0x000010a0       0x20 /opt/rtems-4.8/sparc-rtems/leon2/lib/librtemscpu.a(libscore_a-interr.o)
 .debug_aranges
                0x000010c0       0x20 /opt/rtems-4.8/sparc-rtems/leon2/lib/librtemscpu.a(libscore_a-isr.o)
 .debug_aranges
                0x000010e0       0x20 /opt/rtems-4.8/sparc-rtems/leon2/lib/librtemscpu.a(libscore_a-iterateoverthreads.o)
 .debug_aranges
                0x00001100       0x20 /opt/rtems-4.8/sparc-rtems/leon2/lib/librtemscpu.a(libscore_a-object.o)
 .debug_aranges
                0x00001120       0x20 /opt/rtems-4.8/sparc-rtems/leon2/lib/librtemscpu.a(libscore_a-objectallocate.o)
 .debug_aranges
                0x00001140       0x20 /opt/rtems-4.8/sparc-rtems/leon2/lib/librtemscpu.a(libscore_a-objectextendinformation.o)
 .debug_aranges
                0x00001160       0x20 /opt/rtems-4.8/sparc-rtems/leon2/lib/librtemscpu.a(libscore_a-objectfree.o)
 .debug_aranges
                0x00001180       0x20 /opt/rtems-4.8/sparc-rtems/leon2/lib/librtemscpu.a(libscore_a-objectget.o)
 .debug_aranges
                0x000011a0       0x20 /opt/rtems-4.8/sparc-rtems/leon2/lib/librtemscpu.a(libscore_a-objectgetisr.o)
 .debug_aranges
                0x000011c0       0x20 /opt/rtems-4.8/sparc-rtems/leon2/lib/librtemscpu.a(libscore_a-objectgetnameasstring.o)
 .debug_aranges
                0x000011e0       0x20 /opt/rtems-4.8/sparc-rtems/leon2/lib/librtemscpu.a(libscore_a-objectinitializeinformation.o)
 .debug_aranges
                0x00001200       0x20 /opt/rtems-4.8/sparc-rtems/leon2/lib/librtemscpu.a(libscore_a-objectnametoid.o)
 .debug_aranges
                0x00001220       0x20 /opt/rtems-4.8/sparc-rtems/leon2/lib/librtemscpu.a(libscore_a-objectshrinkinformation.o)
 .debug_aranges
                0x00001240       0x20 /opt/rtems-4.8/sparc-rtems/leon2/lib/librtemscpu.a(libscore_a-pheapallocate.o)
 .debug_aranges
                0x00001260       0x20 /opt/rtems-4.8/sparc-rtems/leon2/lib/librtemscpu.a(libscore_a-pheapextend.o)
 .debug_aranges
                0x00001280       0x20 /opt/rtems-4.8/sparc-rtems/leon2/lib/librtemscpu.a(libscore_a-pheapfree.o)
 .debug_aranges
                0x000012a0       0x20 /opt/rtems-4.8/sparc-rtems/leon2/lib/librtemscpu.a(libscore_a-pheapgetblocksize.o)
 .debug_aranges
                0x000012c0       0x20 /opt/rtems-4.8/sparc-rtems/leon2/lib/librtemscpu.a(libscore_a-pheapresizeblock.o)
 .debug_aranges
                0x000012e0       0x20 /opt/rtems-4.8/sparc-rtems/leon2/lib/librtemscpu.a(libscore_a-thread.o)
 .debug_aranges
                0x00001300       0x20 /opt/rtems-4.8/sparc-rtems/leon2/lib/librtemscpu.a(libscore_a-threadchangepriority.o)
 .debug_aranges
                0x00001320       0x20 /opt/rtems-4.8/sparc-rtems/leon2/lib/librtemscpu.a(libscore_a-threadclearstate.o)
 .debug_aranges
                0x00001340       0x20 /opt/rtems-4.8/sparc-rtems/leon2/lib/librtemscpu.a(libscore_a-threadclose.o)
 .debug_aranges
                0x00001360       0x20 /opt/rtems-4.8/sparc-rtems/leon2/lib/librtemscpu.a(libscore_a-threadcreateidle.o)
 .debug_aranges
                0x00001380       0x20 /opt/rtems-4.8/sparc-rtems/leon2/lib/librtemscpu.a(libscore_a-threaddelayended.o)
 .debug_aranges
                0x000013a0       0x20 /opt/rtems-4.8/sparc-rtems/leon2/lib/librtemscpu.a(libscore_a-threaddispatch.o)
 .debug_aranges
                0x000013c0       0x20 /opt/rtems-4.8/sparc-rtems/leon2/lib/librtemscpu.a(libscore_a-threadidlebody.o)
 .debug_aranges
                0x000013e0       0x20 /opt/rtems-4.8/sparc-rtems/leon2/lib/librtemscpu.a(libscore_a-threadinitialize.o)
 .debug_aranges
                0x00001400       0x20 /opt/rtems-4.8/sparc-rtems/leon2/lib/librtemscpu.a(libscore_a-threadq.o)
 .debug_aranges
                0x00001420       0x20 /opt/rtems-4.8/sparc-rtems/leon2/lib/librtemscpu.a(libscore_a-threadqdequeue.o)
 .debug_aranges
                0x00001440       0x20 /opt/rtems-4.8/sparc-rtems/leon2/lib/librtemscpu.a(libscore_a-threadqdequeuefifo.o)
 .debug_aranges
                0x00001460       0x20 /opt/rtems-4.8/sparc-rtems/leon2/lib/librtemscpu.a(libscore_a-threadqdequeuepriority.o)
 .debug_aranges
                0x00001480       0x20 /opt/rtems-4.8/sparc-rtems/leon2/lib/librtemscpu.a(libscore_a-threadqenqueue.o)
 .debug_aranges
                0x000014a0       0x20 /opt/rtems-4.8/sparc-rtems/leon2/lib/librtemscpu.a(libscore_a-threadqenqueuefifo.o)
 .debug_aranges
                0x000014c0       0x20 /opt/rtems-4.8/sparc-rtems/leon2/lib/librtemscpu.a(libscore_a-threadqenqueuepriority.o)
 .debug_aranges
                0x000014e0       0x20 /opt/rtems-4.8/sparc-rtems/leon2/lib/librtemscpu.a(libscore_a-threadqextractwithproxy.o)
 .debug_aranges
                0x00001500       0x20 /opt/rtems-4.8/sparc-rtems/leon2/lib/librtemscpu.a(libscore_a-threadqflush.o)
 .debug_aranges
                0x00001520       0x20 /opt/rtems-4.8/sparc-rtems/leon2/lib/librtemscpu.a(libscore_a-threadqrequeue.o)
 .debug_aranges
                0x00001540       0x20 /opt/rtems-4.8/sparc-rtems/leon2/lib/librtemscpu.a(libscore_a-threadqtimeout.o)
 .debug_aranges
                0x00001560       0x20 /opt/rtems-4.8/sparc-rtems/leon2/lib/librtemscpu.a(libscore_a-threadresume.o)
 .debug_aranges
                0x00001580       0x20 /opt/rtems-4.8/sparc-rtems/leon2/lib/librtemscpu.a(libscore_a-threadsetpriority.o)
 .debug_aranges
                0x000015a0       0x20 /opt/rtems-4.8/sparc-rtems/leon2/lib/librtemscpu.a(libscore_a-threadsetstate.o)
 .debug_aranges
                0x000015c0       0x20 /opt/rtems-4.8/sparc-rtems/leon2/lib/librtemscpu.a(libscore_a-threadsettransient.o)
 .debug_aranges
                0x000015e0       0x20 /opt/rtems-4.8/sparc-rtems/leon2/lib/librtemscpu.a(libscore_a-threadstackallocate.o)
 .debug_aranges
                0x00001600       0x20 /opt/rtems-4.8/sparc-rtems/leon2/lib/librtemscpu.a(libscore_a-threadstackfree.o)
 .debug_aranges
                0x00001620       0x20 /opt/rtems-4.8/sparc-rtems/leon2/lib/librtemscpu.a(libscore_a-threadstart.o)
 .debug_aranges
                0x00001640       0x20 /opt/rtems-4.8/sparc-rtems/leon2/lib/librtemscpu.a(libscore_a-threadstartmultitasking.o)
 .debug_aranges
                0x00001660       0x20 /opt/rtems-4.8/sparc-rtems/leon2/lib/librtemscpu.a(libscore_a-threadsuspend.o)
 .debug_aranges
                0x00001680       0x20 /opt/rtems-4.8/sparc-rtems/leon2/lib/librtemscpu.a(libscore_a-threadtickletimeslice.o)
 .debug_aranges
                0x000016a0       0x20 /opt/rtems-4.8/sparc-rtems/leon2/lib/librtemscpu.a(libscore_a-threadyieldprocessor.o)
 .debug_aranges
                0x000016c0       0x20 /opt/rtems-4.8/sparc-rtems/leon2/lib/librtemscpu.a(libscore_a-timespecaddto.o)
 .debug_aranges
                0x000016e0       0x20 /opt/rtems-4.8/sparc-rtems/leon2/lib/librtemscpu.a(libscore_a-timespecgreaterthan.o)
 .debug_aranges
                0x00001700       0x20 /opt/rtems-4.8/sparc-rtems/leon2/lib/librtemscpu.a(libscore_a-timespeclessthan.o)
 .debug_aranges
                0x00001720       0x20 /opt/rtems-4.8/sparc-rtems/leon2/lib/librtemscpu.a(libscore_a-timespecsubtract.o)
 .debug_aranges
                0x00001740       0x20 /opt/rtems-4.8/sparc-rtems/leon2/lib/librtemscpu.a(libscore_a-userext.o)
 .debug_aranges
                0x00001760       0x20 /opt/rtems-4.8/sparc-rtems/leon2/lib/librtemscpu.a(libscore_a-userextaddset.o)
 .debug_aranges
                0x00001780       0x20 /opt/rtems-4.8/sparc-rtems/leon2/lib/librtemscpu.a(libscore_a-userextthreadbegin.o)
 .debug_aranges
                0x000017a0       0x20 /opt/rtems-4.8/sparc-rtems/leon2/lib/librtemscpu.a(libscore_a-userextthreadcreate.o)
 .debug_aranges
                0x000017c0       0x20 /opt/rtems-4.8/sparc-rtems/leon2/lib/librtemscpu.a(libscore_a-userextthreaddelete.o)
 .debug_aranges
                0x000017e0       0x20 /opt/rtems-4.8/sparc-rtems/leon2/lib/librtemscpu.a(libscore_a-userextthreadstart.o)
 .debug_aranges
                0x00001800       0x20 /opt/rtems-4.8/sparc-rtems/leon2/lib/librtemscpu.a(libscore_a-userextthreadswitch.o)
 .debug_aranges
                0x00001820       0x20 /opt/rtems-4.8/sparc-rtems/leon2/lib/librtemscpu.a(libscore_a-watchdog.o)
 .debug_aranges
                0x00001840       0x20 /opt/rtems-4.8/sparc-rtems/leon2/lib/librtemscpu.a(libscore_a-watchdoginsert.o)
 .debug_aranges
                0x00001860       0x20 /opt/rtems-4.8/sparc-rtems/leon2/lib/librtemscpu.a(libscore_a-watchdogremove.o)
 .debug_aranges
                0x00001880       0x20 /opt/rtems-4.8/sparc-rtems/leon2/lib/librtemscpu.a(libscore_a-watchdogtickle.o)
 .debug_aranges
                0x000018a0       0x20 /opt/rtems-4.8/sparc-rtems/leon2/lib/librtemscpu.a(libscore_a-wkspace.o)
 .debug_aranges
                0x000018c0       0x20 /opt/rtems-4.8/sparc-rtems/leon2/lib/librtemscpu.a(libscorecpu_a-cpu.o)
 .debug_aranges
                0x000018e0       0x20 /opt/rtems-4.8/sparc-rtems/leon2/lib/librtemscpu.a(libscorecpu_a-cpu_asm.o)
 .debug_aranges
                0x00001900       0x20 /opt/rtems-4.8/sparc-rtems/leon2/lib/librtemscpu.a(miniimfs_init.o)
 .debug_aranges
                0x00001920       0x20 /opt/rtems-4.8/sparc-rtems/leon2/lib/librtemscpu.a(imfs_eval.o)
 .debug_aranges
                0x00001940       0x20 /opt/rtems-4.8/sparc-rtems/leon2/lib/librtemscpu.a(imfs_getchild.o)
 .debug_aranges
                0x00001960       0x20 /opt/rtems-4.8/sparc-rtems/leon2/lib/librtemscpu.a(imfs_gtkn.o)
 .debug_aranges
                0x00001980       0x20 /opt/rtems-4.8/sparc-rtems/leon2/lib/librtemscpu.a(imfs_initsupp.o)
 .debug_aranges
                0x000019a0       0x20 /opt/rtems-4.8/sparc-rtems/leon2/lib/librtemscpu.a(imfs_mknod.o)
 .debug_aranges
                0x000019c0       0x20 /opt/rtems-4.8/sparc-rtems/leon2/lib/librtemscpu.a(imfs_ntype.o)
 .debug_aranges
                0x000019e0       0x20 /opt/rtems-4.8/sparc-rtems/leon2/lib/librtemscpu.a(imfs_rmnod.o)
 .debug_aranges
                0x00001a00       0x20 /opt/rtems-4.8/sparc-rtems/leon2/lib/librtemscpu.a(imfs_stat.o)
 .debug_aranges
                0x00001a20       0x20 /opt/rtems-4.8/sparc-rtems/leon2/lib/librtemscpu.a(libc_a-inet_ntoa.o)
 .debug_aranges
                0x00001a40       0x20 /opt/rtems-4.8/sparc-rtems/leon2/lib/librtemscpu.a(libc_a-inet_ntop.o)
 .debug_aranges
                0x00001a60       0x20 /opt/rtems-4.8/sparc-rtems/leon2/lib/librtemscpu.a(libcsupport_a-__gettod.o)
 .debug_aranges
                0x00001a80       0x20 /opt/rtems-4.8/sparc-rtems/leon2/lib/librtemscpu.a(libcsupport_a-assoclocalbyremote.o)
 .debug_aranges
                0x00001aa0       0x20 /opt/rtems-4.8/sparc-rtems/leon2/lib/librtemscpu.a(libcsupport_a-assoclocalbyremotebitfield.o)
 .debug_aranges
                0x00001ac0       0x20 /opt/rtems-4.8/sparc-rtems/leon2/lib/librtemscpu.a(libcsupport_a-assocptrbyremote.o)
 .debug_aranges
                0x00001ae0       0x20 /opt/rtems-4.8/sparc-rtems/leon2/lib/librtemscpu.a(libcsupport_a-base_fs.o)
 .debug_aranges
                0x00001b00       0x20 /opt/rtems-4.8/sparc-rtems/leon2/lib/librtemscpu.a(libcsupport_a-error.o)
 .debug_aranges
                0x00001b20       0x20 /opt/rtems-4.8/sparc-rtems/leon2/lib/librtemscpu.a(libcsupport_a-getegid.o)
 .debug_aranges
                0x00001b40       0x20 /opt/rtems-4.8/sparc-rtems/leon2/lib/librtemscpu.a(libcsupport_a-geteuid.o)
 .debug_aranges
                0x00001b60       0x20 /opt/rtems-4.8/sparc-rtems/leon2/lib/librtemscpu.a(libcsupport_a-ioctl.o)
 .debug_aranges
                0x00001b80       0x20 /opt/rtems-4.8/sparc-rtems/leon2/lib/librtemscpu.a(libcsupport_a-libio_sockets.o)
 .debug_aranges
                0x00001ba0       0x20 /opt/rtems-4.8/sparc-rtems/leon2/lib/librtemscpu.a(libcsupport_a-mount.o)
 .debug_aranges
                0x00001bc0       0x20 /opt/rtems-4.8/sparc-rtems/leon2/lib/librtemscpu.a(libcsupport_a-newlibc_exit.o)
 .debug_aranges
                0x00001be0       0x20 /opt/rtems-4.8/sparc-rtems/leon2/lib/librtemscpu.a(libcsupport_a-open.o)
 .debug_aranges
                0x00001c00       0x20 /opt/rtems-4.8/sparc-rtems/leon2/lib/librtemscpu.a(libnetworking_a-if_ether.o)
 .debug_aranges
                0x00001c20       0x20 /opt/rtems-4.8/sparc-rtems/leon2/lib/librtemscpu.a(libnetworking_a-in.o)
 .debug_aranges
                0x00001c40       0x20 /opt/rtems-4.8/sparc-rtems/leon2/lib/librtemscpu.a(libnetworking_a-in_cksum.o)
 .debug_aranges
                0x00001c60       0x20 /opt/rtems-4.8/sparc-rtems/leon2/lib/librtemscpu.a(libnetworking_a-in_pcb.o)
 .debug_aranges
                0x00001c80       0x20 /opt/rtems-4.8/sparc-rtems/leon2/lib/librtemscpu.a(libnetworking_a-in_rmx.o)
 .debug_aranges
                0x00001ca0       0x20 /opt/rtems-4.8/sparc-rtems/leon2/lib/librtemscpu.a(libnetworking_a-ip_icmp.o)
 .debug_aranges
                0x00001cc0       0x20 /opt/rtems-4.8/sparc-rtems/leon2/lib/librtemscpu.a(libnetworking_a-kern_subr.o)
 .debug_aranges
                0x00001ce0       0x20 /opt/rtems-4.8/sparc-rtems/leon2/lib/librtemscpu.a(libnetworking_a-raw_usrreq.o)
 .debug_aranges
                0x00001d00       0x20 /opt/rtems-4.8/sparc-rtems/leon2/lib/librtemscpu.a(libnetworking_a-rtems_bsdnet_malloc_starvation.o)
 .debug_aranges
                0x00001d20       0x20 /opt/rtems-4.8/sparc-rtems/leon2/lib/librtemscpu.a(libnetworking_a-tcp_input.o)
 .debug_aranges
                0x00001d40       0x20 /opt/rtems-4.8/sparc-rtems/leon2/lib/librtemscpu.a(libnetworking_a-tcp_output.o)
 .debug_aranges
                0x00001d60       0x20 /opt/rtems-4.8/sparc-rtems/leon2/lib/librtemscpu.a(libnetworking_a-tcp_subr.o)
 .debug_aranges
                0x00001d80       0x20 /opt/rtems-4.8/sparc-rtems/leon2/lib/librtemscpu.a(libnetworking_a-tcp_timer.o)
 .debug_aranges
                0x00001da0       0x20 /opt/rtems-4.8/sparc-rtems/leon2/lib/librtemscpu.a(libnetworking_a-tcp_usrreq.o)
 .debug_aranges
                0x00001dc0       0x20 /opt/rtems-4.8/sparc-rtems/leon2/lib/librtemscpu.a(libnetworking_a-udp_usrreq.o)
 .debug_aranges
                0x00001de0       0x20 /opt/rtems-4.8/sparc-rtems/leon2/lib/librtemscpu.a(libposix_a-cond.o)
 .debug_aranges
                0x00001e00       0x20 /opt/rtems-4.8/sparc-rtems/leon2/lib/librtemscpu.a(libposix_a-key.o)
 .debug_aranges
                0x00001e20       0x20 /opt/rtems-4.8/sparc-rtems/leon2/lib/librtemscpu.a(libposix_a-mqueue.o)
 .debug_aranges
                0x00001e40       0x20 /opt/rtems-4.8/sparc-rtems/leon2/lib/librtemscpu.a(libposix_a-mutex.o)
 .debug_aranges
                0x00001e60       0x20 /opt/rtems-4.8/sparc-rtems/leon2/lib/librtemscpu.a(libposix_a-pbarrier.o)
 .debug_aranges
                0x00001e80       0x20 /opt/rtems-4.8/sparc-rtems/leon2/lib/librtemscpu.a(libposix_a-prwlock.o)
 .debug_aranges
                0x00001ea0       0x20 /opt/rtems-4.8/sparc-rtems/leon2/lib/librtemscpu.a(libposix_a-psignal.o)
 .debug_aranges
                0x00001ec0       0x20 /opt/rtems-4.8/sparc-rtems/leon2/lib/librtemscpu.a(libposix_a-psignalchecksignal.o)
 .debug_aranges
                0x00001ee0       0x20 /opt/rtems-4.8/sparc-rtems/leon2/lib/librtemscpu.a(libposix_a-psignalclearsignals.o)
 .debug_aranges
                0x00001f00       0x20 /opt/rtems-4.8/sparc-rtems/leon2/lib/librtemscpu.a(libposix_a-pspin.o)
 .debug_aranges
                0x00001f20       0x20 /opt/rtems-4.8/sparc-rtems/leon2/lib/librtemscpu.a(libposix_a-pthread.o)
 .debug_aranges
                0x00001f40       0x20 /opt/rtems-4.8/sparc-rtems/leon2/lib/librtemscpu.a(libposix_a-pthreadexit.o)
 .debug_aranges
                0x00001f60       0x20 /opt/rtems-4.8/sparc-rtems/leon2/lib/librtemscpu.a(libposix_a-ptimer.o)
 .debug_aranges
                0x00001f80       0x20 /opt/rtems-4.8/sparc-rtems/leon2/lib/librtemscpu.a(libposix_a-semaphore.o)
 .debug_aranges
                0x00001fa0       0x20 /opt/rtems-4.8/sparc-rtems/leon2/lib/librtemscpu.a(libposix_a-sigemptyset.o)
 .debug_aranges
                0x00001fc0       0x20 /opt/rtems-4.8/sparc-rtems/leon2/lib/librtemscpu.a(librtems_a-barrier.o)
 .debug_aranges
                0x00001fe0       0x20 /opt/rtems-4.8/sparc-rtems/leon2/lib/librtemscpu.a(librtems_a-dpmem.o)
 .debug_aranges
                0x00002000       0x20 /opt/rtems-4.8/sparc-rtems/leon2/lib/librtemscpu.a(librtems_a-event.o)
 .debug_aranges
                0x00002020       0x20 /opt/rtems-4.8/sparc-rtems/leon2/lib/librtemscpu.a(librtems_a-intr.o)
 .debug_aranges
                0x00002040       0x20 /opt/rtems-4.8/sparc-rtems/leon2/lib/librtemscpu.a(librtems_a-msg.o)
 .debug_aranges
                0x00002060       0x20 /opt/rtems-4.8/sparc-rtems/leon2/lib/librtemscpu.a(librtems_a-part.o)
 .debug_aranges
                0x00002080       0x20 /opt/rtems-4.8/sparc-rtems/leon2/lib/librtemscpu.a(librtems_a-ratemon.o)
 .debug_aranges
                0x000020a0       0x20 /opt/rtems-4.8/sparc-rtems/leon2/lib/librtemscpu.a(librtems_a-region.o)
 .debug_aranges
                0x000020c0       0x20 /opt/rtems-4.8/sparc-rtems/leon2/lib/librtemscpu.a(librtems_a-rtemstimer.o)
 .debug_aranges
                0x000020e0       0x20 /opt/rtems-4.8/sparc-rtems/leon2/lib/librtemscpu.a(librtems_a-sem.o)
 .debug_aranges
                0x00002100       0x20 /opt/rtems-4.8/sparc-rtems/leon2/lib/librtemscpu.a(librtems_a-signal.o)
 .debug_aranges
                0x00002120       0x20 /opt/rtems-4.8/sparc-rtems/leon2/lib/librtemscpu.a(librtems_a-tasks.o)
 .debug_aranges
                0x00002140       0x20 /opt/rtems-4.8/sparc-rtems/leon2/lib/librtemscpu.a(libsapi_a-debug.o)
 .debug_aranges
                0x00002160       0x20 /opt/rtems-4.8/sparc-rtems/leon2/lib/librtemscpu.a(libsapi_a-exshutdown.o)
 .debug_aranges
                0x00002180       0x20 /opt/rtems-4.8/sparc-rtems/leon2/lib/librtemscpu.a(libscore_a-chain.o)
 .debug_aranges
                0x000021a0       0x20 /opt/rtems-4.8/sparc-rtems/leon2/lib/librtemscpu.a(libscore_a-chainextract.o)
 .debug_aranges
                0x000021c0       0x20 /opt/rtems-4.8/sparc-rtems/leon2/lib/librtemscpu.a(libscore_a-heapextend.o)
 .debug_aranges
                0x000021e0       0x20 /opt/rtems-4.8/sparc-rtems/leon2/lib/librtemscpu.a(libscore_a-heapresizeblock.o)
 .debug_aranges
                0x00002200       0x20 /opt/rtems-4.8/sparc-rtems/leon2/lib/librtemscpu.a(libscore_a-heapsizeofuserarea.o)
 .debug_aranges
                0x00002220       0x20 /opt/rtems-4.8/sparc-rtems/leon2/lib/librtemscpu.a(libscore_a-objectcomparenameraw.o)
 .debug_aranges
                0x00002240       0x20 /opt/rtems-4.8/sparc-rtems/leon2/lib/librtemscpu.a(libscore_a-objectcomparenamestring.o)
 .debug_aranges
                0x00002260       0x20 /opt/rtems-4.8/sparc-rtems/leon2/lib/librtemscpu.a(libscore_a-threadloadenv.o)
 .debug_aranges
                0x00002280       0x20 /opt/rtems-4.8/sparc-rtems/leon2/lib/librtemscpu.a(libscore_a-threadqextract.o)
 .debug_aranges
                0x000022a0       0x20 /opt/rtems-4.8/sparc-rtems/leon2/lib/librtemscpu.a(libscore_a-threadqextractfifo.o)
 .debug_aranges
                0x000022c0       0x20 /opt/rtems-4.8/sparc-rtems/leon2/lib/librtemscpu.a(libscore_a-threadqextractpriority.o)
 .debug_aranges
                0x000022e0       0x20 /opt/rtems-4.8/sparc-rtems/leon2/lib/librtemscpu.a(libscore_a-threadready.o)
 .debug_aranges
                0x00002300       0x20 /opt/rtems-4.8/sparc-rtems/leon2/lib/librtemscpu.a(libscore_a-threadresettimeslice.o)
 .debug_aranges
                0x00002320       0x20 /opt/rtems-4.8/sparc-rtems/leon2/lib/librtemscpu.a(libscore_a-timespectoticks.o)
 .debug_aranges
                0x00002340       0x20 /opt/rtems-4.8/sparc-rtems/leon2/lib/librtemscpu.a(libscore_a-userextaddapiset.o)
 .debug_aranges
                0x00002360       0x20 /opt/rtems-4.8/sparc-rtems/leon2/lib/librtemscpu.a(deviceio.o)
 .debug_aranges
                0x00002380       0x20 /opt/rtems-4.8/sparc-rtems/leon2/lib/librtemscpu.a(imfs_creat.o)
 .debug_aranges
                0x000023a0       0x20 /opt/rtems-4.8/sparc-rtems/leon2/lib/librtemscpu.a(imfs_fchmod.o)
 .debug_aranges
                0x000023c0       0x20 /opt/rtems-4.8/sparc-rtems/leon2/lib/librtemscpu.a(libcsupport_a-assocnamebylocal.o)
 .debug_aranges
                0x000023e0       0x20 /opt/rtems-4.8/sparc-rtems/leon2/lib/librtemscpu.a(libcsupport_a-assocptrbylocal.o)
 .debug_aranges
                0x00002400       0x20 /opt/rtems-4.8/sparc-rtems/leon2/lib/librtemscpu.a(libcsupport_a-assocremotebylocal.o)
 .debug_aranges
                0x00002420       0x20 /opt/rtems-4.8/sparc-rtems/leon2/lib/librtemscpu.a(libcsupport_a-ftruncate.o)
 .debug_aranges
                0x00002440       0x20 /opt/rtems-4.8/sparc-rtems/leon2/lib/librtemscpu.a(libnetworking_a-igmp.o)
 .debug_aranges
                0x00002460       0x20 /opt/rtems-4.8/sparc-rtems/leon2/lib/librtemscpu.a(libnetworking_a-raw_cb.o)
 .debug_aranges
                0x00002480       0x20 /opt/rtems-4.8/sparc-rtems/leon2/lib/librtemscpu.a(libposix_a-keyrundestructors.o)
 .debug_aranges
                0x000024a0       0x20 /opt/rtems-4.8/sparc-rtems/leon2/lib/librtemscpu.a(libposix_a-psignalclearprocesssignals.o)
 .debug_aranges
                0x000024c0       0x20 /opt/rtems-4.8/sparc-rtems/leon2/lib/librtemscpu.a(librtems_a-taskmode.o)
 .debug_aranges
                0x000024e0       0x20 /opt/rtems-4.8/sparc-rtems/leon2/lib/librtemscpu.a(libsapi_a-ioclose.o)
 .debug_aranges
                0x00002500       0x20 /opt/rtems-4.8/sparc-rtems/leon2/lib/librtemscpu.a(libsapi_a-iocontrol.o)
 .debug_aranges
                0x00002520       0x20 /opt/rtems-4.8/sparc-rtems/leon2/lib/librtemscpu.a(libsapi_a-ioopen.o)
 .debug_aranges
                0x00002540       0x20 /opt/rtems-4.8/sparc-rtems/leon2/lib/librtemscpu.a(libsapi_a-ioread.o)
 .debug_aranges
                0x00002560       0x20 /opt/rtems-4.8/sparc-rtems/leon2/lib/librtemscpu.a(libsapi_a-iowrite.o)
 .debug_aranges
                0x00002580       0x20 /opt/rtems-4.8/sparc-rtems/leon2/lib/librtemscpu.a(libscore_a-threadevaluatemode.o)
 .debug_aranges
                0x000025a0       0x20 /opt/rtems-4.8/sparc-rtems/leon2/lib/librtemscpu.a(libscore_a-threadhandler.o)
 .debug_aranges
                0x000025c0       0x20 /opt/rtems-4.8/sparc-rtems/leon2/lib/librtemscpu.a(libcsupport_a-assocnamebad.o)
 .debug_aranges
                0x000025e0       0x20 /opt/rtems-4.8-1.1.3/bin/../lib/gcc/sparc-rtems/4.2.4/../../../../sparc-rtems/lib/soft/libc.a(lib_a-abort.o)
 .debug_aranges
                0x00002600       0x20 /opt/rtems-4.8-1.1.3/bin/../lib/gcc/sparc-rtems/4.2.4/../../../../sparc-rtems/lib/soft/libc.a(lib_a-atexit.o)
 .debug_aranges
                0x00002620       0x20 /opt/rtems-4.8-1.1.3/bin/../lib/gcc/sparc-rtems/4.2.4/../../../../sparc-rtems/lib/soft/libc.a(lib_a-bcmp.o)
 .debug_aranges
                0x00002640       0x20 /opt/rtems-4.8-1.1.3/bin/../lib/gcc/sparc-rtems/4.2.4/../../../../sparc-rtems/lib/soft/libc.a(lib_a-errno.o)
 .debug_aranges
                0x00002660       0x20 /opt/rtems-4.8-1.1.3/bin/../lib/gcc/sparc-rtems/4.2.4/../../../../sparc-rtems/lib/soft/libc.a(lib_a-exit.o)
 .debug_aranges
                0x00002680       0x20 /opt/rtems-4.8-1.1.3/bin/../lib/gcc/sparc-rtems/4.2.4/../../../../sparc-rtems/lib/soft/libc.a(lib_a-fclose.o)
 .debug_aranges
                0x000026a0       0x20 /opt/rtems-4.8-1.1.3/bin/../lib/gcc/sparc-rtems/4.2.4/../../../../sparc-rtems/lib/soft/libc.a(lib_a-fflush.o)
 .debug_aranges
                0x000026c0       0x20 /opt/rtems-4.8-1.1.3/bin/../lib/gcc/sparc-rtems/4.2.4/../../../../sparc-rtems/lib/soft/libc.a(lib_a-fileno.o)
 .debug_aranges
                0x000026e0       0x20 /opt/rtems-4.8-1.1.3/bin/../lib/gcc/sparc-rtems/4.2.4/../../../../sparc-rtems/lib/soft/libc.a(lib_a-findfp.o)
 .debug_aranges
                0x00002700       0x20 /opt/rtems-4.8-1.1.3/bin/../lib/gcc/sparc-rtems/4.2.4/../../../../sparc-rtems/lib/soft/libc.a(lib_a-fprintf.o)
 .debug_aranges
                0x00002720       0x20 /opt/rtems-4.8-1.1.3/bin/../lib/gcc/sparc-rtems/4.2.4/../../../../sparc-rtems/lib/soft/libc.a(lib_a-fwalk.o)
 .debug_aranges
                0x00002740       0x20 /opt/rtems-4.8-1.1.3/bin/../lib/gcc/sparc-rtems/4.2.4/../../../../sparc-rtems/lib/soft/libc.a(lib_a-gmtime_r.o)
 .debug_aranges
                0x00002760       0x20 /opt/rtems-4.8-1.1.3/bin/../lib/gcc/sparc-rtems/4.2.4/../../../../sparc-rtems/lib/soft/libc.a(lib_a-memcmp.o)
 .debug_aranges
                0x00002780       0x20 /opt/rtems-4.8-1.1.3/bin/../lib/gcc/sparc-rtems/4.2.4/../../../../sparc-rtems/lib/soft/libc.a(lib_a-memcpy.o)
 .debug_aranges
                0x000027a0       0x20 /opt/rtems-4.8-1.1.3/bin/../lib/gcc/sparc-rtems/4.2.4/../../../../sparc-rtems/lib/soft/libc.a(lib_a-memset.o)
 .debug_aranges
                0x000027c0       0x20 /opt/rtems-4.8-1.1.3/bin/../lib/gcc/sparc-rtems/4.2.4/../../../../sparc-rtems/lib/soft/libc.a(lib_a-mktm_r.o)
 .debug_aranges
                0x000027e0       0x20 /opt/rtems-4.8-1.1.3/bin/../lib/gcc/sparc-rtems/4.2.4/../../../../sparc-rtems/lib/soft/libc.a(lib_a-printf.o)
 .debug_aranges
                0x00002800       0x20 /opt/rtems-4.8-1.1.3/bin/../lib/gcc/sparc-rtems/4.2.4/../../../../sparc-rtems/lib/soft/libc.a(lib_a-putchar.o)
 .debug_aranges
                0x00002820       0x20 /opt/rtems-4.8-1.1.3/bin/../lib/gcc/sparc-rtems/4.2.4/../../../../sparc-rtems/lib/soft/libc.a(lib_a-puts.o)
 .debug_aranges
                0x00002840       0x20 /opt/rtems-4.8-1.1.3/bin/../lib/gcc/sparc-rtems/4.2.4/../../../../sparc-rtems/lib/soft/libc.a(lib_a-raise.o)
 .debug_aranges
                0x00002860       0x20 /opt/rtems-4.8-1.1.3/bin/../lib/gcc/sparc-rtems/4.2.4/../../../../sparc-rtems/lib/soft/libc.a(lib_a-reent.o)
 .debug_aranges
                0x00002880       0x20 /opt/rtems-4.8-1.1.3/bin/../lib/gcc/sparc-rtems/4.2.4/../../../../sparc-rtems/lib/soft/libc.a(lib_a-snprintf.o)
 .debug_aranges
                0x000028a0       0x20 /opt/rtems-4.8-1.1.3/bin/../lib/gcc/sparc-rtems/4.2.4/../../../../sparc-rtems/lib/soft/libc.a(lib_a-sprintf.o)
 .debug_aranges
                0x000028c0       0x20 /opt/rtems-4.8-1.1.3/bin/../lib/gcc/sparc-rtems/4.2.4/../../../../sparc-rtems/lib/soft/libc.a(lib_a-stdio.o)
 .debug_aranges
                0x000028e0       0x20 /opt/rtems-4.8-1.1.3/bin/../lib/gcc/sparc-rtems/4.2.4/../../../../sparc-rtems/lib/soft/libc.a(lib_a-strchr.o)
 .debug_aranges
                0x00002900       0x20 /opt/rtems-4.8-1.1.3/bin/../lib/gcc/sparc-rtems/4.2.4/../../../../sparc-rtems/lib/soft/libc.a(lib_a-strcmp.o)
 .debug_aranges
                0x00002920       0x20 /opt/rtems-4.8-1.1.3/bin/../lib/gcc/sparc-rtems/4.2.4/../../../../sparc-rtems/lib/soft/libc.a(lib_a-strcpy.o)
 .debug_aranges
                0x00002940       0x20 /opt/rtems-4.8-1.1.3/bin/../lib/gcc/sparc-rtems/4.2.4/../../../../sparc-rtems/lib/soft/libc.a(lib_a-strdup.o)
 .debug_aranges
                0x00002960       0x20 /opt/rtems-4.8-1.1.3/bin/../lib/gcc/sparc-rtems/4.2.4/../../../../sparc-rtems/lib/soft/libc.a(lib_a-strdup_r.o)
 .debug_aranges
                0x00002980       0x20 /opt/rtems-4.8-1.1.3/bin/../lib/gcc/sparc-rtems/4.2.4/../../../../sparc-rtems/lib/soft/libc.a(lib_a-strerror.o)
 .debug_aranges
                0x000029a0       0x20 /opt/rtems-4.8-1.1.3/bin/../lib/gcc/sparc-rtems/4.2.4/../../../../sparc-rtems/lib/soft/libc.a(lib_a-strlcpy.o)
 .debug_aranges
                0x000029c0       0x20 /opt/rtems-4.8-1.1.3/bin/../lib/gcc/sparc-rtems/4.2.4/../../../../sparc-rtems/lib/soft/libc.a(lib_a-strlen.o)
 .debug_aranges
                0x000029e0       0x20 /opt/rtems-4.8-1.1.3/bin/../lib/gcc/sparc-rtems/4.2.4/../../../../sparc-rtems/lib/soft/libc.a(lib_a-strncmp.o)
 .debug_aranges
                0x00002a00       0x20 /opt/rtems-4.8-1.1.3/bin/../lib/gcc/sparc-rtems/4.2.4/../../../../sparc-rtems/lib/soft/libc.a(lib_a-strncpy.o)
 .debug_aranges
                0x00002a20       0x20 /opt/rtems-4.8-1.1.3/bin/../lib/gcc/sparc-rtems/4.2.4/../../../../sparc-rtems/lib/soft/libc.a(lib_a-tzlock.o)
 .debug_aranges
                0x00002a40       0x20 /opt/rtems-4.8-1.1.3/bin/../lib/gcc/sparc-rtems/4.2.4/../../../../sparc-rtems/lib/soft/libc.a(lib_a-u_strerr.o)
 .debug_aranges
                0x00002a60       0x20 /opt/rtems-4.8-1.1.3/bin/../lib/gcc/sparc-rtems/4.2.4/../../../../sparc-rtems/lib/soft/libc.a(lib_a-vfprintf.o)
 .debug_aranges
                0x00002a80       0x20 /opt/rtems-4.8-1.1.3/bin/../lib/gcc/sparc-rtems/4.2.4/../../../../sparc-rtems/lib/soft/libc.a(lib_a-vprintf.o)
 .debug_aranges
                0x00002aa0       0x20 /opt/rtems-4.8-1.1.3/bin/../lib/gcc/sparc-rtems/4.2.4/../../../../sparc-rtems/lib/soft/libc.a(lib_a-wcrtomb.o)
 .debug_aranges
                0x00002ac0       0x20 /opt/rtems-4.8-1.1.3/bin/../lib/gcc/sparc-rtems/4.2.4/../../../../sparc-rtems/lib/soft/libc.a(lib_a-wcsrtombs.o)
 .debug_aranges
                0x00002ae0       0x20 /opt/rtems-4.8-1.1.3/bin/../lib/gcc/sparc-rtems/4.2.4/../../../../sparc-rtems/lib/soft/libc.a(lib_a-wctomb_r.o)
 .debug_aranges
                0x00002b00       0x20 /opt/rtems-4.8-1.1.3/bin/../lib/gcc/sparc-rtems/4.2.4/../../../../sparc-rtems/lib/soft/libc.a(lib_a-wsetup.o)
 .debug_aranges
                0x00002b20       0x20 /opt/rtems-4.8-1.1.3/bin/../lib/gcc/sparc-rtems/4.2.4/../../../../sparc-rtems/lib/soft/libc.a(lib_a-__atexit.o)
 .debug_aranges
                0x00002b40       0x20 /opt/rtems-4.8-1.1.3/bin/../lib/gcc/sparc-rtems/4.2.4/../../../../sparc-rtems/lib/soft/libc.a(lib_a-__call_atexit.o)
 .debug_aranges
                0x00002b60       0x20 /opt/rtems-4.8-1.1.3/bin/../lib/gcc/sparc-rtems/4.2.4/../../../../sparc-rtems/lib/soft/libc.a(lib_a-dtoa.o)
 .debug_aranges
                0x00002b80       0x20 /opt/rtems-4.8-1.1.3/bin/../lib/gcc/sparc-rtems/4.2.4/../../../../sparc-rtems/lib/soft/libc.a(lib_a-fvwrite.o)
 .debug_aranges
                0x00002ba0       0x20 /opt/rtems-4.8-1.1.3/bin/../lib/gcc/sparc-rtems/4.2.4/../../../../sparc-rtems/lib/soft/libc.a(lib_a-gettzinfo.o)
 .debug_aranges
                0x00002bc0       0x20 /opt/rtems-4.8-1.1.3/bin/../lib/gcc/sparc-rtems/4.2.4/../../../../sparc-rtems/lib/soft/libc.a(lib_a-locale.o)
 .debug_aranges
                0x00002be0       0x20 /opt/rtems-4.8-1.1.3/bin/../lib/gcc/sparc-rtems/4.2.4/../../../../sparc-rtems/lib/soft/libc.a(lib_a-makebuf.o)
 .debug_aranges
                0x00002c00       0x20 /opt/rtems-4.8-1.1.3/bin/../lib/gcc/sparc-rtems/4.2.4/../../../../sparc-rtems/lib/soft/libc.a(lib_a-memchr.o)
 .debug_aranges
                0x00002c20       0x20 /opt/rtems-4.8-1.1.3/bin/../lib/gcc/sparc-rtems/4.2.4/../../../../sparc-rtems/lib/soft/libc.a(lib_a-memmove.o)
 .debug_aranges
                0x00002c40       0x20 /opt/rtems-4.8-1.1.3/bin/../lib/gcc/sparc-rtems/4.2.4/../../../../sparc-rtems/lib/soft/libc.a(lib_a-mprec.o)
 .debug_aranges
                0x00002c60       0x20 /opt/rtems-4.8-1.1.3/bin/../lib/gcc/sparc-rtems/4.2.4/../../../../sparc-rtems/lib/soft/libc.a(lib_a-putc.o)
 .debug_aranges
                0x00002c80       0x20 /opt/rtems-4.8-1.1.3/bin/../lib/gcc/sparc-rtems/4.2.4/../../../../sparc-rtems/lib/soft/libc.a(lib_a-s_isinfd.o)
 .debug_aranges
                0x00002ca0       0x20 /opt/rtems-4.8-1.1.3/bin/../lib/gcc/sparc-rtems/4.2.4/../../../../sparc-rtems/lib/soft/libc.a(lib_a-s_isnand.o)
 .debug_aranges
                0x00002cc0       0x20 /opt/rtems-4.8-1.1.3/bin/../lib/gcc/sparc-rtems/4.2.4/../../../../sparc-rtems/lib/soft/libc.a(lib_a-wbuf.o)
 .debug_aranges
                0x00002ce0       0x20 /opt/rtems-4.8-1.1.3/bin/../lib/gcc/sparc-rtems/4.2.4/soft/libgcc.a(_udivdi3.o)
 .debug_aranges
                0x00002d00       0x20 /opt/rtems-4.8-1.1.3/bin/../lib/gcc/sparc-rtems/4.2.4/soft/libgcc.a(_umoddi3.o)
 .debug_aranges
                0x00002d20       0x20 /opt/rtems-4.8-1.1.3/bin/../lib/gcc/sparc-rtems/4.2.4/soft/libgcc.a(_addsub_df.o)
 .debug_aranges
                0x00002d40       0x20 /opt/rtems-4.8-1.1.3/bin/../lib/gcc/sparc-rtems/4.2.4/soft/libgcc.a(_div_df.o)
 .debug_aranges
                0x00002d60       0x20 /opt/rtems-4.8-1.1.3/bin/../lib/gcc/sparc-rtems/4.2.4/soft/libgcc.a(_eq_df.o)
 .debug_aranges
                0x00002d80       0x20 /opt/rtems-4.8-1.1.3/bin/../lib/gcc/sparc-rtems/4.2.4/soft/libgcc.a(_ne_df.o)
 .debug_aranges
                0x00002da0       0x20 /opt/rtems-4.8-1.1.3/bin/../lib/gcc/sparc-rtems/4.2.4/soft/libgcc.a(_gt_df.o)
 .debug_aranges
                0x00002dc0       0x20 /opt/rtems-4.8-1.1.3/bin/../lib/gcc/sparc-rtems/4.2.4/soft/libgcc.a(_ge_df.o)
 .debug_aranges
                0x00002de0       0x20 /opt/rtems-4.8-1.1.3/bin/../lib/gcc/sparc-rtems/4.2.4/soft/libgcc.a(_lt_df.o)
 .debug_aranges
                0x00002e00       0x20 /opt/rtems-4.8-1.1.3/bin/../lib/gcc/sparc-rtems/4.2.4/soft/libgcc.a(_si_to_df.o)
 .debug_aranges
                0x00002e20       0x20 /opt/rtems-4.8-1.1.3/bin/../lib/gcc/sparc-rtems/4.2.4/soft/libgcc.a(_df_to_si.o)
 .debug_aranges
                0x00002e40       0x20 /opt/rtems-4.8-1.1.3/bin/../lib/gcc/sparc-rtems/4.2.4/soft/libgcc.a(_fpcmp_parts_df.o)
 .debug_aranges
                0x00002e60       0x60 /opt/rtems-4.8/sparc-rtems/leon2/lib/librtemsbsp.a(cache.rel)
 .debug_aranges
                0x00002ec0       0x20 /opt/rtems-4.8/sparc-rtems/leon2/lib/librtemscpu.a(libcsupport_a-fstat.o)
 .debug_aranges
                0x00002ee0       0x20 /opt/rtems-4.8/sparc-rtems/leon2/lib/librtemscpu.a(libcsupport_a-getpid.o)
 .debug_aranges
                0x00002f00       0x20 /opt/rtems-4.8/sparc-rtems/leon2/lib/librtemscpu.a(libcsupport_a-isatty.o)
 .debug_aranges
                0x00002f20       0x20 /opt/rtems-4.8/sparc-rtems/leon2/lib/librtemscpu.a(libcsupport_a-lseek.o)
 .debug_aranges
                0x00002f40       0x20 /opt/rtems-4.8/sparc-rtems/leon2/lib/librtemscpu.a(libcsupport_a-read.o)
 .debug_aranges
                0x00002f60       0x20 /opt/rtems-4.8/sparc-rtems/leon2/lib/librtemscpu.a(libcsupport_a-write_r.o)
 .debug_aranges
                0x00002f80       0x20 /opt/rtems-4.8/sparc-rtems/leon2/lib/librtemscpu.a(libposix_a-kill.o)
 .debug_aranges
                0x00002fa0       0x20 /opt/rtems-4.8/sparc-rtems/leon2/lib/librtemscpu.a(libposix_a-killinfo.o)
 .debug_aranges
                0x00002fc0       0x20 /opt/rtems-4.8/sparc-rtems/leon2/lib/librtemscpu.a(libposix_a-psignalsetprocesssignals.o)
 .debug_aranges
                0x00002fe0       0x20 /opt/rtems-4.8/sparc-rtems/leon2/lib/librtemscpu.a(libposix_a-psignalunblockthread.o)
 .debug_aranges
                0x00003000       0x20 /opt/rtems-4.8/sparc-rtems/leon2/lib/librtemscpu.a(libposix_a-pthreadkill.o)
 .debug_aranges
                0x00003020       0x20 /opt/rtems-4.8/sparc-rtems/leon2/lib/librtemscpu.a(libposix_a-pthreadself.o)
 .debug_aranges
                0x00003040       0x20 /opt/rtems-4.8/sparc-rtems/leon2/lib/librtemscpu.a(libposix_a-types.o)
 .debug_aranges
                0x00003060       0x20 /opt/rtems-4.8/sparc-rtems/leon2/lib/librtemscpu.a(libcsupport_a-write.o)

.comment        0x00000000     0x1e72
 .comment       0x00000000       0x12 /opt/rtems-4.8-1.1.3/bin/../lib/gcc/sparc-rtems/4.2.4/crtbegin.o
 .comment       0x00000012       0x12 /home/aitor/workspace/rasta-sw/osal-repo/trunk/samples/misc/soclient.o
 .comment       0x00000024       0x12 libosal_rtems_rastaleon2.a(osapi.o)
 .comment       0x00000036       0x12 libosal_rtems_rastaleon2.a(osmut.o)
 .comment       0x00000048       0x12 libosal_rtems_rastaleon2.a(ostask.o)
 .comment       0x0000005a       0x12 libosal_rtems_rastaleon2.a(rtems-config.o)
 .comment       0x0000006c       0x12 libosal_rtems_rastaleon2.a(osstats.o)
 .comment       0x0000007e       0x12 /opt/libbackport/lib/libbackport_leon2-4.10-4.8.a(ambapp_bus_leon2.o)
 .comment       0x00000090       0x12 /opt/libbackport/lib/libbackport_leon2-4.10-4.8.a(ambapp_bus.o)
 .comment       0x000000a2       0x12 /opt/libbackport/lib/libbackport_leon2-4.10-4.8.a(ambapp_names.o)
 .comment       0x000000b4       0x12 /opt/libbackport/lib/libbackport_leon2-4.10-4.8.a(at697_pci.o)
 .comment       0x000000c6       0x12 /opt/libbackport/lib/libbackport_leon2-4.10-4.8.a(b1553brm.o)
 .comment       0x000000d8       0x12 /opt/libbackport/lib/libbackport_leon2-4.10-4.8.a(drvmgr_drvinf.o)
 .comment       0x000000ea       0x12 /opt/libbackport/lib/libbackport_leon2-4.10-4.8.a(drvmgr.o)
 .comment       0x000000fc       0x12 /opt/libbackport/lib/libbackport_leon2-4.10-4.8.a(drvmgr_print.o)
 .comment       0x0000010e       0x12 /opt/libbackport/lib/libbackport_leon2-4.10-4.8.a(drvmgr_res.o)
 .comment       0x00000120       0x12 /opt/libbackport/lib/libbackport_leon2-4.10-4.8.a(gr_701.o)
 .comment       0x00000132       0x12 /opt/libbackport/lib/libbackport_leon2-4.10-4.8.a(grcan.o)
 .comment       0x00000144       0x12 /opt/libbackport/lib/libbackport_leon2-4.10-4.8.a(grpci.o)
 .comment       0x00000156       0x12 /opt/libbackport/lib/libbackport_leon2-4.10-4.8.a(gr_rasta_adcdac.o)
 .comment       0x00000168       0x12 /opt/libbackport/lib/libbackport_leon2-4.10-4.8.a(gr_rasta_io.o)
 .comment       0x0000017a       0x12 /opt/libbackport/lib/libbackport_leon2-4.10-4.8.a(gr_rasta_tmtc.o)
 .comment       0x0000018c       0x12 /opt/libbackport/lib/libbackport_leon2-4.10-4.8.a(grspw.o)
 .comment       0x0000019e       0x12 /opt/libbackport/lib/libbackport_leon2-4.10-4.8.a(grtc.o)
 .comment       0x000001b0       0x12 /opt/libbackport/lib/libbackport_leon2-4.10-4.8.a(grtm.o)
 .comment       0x000001c2       0x12 /opt/libbackport/lib/libbackport_leon2-4.10-4.8.a(leon2_amba_bus.o)
 .comment       0x000001d4       0x12 /opt/libbackport/lib/libbackport_leon2-4.10-4.8.a(network_interface_add.o)
 .comment       0x000001e6       0x12 /opt/libbackport/lib/libbackport_leon2-4.10-4.8.a(pci_bus.o)
 .comment       0x000001f8       0x12 /opt/libbackport/lib/libbackport_leon2-4.10-4.8.a(pcif.o)
 .comment       0x0000020a       0x12 /opt/libbackport/lib/libbackport_leon2-4.10-4.8.a(pci.o)
 .comment       0x0000021c       0x12 /opt/libbackport/lib/libbackport_leon2-4.10-4.8.a(ambapp_show.o)
 .comment       0x0000022e       0x12 /opt/libbackport/lib/libbackport_leon2-4.10-4.8.a(drvmgr_list.o)
 .comment       0x00000240       0x12 /opt/rtems-4.8-1.1.3/bin/../lib/gcc/sparc-rtems/4.2.4/soft/libgcc.a(_mul_df.o)
 .comment       0x00000252       0x12 /opt/rtems-4.8-1.1.3/bin/../lib/gcc/sparc-rtems/4.2.4/soft/libgcc.a(_thenan_df.o)
 .comment       0x00000264       0x12 /opt/rtems-4.8-1.1.3/bin/../lib/gcc/sparc-rtems/4.2.4/soft/libgcc.a(_usi_to_df.o)
 .comment       0x00000276       0x12 /opt/rtems-4.8-1.1.3/bin/../lib/gcc/sparc-rtems/4.2.4/soft/libgcc.a(_muldi3.o)
 .comment       0x00000288       0x12 /opt/rtems-4.8-1.1.3/bin/../lib/gcc/sparc-rtems/4.2.4/soft/libgcc.a(_clzsi2.o)
 .comment       0x0000029a       0x12 /opt/rtems-4.8-1.1.3/bin/../lib/gcc/sparc-rtems/4.2.4/soft/libgcc.a(_pack_df.o)
 .comment       0x000002ac       0x12 /opt/rtems-4.8-1.1.3/bin/../lib/gcc/sparc-rtems/4.2.4/soft/libgcc.a(_unpack_df.o)
 .comment       0x000002be       0x12 /opt/rtems-4.8-1.1.3/bin/../lib/gcc/sparc-rtems/4.2.4/soft/libgcc.a(_clz.o)
 .comment       0x000002d0       0x24 /opt/rtems-4.8/sparc-rtems/leon2/lib/librtemsbsp.a(amba.rel)
 .comment       0x000002f4       0x12 /opt/rtems-4.8/sparc-rtems/leon2/lib/librtemsbsp.a(clock.rel)
 .comment       0x00000306       0x36 /opt/rtems-4.8/sparc-rtems/leon2/lib/librtemsbsp.a(console.rel)
 .comment       0x0000033c       0x12 /opt/rtems-4.8/sparc-rtems/leon2/lib/librtemsbsp.a(leon_smc91111.rel)
 .comment       0x0000034e       0x12 /opt/rtems-4.8/sparc-rtems/leon2/lib/librtemsbsp.a(libnetchip_a-smc91111.o)
 .comment       0x00000360       0xc6 /opt/rtems-4.8/sparc-rtems/leon2/lib/librtemsbsp.a(startup.rel)
 .comment       0x00000426       0x12 /opt/rtems-4.8/sparc-rtems/leon2/lib/librtemscpu.a(check.o)
 .comment       0x00000438       0x12 /opt/rtems-4.8/sparc-rtems/leon2/lib/librtemscpu.a(ioman.o)
 .comment       0x0000044a       0x12 /opt/rtems-4.8/sparc-rtems/leon2/lib/librtemscpu.a(libc_a-inet_addr.o)
 .comment       0x0000045c       0x12 /opt/rtems-4.8/sparc-rtems/leon2/lib/librtemscpu.a(libc_a-inet_pton.o)
 .comment       0x0000046e       0x12 /opt/rtems-4.8/sparc-rtems/leon2/lib/librtemscpu.a(libc_a-recv.o)
 .comment       0x00000480       0x12 /opt/rtems-4.8/sparc-rtems/leon2/lib/librtemscpu.a(libc_a-send.o)
 .comment       0x00000492       0x12 /opt/rtems-4.8/sparc-rtems/leon2/lib/librtemscpu.a(libcsupport_a-__assert.o)
 .comment       0x000004a4       0x12 /opt/rtems-4.8/sparc-rtems/leon2/lib/librtemscpu.a(libcsupport_a-close.o)
 .comment       0x000004b6       0x12 /opt/rtems-4.8/sparc-rtems/leon2/lib/librtemscpu.a(libcsupport_a-eval.o)
 .comment       0x000004c8       0x12 /opt/rtems-4.8/sparc-rtems/leon2/lib/librtemscpu.a(libcsupport_a-libio.o)
 .comment       0x000004da       0x12 /opt/rtems-4.8/sparc-rtems/leon2/lib/librtemscpu.a(libcsupport_a-libio_init.o)
 .comment       0x000004ec       0x12 /opt/rtems-4.8/sparc-rtems/leon2/lib/librtemscpu.a(libcsupport_a-malloc.o)
 .comment       0x000004fe       0x12 /opt/rtems-4.8/sparc-rtems/leon2/lib/librtemscpu.a(libcsupport_a-mkdir.o)
 .comment       0x00000510       0x12 /opt/rtems-4.8/sparc-rtems/leon2/lib/librtemscpu.a(libcsupport_a-mknod.o)
 .comment       0x00000522       0x12 /opt/rtems-4.8/sparc-rtems/leon2/lib/librtemscpu.a(libcsupport_a-newlibc.o)
 .comment       0x00000534       0x12 /opt/rtems-4.8/sparc-rtems/leon2/lib/librtemscpu.a(libcsupport_a-open_dev_console.o)
 .comment       0x00000546       0x12 /opt/rtems-4.8/sparc-rtems/leon2/lib/librtemscpu.a(libcsupport_a-printk.o)
 .comment       0x00000558       0x12 /opt/rtems-4.8/sparc-rtems/leon2/lib/librtemscpu.a(libcsupport_a-printk_plugin.o)
 .comment       0x0000056a       0x12 /opt/rtems-4.8/sparc-rtems/leon2/lib/librtemscpu.a(libcsupport_a-termios.o)
 .comment       0x0000057c       0x12 /opt/rtems-4.8/sparc-rtems/leon2/lib/librtemscpu.a(libcsupport_a-termiosinitialize.o)
 .comment       0x0000058e       0x12 /opt/rtems-4.8/sparc-rtems/leon2/lib/librtemscpu.a(libnetworking_a-if.o)
 .comment       0x000005a0       0x12 /opt/rtems-4.8/sparc-rtems/leon2/lib/librtemscpu.a(libnetworking_a-if_ethersubr.o)
 .comment       0x000005b2       0x12 /opt/rtems-4.8/sparc-rtems/leon2/lib/librtemscpu.a(libnetworking_a-if_loop.o)
 .comment       0x000005c4       0x12 /opt/rtems-4.8/sparc-rtems/leon2/lib/librtemscpu.a(libnetworking_a-ip_input.o)
 .comment       0x000005d6       0x12 /opt/rtems-4.8/sparc-rtems/leon2/lib/librtemscpu.a(libnetworking_a-ip_mroute.o)
 .comment       0x000005e8       0x12 /opt/rtems-4.8/sparc-rtems/leon2/lib/librtemscpu.a(libnetworking_a-ip_output.o)
 .comment       0x000005fa       0x12 /opt/rtems-4.8/sparc-rtems/leon2/lib/librtemscpu.a(libnetworking_a-kern_mib.o)
 .comment       0x0000060c       0x12 /opt/rtems-4.8/sparc-rtems/leon2/lib/librtemscpu.a(libnetworking_a-kern_sysctl.o)
 .comment       0x0000061e       0x12 /opt/rtems-4.8/sparc-rtems/leon2/lib/librtemscpu.a(libnetworking_a-radix.o)
 .comment       0x00000630       0x12 /opt/rtems-4.8/sparc-rtems/leon2/lib/librtemscpu.a(libnetworking_a-raw_ip.o)
 .comment       0x00000642       0x12 /opt/rtems-4.8/sparc-rtems/leon2/lib/librtemscpu.a(libnetworking_a-route.o)
 .comment       0x00000654       0x12 /opt/rtems-4.8/sparc-rtems/leon2/lib/librtemscpu.a(libnetworking_a-rtems_glue.o)
 .comment       0x00000666       0x12 /opt/rtems-4.8/sparc-rtems/leon2/lib/librtemscpu.a(libnetworking_a-rtems_malloc_mbuf.o)
 .comment       0x00000678       0x12 /opt/rtems-4.8/sparc-rtems/leon2/lib/librtemscpu.a(libnetworking_a-rtems_showifstat.o)
 .comment       0x0000068a       0x12 /opt/rtems-4.8/sparc-rtems/leon2/lib/librtemscpu.a(libnetworking_a-rtems_showroute.o)
 .comment       0x0000069c       0x12 /opt/rtems-4.8/sparc-rtems/leon2/lib/librtemscpu.a(libnetworking_a-rtems_syscall.o)
 .comment       0x000006ae       0x12 /opt/rtems-4.8/sparc-rtems/leon2/lib/librtemscpu.a(libnetworking_a-rtsock.o)
 .comment       0x000006c0       0x12 /opt/rtems-4.8/sparc-rtems/leon2/lib/librtemscpu.a(libnetworking_a-sghostname.o)
 .comment       0x000006d2       0x12 /opt/rtems-4.8/sparc-rtems/leon2/lib/librtemscpu.a(libnetworking_a-uipc_domain.o)
 .comment       0x000006e4       0x12 /opt/rtems-4.8/sparc-rtems/leon2/lib/librtemscpu.a(libnetworking_a-uipc_mbuf.o)
 .comment       0x000006f6       0x12 /opt/rtems-4.8/sparc-rtems/leon2/lib/librtemscpu.a(libnetworking_a-uipc_socket.o)
 .comment       0x00000708       0x12 /opt/rtems-4.8/sparc-rtems/leon2/lib/librtemscpu.a(libnetworking_a-uipc_socket2.o)
 .comment       0x0000071a       0x12 /opt/rtems-4.8/sparc-rtems/leon2/lib/librtemscpu.a(librtems_a-clockget.o)
 .comment       0x0000072c       0x12 /opt/rtems-4.8/sparc-rtems/leon2/lib/librtemscpu.a(librtems_a-clocksetnsecshandler.o)
 .comment       0x0000073e       0x12 /opt/rtems-4.8/sparc-rtems/leon2/lib/librtemscpu.a(librtems_a-clocktick.o)
 .comment       0x00000750       0x12 /opt/rtems-4.8/sparc-rtems/leon2/lib/librtemscpu.a(librtems_a-eventreceive.o)
 .comment       0x00000762       0x12 /opt/rtems-4.8/sparc-rtems/leon2/lib/librtemscpu.a(librtems_a-eventseize.o)
 .comment       0x00000774       0x12 /opt/rtems-4.8/sparc-rtems/leon2/lib/librtemscpu.a(librtems_a-eventsend.o)
 .comment       0x00000786       0x12 /opt/rtems-4.8/sparc-rtems/leon2/lib/librtemscpu.a(librtems_a-eventsurrender.o)
 .comment       0x00000798       0x12 /opt/rtems-4.8/sparc-rtems/leon2/lib/librtemscpu.a(librtems_a-eventtimeout.o)
 .comment       0x000007aa       0x12 /opt/rtems-4.8/sparc-rtems/leon2/lib/librtemscpu.a(librtems_a-intrcatch.o)
 .comment       0x000007bc       0x12 /opt/rtems-4.8/sparc-rtems/leon2/lib/librtemscpu.a(librtems_a-ratemoncreate.o)
 .comment       0x000007ce       0x12 /opt/rtems-4.8/sparc-rtems/leon2/lib/librtemscpu.a(librtems_a-ratemondata.o)
 .comment       0x000007e0       0x12 /opt/rtems-4.8/sparc-rtems/leon2/lib/librtemscpu.a(librtems_a-ratemondelete.o)
 .comment       0x000007f2       0x12 /opt/rtems-4.8/sparc-rtems/leon2/lib/librtemscpu.a(librtems_a-ratemonperiod.o)
 .comment       0x00000804       0x12 /opt/rtems-4.8/sparc-rtems/leon2/lib/librtemscpu.a(librtems_a-ratemontimeout.o)
 .comment       0x00000816       0x12 /opt/rtems-4.8/sparc-rtems/leon2/lib/librtemscpu.a(librtems_a-rtemsobjectgetname.o)
 .comment       0x00000828       0x12 /opt/rtems-4.8/sparc-rtems/leon2/lib/librtemscpu.a(librtems_a-semcreate.o)
 .comment       0x0000083a       0x12 /opt/rtems-4.8/sparc-rtems/leon2/lib/librtemscpu.a(librtems_a-semdata.o)
 .comment       0x0000084c       0x12 /opt/rtems-4.8/sparc-rtems/leon2/lib/librtemscpu.a(librtems_a-semdelete.o)
 .comment       0x0000085e       0x12 /opt/rtems-4.8/sparc-rtems/leon2/lib/librtemscpu.a(librtems_a-semflush.o)
 .comment       0x00000870       0x12 /opt/rtems-4.8/sparc-rtems/leon2/lib/librtemscpu.a(librtems_a-semobtain.o)
 .comment       0x00000882       0x12 /opt/rtems-4.8/sparc-rtems/leon2/lib/librtemscpu.a(librtems_a-semrelease.o)
 .comment       0x00000894       0x12 /opt/rtems-4.8/sparc-rtems/leon2/lib/librtemscpu.a(librtems_a-semtranslatereturncode.o)
 .comment       0x000008a6       0x12 /opt/rtems-4.8/sparc-rtems/leon2/lib/librtemscpu.a(librtems_a-taskcreate.o)
 .comment       0x000008b8       0x12 /opt/rtems-4.8/sparc-rtems/leon2/lib/librtemscpu.a(librtems_a-taskdata.o)
 .comment       0x000008ca       0x12 /opt/rtems-4.8/sparc-rtems/leon2/lib/librtemscpu.a(librtems_a-taskdelete.o)
 .comment       0x000008dc       0x12 /opt/rtems-4.8/sparc-rtems/leon2/lib/librtemscpu.a(librtems_a-taskident.o)
 .comment       0x000008ee       0x12 /opt/rtems-4.8/sparc-rtems/leon2/lib/librtemscpu.a(librtems_a-taskinitusers.o)
 .comment       0x00000900       0x12 /opt/rtems-4.8/sparc-rtems/leon2/lib/librtemscpu.a(librtems_a-taskresume.o)
 .comment       0x00000912       0x12 /opt/rtems-4.8/sparc-rtems/leon2/lib/librtemscpu.a(librtems_a-tasksetpriority.o)
 .comment       0x00000924       0x12 /opt/rtems-4.8/sparc-rtems/leon2/lib/librtemscpu.a(librtems_a-taskstart.o)
 .comment       0x00000936       0x12 /opt/rtems-4.8/sparc-rtems/leon2/lib/librtemscpu.a(librtems_a-tasksuspend.o)
 .comment       0x00000948       0x12 /opt/rtems-4.8/sparc-rtems/leon2/lib/librtemscpu.a(librtems_a-taskvariableadd.o)
 .comment       0x0000095a       0x12 /opt/rtems-4.8/sparc-rtems/leon2/lib/librtemscpu.a(librtems_a-taskwakeafter.o)
 .comment       0x0000096c       0x12 /opt/rtems-4.8/sparc-rtems/leon2/lib/librtemscpu.a(libsapi_a-exinit.o)
 .comment       0x0000097e       0x12 /opt/rtems-4.8/sparc-rtems/leon2/lib/librtemscpu.a(libsapi_a-extension.o)
 .comment       0x00000990       0x12 /opt/rtems-4.8/sparc-rtems/leon2/lib/librtemscpu.a(libsapi_a-extensiondata.o)
 .comment       0x000009a2       0x12 /opt/rtems-4.8/sparc-rtems/leon2/lib/librtemscpu.a(libsapi_a-fatal.o)
 .comment       0x000009b4       0x12 /opt/rtems-4.8/sparc-rtems/leon2/lib/librtemscpu.a(libsapi_a-getversionstring.o)
 .comment       0x000009c6       0x12 /opt/rtems-4.8/sparc-rtems/leon2/lib/librtemscpu.a(libsapi_a-io.o)
 .comment       0x000009d8       0x12 /opt/rtems-4.8/sparc-rtems/leon2/lib/librtemscpu.a(libsapi_a-iodata.o)
 .comment       0x000009ea       0x12 /opt/rtems-4.8/sparc-rtems/leon2/lib/librtemscpu.a(libsapi_a-ioinitialize.o)
 .comment       0x000009fc       0x12 /opt/rtems-4.8/sparc-rtems/leon2/lib/librtemscpu.a(libsapi_a-ioregisterdriver.o)
 .comment       0x00000a0e       0x12 /opt/rtems-4.8/sparc-rtems/leon2/lib/librtemscpu.a(libsapi_a-posixapi.o)
 .comment       0x00000a20       0x12 /opt/rtems-4.8/sparc-rtems/leon2/lib/librtemscpu.a(libsapi_a-rtemsapi.o)
 .comment       0x00000a32       0x12 /opt/rtems-4.8/sparc-rtems/leon2/lib/librtemscpu.a(libscore_a-apiext.o)
 .comment       0x00000a44       0x12 /opt/rtems-4.8/sparc-rtems/leon2/lib/librtemscpu.a(libscore_a-chainappend.o)
 .comment       0x00000a56       0x12 /opt/rtems-4.8/sparc-rtems/leon2/lib/librtemscpu.a(libscore_a-chainget.o)
 .comment       0x00000a68       0x12 /opt/rtems-4.8/sparc-rtems/leon2/lib/librtemscpu.a(libscore_a-coremutex.o)
 .comment       0x00000a7a       0x12 /opt/rtems-4.8/sparc-rtems/leon2/lib/librtemscpu.a(libscore_a-coremutexflush.o)
 .comment       0x00000a8c       0x12 /opt/rtems-4.8/sparc-rtems/leon2/lib/librtemscpu.a(libscore_a-coremutexseize.o)
 .comment       0x00000a9e       0x12 /opt/rtems-4.8/sparc-rtems/leon2/lib/librtemscpu.a(libscore_a-coremutexsurrender.o)
 .comment       0x00000ab0       0x12 /opt/rtems-4.8/sparc-rtems/leon2/lib/librtemscpu.a(libscore_a-coresem.o)
 .comment       0x00000ac2       0x12 /opt/rtems-4.8/sparc-rtems/leon2/lib/librtemscpu.a(libscore_a-coresemflush.o)
 .comment       0x00000ad4       0x12 /opt/rtems-4.8/sparc-rtems/leon2/lib/librtemscpu.a(libscore_a-coresemsurrender.o)
 .comment       0x00000ae6       0x12 /opt/rtems-4.8/sparc-rtems/leon2/lib/librtemscpu.a(libscore_a-coretod.o)
 .comment       0x00000af8       0x12 /opt/rtems-4.8/sparc-rtems/leon2/lib/librtemscpu.a(libscore_a-coretodget.o)
 .comment       0x00000b0a       0x12 /opt/rtems-4.8/sparc-rtems/leon2/lib/librtemscpu.a(libscore_a-coretodgetuptime.o)
 .comment       0x00000b1c       0x12 /opt/rtems-4.8/sparc-rtems/leon2/lib/librtemscpu.a(libscore_a-coretodtickle.o)
 .comment       0x00000b2e       0x12 /opt/rtems-4.8/sparc-rtems/leon2/lib/librtemscpu.a(libscore_a-heap.o)
 .comment       0x00000b40       0x12 /opt/rtems-4.8/sparc-rtems/leon2/lib/librtemscpu.a(libscore_a-heapallocate.o)
 .comment       0x00000b52       0x12 /opt/rtems-4.8/sparc-rtems/leon2/lib/librtemscpu.a(libscore_a-heapfree.o)
 .comment       0x00000b64       0x12 /opt/rtems-4.8/sparc-rtems/leon2/lib/librtemscpu.a(libscore_a-interr.o)
 .comment       0x00000b76       0x12 /opt/rtems-4.8/sparc-rtems/leon2/lib/librtemscpu.a(libscore_a-isr.o)
 .comment       0x00000b88       0x12 /opt/rtems-4.8/sparc-rtems/leon2/lib/librtemscpu.a(libscore_a-iterateoverthreads.o)
 .comment       0x00000b9a       0x12 /opt/rtems-4.8/sparc-rtems/leon2/lib/librtemscpu.a(libscore_a-object.o)
 .comment       0x00000bac       0x12 /opt/rtems-4.8/sparc-rtems/leon2/lib/librtemscpu.a(libscore_a-objectallocate.o)
 .comment       0x00000bbe       0x12 /opt/rtems-4.8/sparc-rtems/leon2/lib/librtemscpu.a(libscore_a-objectextendinformation.o)
 .comment       0x00000bd0       0x12 /opt/rtems-4.8/sparc-rtems/leon2/lib/librtemscpu.a(libscore_a-objectfree.o)
 .comment       0x00000be2       0x12 /opt/rtems-4.8/sparc-rtems/leon2/lib/librtemscpu.a(libscore_a-objectget.o)
 .comment       0x00000bf4       0x12 /opt/rtems-4.8/sparc-rtems/leon2/lib/librtemscpu.a(libscore_a-objectgetisr.o)
 .comment       0x00000c06       0x12 /opt/rtems-4.8/sparc-rtems/leon2/lib/librtemscpu.a(libscore_a-objectgetnameasstring.o)
 .comment       0x00000c18       0x12 /opt/rtems-4.8/sparc-rtems/leon2/lib/librtemscpu.a(libscore_a-objectinitializeinformation.o)
 .comment       0x00000c2a       0x12 /opt/rtems-4.8/sparc-rtems/leon2/lib/librtemscpu.a(libscore_a-objectnametoid.o)
 .comment       0x00000c3c       0x12 /opt/rtems-4.8/sparc-rtems/leon2/lib/librtemscpu.a(libscore_a-objectshrinkinformation.o)
 .comment       0x00000c4e       0x12 /opt/rtems-4.8/sparc-rtems/leon2/lib/librtemscpu.a(libscore_a-pheapallocate.o)
 .comment       0x00000c60       0x12 /opt/rtems-4.8/sparc-rtems/leon2/lib/librtemscpu.a(libscore_a-pheapextend.o)
 .comment       0x00000c72       0x12 /opt/rtems-4.8/sparc-rtems/leon2/lib/librtemscpu.a(libscore_a-pheapfree.o)
 .comment       0x00000c84       0x12 /opt/rtems-4.8/sparc-rtems/leon2/lib/librtemscpu.a(libscore_a-pheapgetblocksize.o)
 .comment       0x00000c96       0x12 /opt/rtems-4.8/sparc-rtems/leon2/lib/librtemscpu.a(libscore_a-pheapresizeblock.o)
 .comment       0x00000ca8       0x12 /opt/rtems-4.8/sparc-rtems/leon2/lib/librtemscpu.a(libscore_a-thread.o)
 .comment       0x00000cba       0x12 /opt/rtems-4.8/sparc-rtems/leon2/lib/librtemscpu.a(libscore_a-threadchangepriority.o)
 .comment       0x00000ccc       0x12 /opt/rtems-4.8/sparc-rtems/leon2/lib/librtemscpu.a(libscore_a-threadclearstate.o)
 .comment       0x00000cde       0x12 /opt/rtems-4.8/sparc-rtems/leon2/lib/librtemscpu.a(libscore_a-threadclose.o)
 .comment       0x00000cf0       0x12 /opt/rtems-4.8/sparc-rtems/leon2/lib/librtemscpu.a(libscore_a-threadcreateidle.o)
 .comment       0x00000d02       0x12 /opt/rtems-4.8/sparc-rtems/leon2/lib/librtemscpu.a(libscore_a-threaddelayended.o)
 .comment       0x00000d14       0x12 /opt/rtems-4.8/sparc-rtems/leon2/lib/librtemscpu.a(libscore_a-threaddispatch.o)
 .comment       0x00000d26       0x12 /opt/rtems-4.8/sparc-rtems/leon2/lib/librtemscpu.a(libscore_a-threadidlebody.o)
 .comment       0x00000d38       0x12 /opt/rtems-4.8/sparc-rtems/leon2/lib/librtemscpu.a(libscore_a-threadinitialize.o)
 .comment       0x00000d4a       0x12 /opt/rtems-4.8/sparc-rtems/leon2/lib/librtemscpu.a(libscore_a-threadq.o)
 .comment       0x00000d5c       0x12 /opt/rtems-4.8/sparc-rtems/leon2/lib/librtemscpu.a(libscore_a-threadqdequeue.o)
 .comment       0x00000d6e       0x12 /opt/rtems-4.8/sparc-rtems/leon2/lib/librtemscpu.a(libscore_a-threadqdequeuefifo.o)
 .comment       0x00000d80       0x12 /opt/rtems-4.8/sparc-rtems/leon2/lib/librtemscpu.a(libscore_a-threadqdequeuepriority.o)
 .comment       0x00000d92       0x12 /opt/rtems-4.8/sparc-rtems/leon2/lib/librtemscpu.a(libscore_a-threadqenqueue.o)
 .comment       0x00000da4       0x12 /opt/rtems-4.8/sparc-rtems/leon2/lib/librtemscpu.a(libscore_a-threadqenqueuefifo.o)
 .comment       0x00000db6       0x12 /opt/rtems-4.8/sparc-rtems/leon2/lib/librtemscpu.a(libscore_a-threadqenqueuepriority.o)
 .comment       0x00000dc8       0x12 /opt/rtems-4.8/sparc-rtems/leon2/lib/librtemscpu.a(libscore_a-threadqextractwithproxy.o)
 .comment       0x00000dda       0x12 /opt/rtems-4.8/sparc-rtems/leon2/lib/librtemscpu.a(libscore_a-threadqflush.o)
 .comment       0x00000dec       0x12 /opt/rtems-4.8/sparc-rtems/leon2/lib/librtemscpu.a(libscore_a-threadqrequeue.o)
 .comment       0x00000dfe       0x12 /opt/rtems-4.8/sparc-rtems/leon2/lib/librtemscpu.a(libscore_a-threadqtimeout.o)
 .comment       0x00000e10       0x12 /opt/rtems-4.8/sparc-rtems/leon2/lib/librtemscpu.a(libscore_a-threadresume.o)
 .comment       0x00000e22       0x12 /opt/rtems-4.8/sparc-rtems/leon2/lib/librtemscpu.a(libscore_a-threadsetpriority.o)
 .comment       0x00000e34       0x12 /opt/rtems-4.8/sparc-rtems/leon2/lib/librtemscpu.a(libscore_a-threadsetstate.o)
 .comment       0x00000e46       0x12 /opt/rtems-4.8/sparc-rtems/leon2/lib/librtemscpu.a(libscore_a-threadsettransient.o)
 .comment       0x00000e58       0x12 /opt/rtems-4.8/sparc-rtems/leon2/lib/librtemscpu.a(libscore_a-threadstackallocate.o)
 .comment       0x00000e6a       0x12 /opt/rtems-4.8/sparc-rtems/leon2/lib/librtemscpu.a(libscore_a-threadstackfree.o)
 .comment       0x00000e7c       0x12 /opt/rtems-4.8/sparc-rtems/leon2/lib/librtemscpu.a(libscore_a-threadstart.o)
 .comment       0x00000e8e       0x12 /opt/rtems-4.8/sparc-rtems/leon2/lib/librtemscpu.a(libscore_a-threadstartmultitasking.o)
 .comment       0x00000ea0       0x12 /opt/rtems-4.8/sparc-rtems/leon2/lib/librtemscpu.a(libscore_a-threadsuspend.o)
 .comment       0x00000eb2       0x12 /opt/rtems-4.8/sparc-rtems/leon2/lib/librtemscpu.a(libscore_a-threadtickletimeslice.o)
 .comment       0x00000ec4       0x12 /opt/rtems-4.8/sparc-rtems/leon2/lib/librtemscpu.a(libscore_a-threadyieldprocessor.o)
 .comment       0x00000ed6       0x12 /opt/rtems-4.8/sparc-rtems/leon2/lib/librtemscpu.a(libscore_a-timespecaddto.o)
 .comment       0x00000ee8       0x12 /opt/rtems-4.8/sparc-rtems/leon2/lib/librtemscpu.a(libscore_a-timespecgreaterthan.o)
 .comment       0x00000efa       0x12 /opt/rtems-4.8/sparc-rtems/leon2/lib/librtemscpu.a(libscore_a-timespeclessthan.o)
 .comment       0x00000f0c       0x12 /opt/rtems-4.8/sparc-rtems/leon2/lib/librtemscpu.a(libscore_a-timespecsubtract.o)
 .comment       0x00000f1e       0x12 /opt/rtems-4.8/sparc-rtems/leon2/lib/librtemscpu.a(libscore_a-userext.o)
 .comment       0x00000f30       0x12 /opt/rtems-4.8/sparc-rtems/leon2/lib/librtemscpu.a(libscore_a-userextaddset.o)
 .comment       0x00000f42       0x12 /opt/rtems-4.8/sparc-rtems/leon2/lib/librtemscpu.a(libscore_a-userextthreadbegin.o)
 .comment       0x00000f54       0x12 /opt/rtems-4.8/sparc-rtems/leon2/lib/librtemscpu.a(libscore_a-userextthreadcreate.o)
 .comment       0x00000f66       0x12 /opt/rtems-4.8/sparc-rtems/leon2/lib/librtemscpu.a(libscore_a-userextthreaddelete.o)
 .comment       0x00000f78       0x12 /opt/rtems-4.8/sparc-rtems/leon2/lib/librtemscpu.a(libscore_a-userextthreadstart.o)
 .comment       0x00000f8a       0x12 /opt/rtems-4.8/sparc-rtems/leon2/lib/librtemscpu.a(libscore_a-userextthreadswitch.o)
 .comment       0x00000f9c       0x12 /opt/rtems-4.8/sparc-rtems/leon2/lib/librtemscpu.a(libscore_a-watchdog.o)
 .comment       0x00000fae       0x12 /opt/rtems-4.8/sparc-rtems/leon2/lib/librtemscpu.a(libscore_a-watchdoginsert.o)
 .comment       0x00000fc0       0x12 /opt/rtems-4.8/sparc-rtems/leon2/lib/librtemscpu.a(libscore_a-watchdogremove.o)
 .comment       0x00000fd2       0x12 /opt/rtems-4.8/sparc-rtems/leon2/lib/librtemscpu.a(libscore_a-watchdogtickle.o)
 .comment       0x00000fe4       0x12 /opt/rtems-4.8/sparc-rtems/leon2/lib/librtemscpu.a(libscore_a-wkspace.o)
 .comment       0x00000ff6       0x12 /opt/rtems-4.8/sparc-rtems/leon2/lib/librtemscpu.a(libscorecpu_a-cpu.o)
 .comment       0x00001008       0x12 /opt/rtems-4.8/sparc-rtems/leon2/lib/librtemscpu.a(miniimfs_init.o)
 .comment       0x0000101a       0x12 /opt/rtems-4.8/sparc-rtems/leon2/lib/librtemscpu.a(imfs_eval.o)
 .comment       0x0000102c       0x12 /opt/rtems-4.8/sparc-rtems/leon2/lib/librtemscpu.a(imfs_getchild.o)
 .comment       0x0000103e       0x12 /opt/rtems-4.8/sparc-rtems/leon2/lib/librtemscpu.a(imfs_gtkn.o)
 .comment       0x00001050       0x12 /opt/rtems-4.8/sparc-rtems/leon2/lib/librtemscpu.a(imfs_handlers_device.o)
 .comment       0x00001062       0x12 /opt/rtems-4.8/sparc-rtems/leon2/lib/librtemscpu.a(imfs_handlers_link.o)
 .comment       0x00001074       0x12 /opt/rtems-4.8/sparc-rtems/leon2/lib/librtemscpu.a(imfs_initsupp.o)
 .comment       0x00001086       0x12 /opt/rtems-4.8/sparc-rtems/leon2/lib/librtemscpu.a(imfs_mknod.o)
 .comment       0x00001098       0x12 /opt/rtems-4.8/sparc-rtems/leon2/lib/librtemscpu.a(imfs_ntype.o)
 .comment       0x000010aa       0x12 /opt/rtems-4.8/sparc-rtems/leon2/lib/librtemscpu.a(imfs_rmnod.o)
 .comment       0x000010bc       0x12 /opt/rtems-4.8/sparc-rtems/leon2/lib/librtemscpu.a(imfs_stat.o)
 .comment       0x000010ce       0x12 /opt/rtems-4.8/sparc-rtems/leon2/lib/librtemscpu.a(libc_a-inet_ntoa.o)
 .comment       0x000010e0       0x12 /opt/rtems-4.8/sparc-rtems/leon2/lib/librtemscpu.a(libc_a-inet_ntop.o)
 .comment       0x000010f2       0x12 /opt/rtems-4.8/sparc-rtems/leon2/lib/librtemscpu.a(libcsupport_a-__gettod.o)
 .comment       0x00001104       0x12 /opt/rtems-4.8/sparc-rtems/leon2/lib/librtemscpu.a(libcsupport_a-assoclocalbyremote.o)
 .comment       0x00001116       0x12 /opt/rtems-4.8/sparc-rtems/leon2/lib/librtemscpu.a(libcsupport_a-assoclocalbyremotebitfield.o)
 .comment       0x00001128       0x12 /opt/rtems-4.8/sparc-rtems/leon2/lib/librtemscpu.a(libcsupport_a-assocptrbyremote.o)
 .comment       0x0000113a       0x12 /opt/rtems-4.8/sparc-rtems/leon2/lib/librtemscpu.a(libcsupport_a-base_fs.o)
 .comment       0x0000114c       0x12 /opt/rtems-4.8/sparc-rtems/leon2/lib/librtemscpu.a(libcsupport_a-error.o)
 .comment       0x0000115e       0x12 /opt/rtems-4.8/sparc-rtems/leon2/lib/librtemscpu.a(libcsupport_a-fs_null_handlers.o)
 .comment       0x00001170       0x12 /opt/rtems-4.8/sparc-rtems/leon2/lib/librtemscpu.a(libcsupport_a-getegid.o)
 .comment       0x00001182       0x12 /opt/rtems-4.8/sparc-rtems/leon2/lib/librtemscpu.a(libcsupport_a-geteuid.o)
 .comment       0x00001194       0x12 /opt/rtems-4.8/sparc-rtems/leon2/lib/librtemscpu.a(libcsupport_a-ioctl.o)
 .comment       0x000011a6       0x12 /opt/rtems-4.8/sparc-rtems/leon2/lib/librtemscpu.a(libcsupport_a-libio_sockets.o)
 .comment       0x000011b8       0x12 /opt/rtems-4.8/sparc-rtems/leon2/lib/librtemscpu.a(libcsupport_a-mount.o)
 .comment       0x000011ca       0x12 /opt/rtems-4.8/sparc-rtems/leon2/lib/librtemscpu.a(libcsupport_a-newlibc_exit.o)
 .comment       0x000011dc       0x12 /opt/rtems-4.8/sparc-rtems/leon2/lib/librtemscpu.a(libcsupport_a-open.o)
 .comment       0x000011ee       0x12 /opt/rtems-4.8/sparc-rtems/leon2/lib/librtemscpu.a(libnetworking_a-if_ether.o)
 .comment       0x00001200       0x12 /opt/rtems-4.8/sparc-rtems/leon2/lib/librtemscpu.a(libnetworking_a-in.o)
 .comment       0x00001212       0x12 /opt/rtems-4.8/sparc-rtems/leon2/lib/librtemscpu.a(libnetworking_a-in_cksum.o)
 .comment       0x00001224       0x12 /opt/rtems-4.8/sparc-rtems/leon2/lib/librtemscpu.a(libnetworking_a-in_pcb.o)
 .comment       0x00001236       0x12 /opt/rtems-4.8/sparc-rtems/leon2/lib/librtemscpu.a(libnetworking_a-in_proto.o)
 .comment       0x00001248       0x12 /opt/rtems-4.8/sparc-rtems/leon2/lib/librtemscpu.a(libnetworking_a-in_rmx.o)
 .comment       0x0000125a       0x12 /opt/rtems-4.8/sparc-rtems/leon2/lib/librtemscpu.a(libnetworking_a-ip_icmp.o)
 .comment       0x0000126c       0x12 /opt/rtems-4.8/sparc-rtems/leon2/lib/librtemscpu.a(libnetworking_a-kern_subr.o)
 .comment       0x0000127e       0x12 /opt/rtems-4.8/sparc-rtems/leon2/lib/librtemscpu.a(libnetworking_a-raw_usrreq.o)
 .comment       0x00001290       0x12 /opt/rtems-4.8/sparc-rtems/leon2/lib/librtemscpu.a(libnetworking_a-rtems_bsdnet_malloc_starvation.o)
 .comment       0x000012a2       0x12 /opt/rtems-4.8/sparc-rtems/leon2/lib/librtemscpu.a(libnetworking_a-tcp_input.o)
 .comment       0x000012b4       0x12 /opt/rtems-4.8/sparc-rtems/leon2/lib/librtemscpu.a(libnetworking_a-tcp_output.o)
 .comment       0x000012c6       0x12 /opt/rtems-4.8/sparc-rtems/leon2/lib/librtemscpu.a(libnetworking_a-tcp_subr.o)
 .comment       0x000012d8       0x12 /opt/rtems-4.8/sparc-rtems/leon2/lib/librtemscpu.a(libnetworking_a-tcp_timer.o)
 .comment       0x000012ea       0x12 /opt/rtems-4.8/sparc-rtems/leon2/lib/librtemscpu.a(libnetworking_a-tcp_usrreq.o)
 .comment       0x000012fc       0x12 /opt/rtems-4.8/sparc-rtems/leon2/lib/librtemscpu.a(libnetworking_a-udp_usrreq.o)
 .comment       0x0000130e       0x12 /opt/rtems-4.8/sparc-rtems/leon2/lib/librtemscpu.a(libposix_a-cond.o)
 .comment       0x00001320       0x12 /opt/rtems-4.8/sparc-rtems/leon2/lib/librtemscpu.a(libposix_a-key.o)
 .comment       0x00001332       0x12 /opt/rtems-4.8/sparc-rtems/leon2/lib/librtemscpu.a(libposix_a-mqueue.o)
 .comment       0x00001344       0x12 /opt/rtems-4.8/sparc-rtems/leon2/lib/librtemscpu.a(libposix_a-mutex.o)
 .comment       0x00001356       0x12 /opt/rtems-4.8/sparc-rtems/leon2/lib/librtemscpu.a(libposix_a-pbarrier.o)
 .comment       0x00001368       0x12 /opt/rtems-4.8/sparc-rtems/leon2/lib/librtemscpu.a(libposix_a-prwlock.o)
 .comment       0x0000137a       0x12 /opt/rtems-4.8/sparc-rtems/leon2/lib/librtemscpu.a(libposix_a-psignal.o)
 .comment       0x0000138c       0x12 /opt/rtems-4.8/sparc-rtems/leon2/lib/librtemscpu.a(libposix_a-psignalchecksignal.o)
 .comment       0x0000139e       0x12 /opt/rtems-4.8/sparc-rtems/leon2/lib/librtemscpu.a(libposix_a-psignalclearsignals.o)
 .comment       0x000013b0       0x12 /opt/rtems-4.8/sparc-rtems/leon2/lib/librtemscpu.a(libposix_a-pspin.o)
 .comment       0x000013c2       0x12 /opt/rtems-4.8/sparc-rtems/leon2/lib/librtemscpu.a(libposix_a-pthread.o)
 .comment       0x000013d4       0x12 /opt/rtems-4.8/sparc-rtems/leon2/lib/librtemscpu.a(libposix_a-pthreadexit.o)
 .comment       0x000013e6       0x12 /opt/rtems-4.8/sparc-rtems/leon2/lib/librtemscpu.a(libposix_a-ptimer.o)
 .comment       0x000013f8       0x12 /opt/rtems-4.8/sparc-rtems/leon2/lib/librtemscpu.a(libposix_a-semaphore.o)
 .comment       0x0000140a       0x12 /opt/rtems-4.8/sparc-rtems/leon2/lib/librtemscpu.a(libposix_a-sigemptyset.o)
 .comment       0x0000141c       0x12 /opt/rtems-4.8/sparc-rtems/leon2/lib/librtemscpu.a(librtems_a-barrier.o)
 .comment       0x0000142e       0x12 /opt/rtems-4.8/sparc-rtems/leon2/lib/librtemscpu.a(librtems_a-barrierdata.o)
 .comment       0x00001440       0x12 /opt/rtems-4.8/sparc-rtems/leon2/lib/librtemscpu.a(librtems_a-dpmem.o)
 .comment       0x00001452       0x12 /opt/rtems-4.8/sparc-rtems/leon2/lib/librtemscpu.a(librtems_a-dpmemdata.o)
 .comment       0x00001464       0x12 /opt/rtems-4.8/sparc-rtems/leon2/lib/librtemscpu.a(librtems_a-event.o)
 .comment       0x00001476       0x12 /opt/rtems-4.8/sparc-rtems/leon2/lib/librtemscpu.a(librtems_a-eventdata.o)
 .comment       0x00001488       0x12 /opt/rtems-4.8/sparc-rtems/leon2/lib/librtemscpu.a(librtems_a-intr.o)
 .comment       0x0000149a       0x12 /opt/rtems-4.8/sparc-rtems/leon2/lib/librtemscpu.a(librtems_a-msg.o)
 .comment       0x000014ac       0x12 /opt/rtems-4.8/sparc-rtems/leon2/lib/librtemscpu.a(librtems_a-msgdata.o)
 .comment       0x000014be       0x12 /opt/rtems-4.8/sparc-rtems/leon2/lib/librtemscpu.a(librtems_a-part.o)
 .comment       0x000014d0       0x12 /opt/rtems-4.8/sparc-rtems/leon2/lib/librtemscpu.a(librtems_a-partdata.o)
 .comment       0x000014e2       0x12 /opt/rtems-4.8/sparc-rtems/leon2/lib/librtemscpu.a(librtems_a-ratemon.o)
 .comment       0x000014f4       0x12 /opt/rtems-4.8/sparc-rtems/leon2/lib/librtemscpu.a(librtems_a-region.o)
 .comment       0x00001506       0x12 /opt/rtems-4.8/sparc-rtems/leon2/lib/librtemscpu.a(librtems_a-regiondata.o)
 .comment       0x00001518       0x12 /opt/rtems-4.8/sparc-rtems/leon2/lib/librtemscpu.a(librtems_a-rtemstimer.o)
 .comment       0x0000152a       0x12 /opt/rtems-4.8/sparc-rtems/leon2/lib/librtemscpu.a(librtems_a-rtemstimerdata.o)
 .comment       0x0000153c       0x12 /opt/rtems-4.8/sparc-rtems/leon2/lib/librtemscpu.a(librtems_a-sem.o)
 .comment       0x0000154e       0x12 /opt/rtems-4.8/sparc-rtems/leon2/lib/librtemscpu.a(librtems_a-signal.o)
 .comment       0x00001560       0x12 /opt/rtems-4.8/sparc-rtems/leon2/lib/librtemscpu.a(librtems_a-tasks.o)
 .comment       0x00001572       0x12 /opt/rtems-4.8/sparc-rtems/leon2/lib/librtemscpu.a(libsapi_a-debug.o)
 .comment       0x00001584       0x12 /opt/rtems-4.8/sparc-rtems/leon2/lib/librtemscpu.a(libsapi_a-exshutdown.o)
 .comment       0x00001596       0x12 /opt/rtems-4.8/sparc-rtems/leon2/lib/librtemscpu.a(libscore_a-chain.o)
 .comment       0x000015a8       0x12 /opt/rtems-4.8/sparc-rtems/leon2/lib/librtemscpu.a(libscore_a-chainextract.o)
 .comment       0x000015ba       0x12 /opt/rtems-4.8/sparc-rtems/leon2/lib/librtemscpu.a(libscore_a-heapextend.o)
 .comment       0x000015cc       0x12 /opt/rtems-4.8/sparc-rtems/leon2/lib/librtemscpu.a(libscore_a-heapresizeblock.o)
 .comment       0x000015de       0x12 /opt/rtems-4.8/sparc-rtems/leon2/lib/librtemscpu.a(libscore_a-heapsizeofuserarea.o)
 .comment       0x000015f0       0x12 /opt/rtems-4.8/sparc-rtems/leon2/lib/librtemscpu.a(libscore_a-objectcomparenameraw.o)
 .comment       0x00001602       0x12 /opt/rtems-4.8/sparc-rtems/leon2/lib/librtemscpu.a(libscore_a-objectcomparenamestring.o)
 .comment       0x00001614       0x12 /opt/rtems-4.8/sparc-rtems/leon2/lib/librtemscpu.a(libscore_a-threadloadenv.o)
 .comment       0x00001626       0x12 /opt/rtems-4.8/sparc-rtems/leon2/lib/librtemscpu.a(libscore_a-threadqextract.o)
 .comment       0x00001638       0x12 /opt/rtems-4.8/sparc-rtems/leon2/lib/librtemscpu.a(libscore_a-threadqextractfifo.o)
 .comment       0x0000164a       0x12 /opt/rtems-4.8/sparc-rtems/leon2/lib/librtemscpu.a(libscore_a-threadqextractpriority.o)
 .comment       0x0000165c       0x12 /opt/rtems-4.8/sparc-rtems/leon2/lib/librtemscpu.a(libscore_a-threadready.o)
 .comment       0x0000166e       0x12 /opt/rtems-4.8/sparc-rtems/leon2/lib/librtemscpu.a(libscore_a-threadresettimeslice.o)
 .comment       0x00001680       0x12 /opt/rtems-4.8/sparc-rtems/leon2/lib/librtemscpu.a(libscore_a-timespectoticks.o)
 .comment       0x00001692       0x12 /opt/rtems-4.8/sparc-rtems/leon2/lib/librtemscpu.a(libscore_a-userextaddapiset.o)
 .comment       0x000016a4       0x12 /opt/rtems-4.8/sparc-rtems/leon2/lib/librtemscpu.a(deviceio.o)
 .comment       0x000016b6       0x12 /opt/rtems-4.8/sparc-rtems/leon2/lib/librtemscpu.a(imfs_config.o)
 .comment       0x000016c8       0x12 /opt/rtems-4.8/sparc-rtems/leon2/lib/librtemscpu.a(imfs_creat.o)
 .comment       0x000016da       0x12 /opt/rtems-4.8/sparc-rtems/leon2/lib/librtemscpu.a(imfs_fchmod.o)
 .comment       0x000016ec       0x12 /opt/rtems-4.8/sparc-rtems/leon2/lib/librtemscpu.a(libcsupport_a-assocnamebylocal.o)
 .comment       0x000016fe       0x12 /opt/rtems-4.8/sparc-rtems/leon2/lib/librtemscpu.a(libcsupport_a-assocptrbylocal.o)
 .comment       0x00001710       0x12 /opt/rtems-4.8/sparc-rtems/leon2/lib/librtemscpu.a(libcsupport_a-assocremotebylocal.o)
 .comment       0x00001722       0x12 /opt/rtems-4.8/sparc-rtems/leon2/lib/librtemscpu.a(libcsupport_a-ftruncate.o)
 .comment       0x00001734       0x12 /opt/rtems-4.8/sparc-rtems/leon2/lib/librtemscpu.a(libnetworking_a-igmp.o)
 .comment       0x00001746       0x12 /opt/rtems-4.8/sparc-rtems/leon2/lib/librtemscpu.a(libnetworking_a-raw_cb.o)
 .comment       0x00001758       0x12 /opt/rtems-4.8/sparc-rtems/leon2/lib/librtemscpu.a(libposix_a-keyrundestructors.o)
 .comment       0x0000176a       0x12 /opt/rtems-4.8/sparc-rtems/leon2/lib/librtemscpu.a(libposix_a-psignalclearprocesssignals.o)
 .comment       0x0000177c       0x12 /opt/rtems-4.8/sparc-rtems/leon2/lib/librtemscpu.a(librtems_a-taskmode.o)
 .comment       0x0000178e       0x12 /opt/rtems-4.8/sparc-rtems/leon2/lib/librtemscpu.a(libsapi_a-ioclose.o)
 .comment       0x000017a0       0x12 /opt/rtems-4.8/sparc-rtems/leon2/lib/librtemscpu.a(libsapi_a-iocontrol.o)
 .comment       0x000017b2       0x12 /opt/rtems-4.8/sparc-rtems/leon2/lib/librtemscpu.a(libsapi_a-ioopen.o)
 .comment       0x000017c4       0x12 /opt/rtems-4.8/sparc-rtems/leon2/lib/librtemscpu.a(libsapi_a-ioread.o)
 .comment       0x000017d6       0x12 /opt/rtems-4.8/sparc-rtems/leon2/lib/librtemscpu.a(libsapi_a-iowrite.o)
 .comment       0x000017e8       0x12 /opt/rtems-4.8/sparc-rtems/leon2/lib/librtemscpu.a(libscore_a-threadevaluatemode.o)
 .comment       0x000017fa       0x12 /opt/rtems-4.8/sparc-rtems/leon2/lib/librtemscpu.a(libscore_a-threadhandler.o)
 .comment       0x0000180c       0x12 /opt/rtems-4.8/sparc-rtems/leon2/lib/librtemscpu.a(libcsupport_a-assocnamebad.o)
 .comment       0x0000181e       0x12 /opt/rtems-4.8-1.1.3/bin/../lib/gcc/sparc-rtems/4.2.4/../../../../sparc-rtems/lib/soft/libc.a(lib_a-abort.o)
 .comment       0x00001830       0x12 /opt/rtems-4.8-1.1.3/bin/../lib/gcc/sparc-rtems/4.2.4/../../../../sparc-rtems/lib/soft/libc.a(lib_a-atexit.o)
 .comment       0x00001842       0x12 /opt/rtems-4.8-1.1.3/bin/../lib/gcc/sparc-rtems/4.2.4/../../../../sparc-rtems/lib/soft/libc.a(lib_a-bcmp.o)
 .comment       0x00001854       0x12 /opt/rtems-4.8-1.1.3/bin/../lib/gcc/sparc-rtems/4.2.4/../../../../sparc-rtems/lib/soft/libc.a(lib_a-ctype_.o)
 .comment       0x00001866       0x12 /opt/rtems-4.8-1.1.3/bin/../lib/gcc/sparc-rtems/4.2.4/../../../../sparc-rtems/lib/soft/libc.a(lib_a-errno.o)
 .comment       0x00001878       0x12 /opt/rtems-4.8-1.1.3/bin/../lib/gcc/sparc-rtems/4.2.4/../../../../sparc-rtems/lib/soft/libc.a(lib_a-exit.o)
 .comment       0x0000188a       0x12 /opt/rtems-4.8-1.1.3/bin/../lib/gcc/sparc-rtems/4.2.4/../../../../sparc-rtems/lib/soft/libc.a(lib_a-fclose.o)
 .comment       0x0000189c       0x12 /opt/rtems-4.8-1.1.3/bin/../lib/gcc/sparc-rtems/4.2.4/../../../../sparc-rtems/lib/soft/libc.a(lib_a-fflush.o)
 .comment       0x000018ae       0x12 /opt/rtems-4.8-1.1.3/bin/../lib/gcc/sparc-rtems/4.2.4/../../../../sparc-rtems/lib/soft/libc.a(lib_a-fileno.o)
 .comment       0x000018c0       0x12 /opt/rtems-4.8-1.1.3/bin/../lib/gcc/sparc-rtems/4.2.4/../../../../sparc-rtems/lib/soft/libc.a(lib_a-findfp.o)
 .comment       0x000018d2       0x12 /opt/rtems-4.8-1.1.3/bin/../lib/gcc/sparc-rtems/4.2.4/../../../../sparc-rtems/lib/soft/libc.a(lib_a-fprintf.o)
 .comment       0x000018e4       0x12 /opt/rtems-4.8-1.1.3/bin/../lib/gcc/sparc-rtems/4.2.4/../../../../sparc-rtems/lib/soft/libc.a(lib_a-fwalk.o)
 .comment       0x000018f6       0x12 /opt/rtems-4.8-1.1.3/bin/../lib/gcc/sparc-rtems/4.2.4/../../../../sparc-rtems/lib/soft/libc.a(lib_a-gmtime_r.o)
 .comment       0x00001908       0x12 /opt/rtems-4.8-1.1.3/bin/../lib/gcc/sparc-rtems/4.2.4/../../../../sparc-rtems/lib/soft/libc.a(lib_a-impure.o)
 .comment       0x0000191a       0x12 /opt/rtems-4.8-1.1.3/bin/../lib/gcc/sparc-rtems/4.2.4/../../../../sparc-rtems/lib/soft/libc.a(lib_a-memcmp.o)
 .comment       0x0000192c       0x12 /opt/rtems-4.8-1.1.3/bin/../lib/gcc/sparc-rtems/4.2.4/../../../../sparc-rtems/lib/soft/libc.a(lib_a-memcpy.o)
 .comment       0x0000193e       0x12 /opt/rtems-4.8-1.1.3/bin/../lib/gcc/sparc-rtems/4.2.4/../../../../sparc-rtems/lib/soft/libc.a(lib_a-memset.o)
 .comment       0x00001950       0x12 /opt/rtems-4.8-1.1.3/bin/../lib/gcc/sparc-rtems/4.2.4/../../../../sparc-rtems/lib/soft/libc.a(lib_a-mktm_r.o)
 .comment       0x00001962       0x12 /opt/rtems-4.8-1.1.3/bin/../lib/gcc/sparc-rtems/4.2.4/../../../../sparc-rtems/lib/soft/libc.a(lib_a-printf.o)
 .comment       0x00001974       0x12 /opt/rtems-4.8-1.1.3/bin/../lib/gcc/sparc-rtems/4.2.4/../../../../sparc-rtems/lib/soft/libc.a(lib_a-putchar.o)
 .comment       0x00001986       0x12 /opt/rtems-4.8-1.1.3/bin/../lib/gcc/sparc-rtems/4.2.4/../../../../sparc-rtems/lib/soft/libc.a(lib_a-puts.o)
 .comment       0x00001998       0x12 /opt/rtems-4.8-1.1.3/bin/../lib/gcc/sparc-rtems/4.2.4/../../../../sparc-rtems/lib/soft/libc.a(lib_a-raise.o)
 .comment       0x000019aa       0x12 /opt/rtems-4.8-1.1.3/bin/../lib/gcc/sparc-rtems/4.2.4/../../../../sparc-rtems/lib/soft/libc.a(lib_a-reent.o)
 .comment       0x000019bc       0x12 /opt/rtems-4.8-1.1.3/bin/../lib/gcc/sparc-rtems/4.2.4/../../../../sparc-rtems/lib/soft/libc.a(lib_a-snprintf.o)
 .comment       0x000019ce       0x12 /opt/rtems-4.8-1.1.3/bin/../lib/gcc/sparc-rtems/4.2.4/../../../../sparc-rtems/lib/soft/libc.a(lib_a-sprintf.o)
 .comment       0x000019e0       0x12 /opt/rtems-4.8-1.1.3/bin/../lib/gcc/sparc-rtems/4.2.4/../../../../sparc-rtems/lib/soft/libc.a(lib_a-stdio.o)
 .comment       0x000019f2       0x12 /opt/rtems-4.8-1.1.3/bin/../lib/gcc/sparc-rtems/4.2.4/../../../../sparc-rtems/lib/soft/libc.a(lib_a-strchr.o)
 .comment       0x00001a04       0x12 /opt/rtems-4.8-1.1.3/bin/../lib/gcc/sparc-rtems/4.2.4/../../../../sparc-rtems/lib/soft/libc.a(lib_a-strcmp.o)
 .comment       0x00001a16       0x12 /opt/rtems-4.8-1.1.3/bin/../lib/gcc/sparc-rtems/4.2.4/../../../../sparc-rtems/lib/soft/libc.a(lib_a-strcpy.o)
 .comment       0x00001a28       0x12 /opt/rtems-4.8-1.1.3/bin/../lib/gcc/sparc-rtems/4.2.4/../../../../sparc-rtems/lib/soft/libc.a(lib_a-strdup.o)
 .comment       0x00001a3a       0x12 /opt/rtems-4.8-1.1.3/bin/../lib/gcc/sparc-rtems/4.2.4/../../../../sparc-rtems/lib/soft/libc.a(lib_a-strdup_r.o)
 .comment       0x00001a4c       0x12 /opt/rtems-4.8-1.1.3/bin/../lib/gcc/sparc-rtems/4.2.4/../../../../sparc-rtems/lib/soft/libc.a(lib_a-strerror.o)
 .comment       0x00001a5e       0x12 /opt/rtems-4.8-1.1.3/bin/../lib/gcc/sparc-rtems/4.2.4/../../../../sparc-rtems/lib/soft/libc.a(lib_a-strlcpy.o)
 .comment       0x00001a70       0x12 /opt/rtems-4.8-1.1.3/bin/../lib/gcc/sparc-rtems/4.2.4/../../../../sparc-rtems/lib/soft/libc.a(lib_a-strlen.o)
 .comment       0x00001a82       0x12 /opt/rtems-4.8-1.1.3/bin/../lib/gcc/sparc-rtems/4.2.4/../../../../sparc-rtems/lib/soft/libc.a(lib_a-strncmp.o)
 .comment       0x00001a94       0x12 /opt/rtems-4.8-1.1.3/bin/../lib/gcc/sparc-rtems/4.2.4/../../../../sparc-rtems/lib/soft/libc.a(lib_a-strncpy.o)
 .comment       0x00001aa6       0x12 /opt/rtems-4.8-1.1.3/bin/../lib/gcc/sparc-rtems/4.2.4/../../../../sparc-rtems/lib/soft/libc.a(lib_a-tzlock.o)
 .comment       0x00001ab8       0x12 /opt/rtems-4.8-1.1.3/bin/../lib/gcc/sparc-rtems/4.2.4/../../../../sparc-rtems/lib/soft/libc.a(lib_a-tzvars.o)
 .comment       0x00001aca       0x12 /opt/rtems-4.8-1.1.3/bin/../lib/gcc/sparc-rtems/4.2.4/../../../../sparc-rtems/lib/soft/libc.a(lib_a-u_strerr.o)
 .comment       0x00001adc       0x12 /opt/rtems-4.8-1.1.3/bin/../lib/gcc/sparc-rtems/4.2.4/../../../../sparc-rtems/lib/soft/libc.a(lib_a-vfprintf.o)
 .comment       0x00001aee       0x12 /opt/rtems-4.8-1.1.3/bin/../lib/gcc/sparc-rtems/4.2.4/../../../../sparc-rtems/lib/soft/libc.a(lib_a-vprintf.o)
 .comment       0x00001b00       0x12 /opt/rtems-4.8-1.1.3/bin/../lib/gcc/sparc-rtems/4.2.4/../../../../sparc-rtems/lib/soft/libc.a(lib_a-wcrtomb.o)
 .comment       0x00001b12       0x12 /opt/rtems-4.8-1.1.3/bin/../lib/gcc/sparc-rtems/4.2.4/../../../../sparc-rtems/lib/soft/libc.a(lib_a-wcsrtombs.o)
 .comment       0x00001b24       0x12 /opt/rtems-4.8-1.1.3/bin/../lib/gcc/sparc-rtems/4.2.4/../../../../sparc-rtems/lib/soft/libc.a(lib_a-wctomb_r.o)
 .comment       0x00001b36       0x12 /opt/rtems-4.8-1.1.3/bin/../lib/gcc/sparc-rtems/4.2.4/../../../../sparc-rtems/lib/soft/libc.a(lib_a-wsetup.o)
 .comment       0x00001b48       0x12 /opt/rtems-4.8-1.1.3/bin/../lib/gcc/sparc-rtems/4.2.4/../../../../sparc-rtems/lib/soft/libc.a(lib_a-__atexit.o)
 .comment       0x00001b5a       0x12 /opt/rtems-4.8-1.1.3/bin/../lib/gcc/sparc-rtems/4.2.4/../../../../sparc-rtems/lib/soft/libc.a(lib_a-__call_atexit.o)
 .comment       0x00001b6c       0x12 /opt/rtems-4.8-1.1.3/bin/../lib/gcc/sparc-rtems/4.2.4/../../../../sparc-rtems/lib/soft/libc.a(lib_a-dtoa.o)
 .comment       0x00001b7e       0x12 /opt/rtems-4.8-1.1.3/bin/../lib/gcc/sparc-rtems/4.2.4/../../../../sparc-rtems/lib/soft/libc.a(lib_a-fvwrite.o)
 .comment       0x00001b90       0x12 /opt/rtems-4.8-1.1.3/bin/../lib/gcc/sparc-rtems/4.2.4/../../../../sparc-rtems/lib/soft/libc.a(lib_a-gettzinfo.o)
 .comment       0x00001ba2       0x12 /opt/rtems-4.8-1.1.3/bin/../lib/gcc/sparc-rtems/4.2.4/../../../../sparc-rtems/lib/soft/libc.a(lib_a-locale.o)
 .comment       0x00001bb4       0x12 /opt/rtems-4.8-1.1.3/bin/../lib/gcc/sparc-rtems/4.2.4/../../../../sparc-rtems/lib/soft/libc.a(lib_a-makebuf.o)
 .comment       0x00001bc6       0x12 /opt/rtems-4.8-1.1.3/bin/../lib/gcc/sparc-rtems/4.2.4/../../../../sparc-rtems/lib/soft/libc.a(lib_a-memchr.o)
 .comment       0x00001bd8       0x12 /opt/rtems-4.8-1.1.3/bin/../lib/gcc/sparc-rtems/4.2.4/../../../../sparc-rtems/lib/soft/libc.a(lib_a-memmove.o)
 .comment       0x00001bea       0x12 /opt/rtems-4.8-1.1.3/bin/../lib/gcc/sparc-rtems/4.2.4/../../../../sparc-rtems/lib/soft/libc.a(lib_a-mprec.o)
 .comment       0x00001bfc       0x12 /opt/rtems-4.8-1.1.3/bin/../lib/gcc/sparc-rtems/4.2.4/../../../../sparc-rtems/lib/soft/libc.a(lib_a-putc.o)
 .comment       0x00001c0e       0x12 /opt/rtems-4.8-1.1.3/bin/../lib/gcc/sparc-rtems/4.2.4/../../../../sparc-rtems/lib/soft/libc.a(lib_a-s_isinfd.o)
 .comment       0x00001c20       0x12 /opt/rtems-4.8-1.1.3/bin/../lib/gcc/sparc-rtems/4.2.4/../../../../sparc-rtems/lib/soft/libc.a(lib_a-s_isnand.o)
 .comment       0x00001c32       0x12 /opt/rtems-4.8-1.1.3/bin/../lib/gcc/sparc-rtems/4.2.4/../../../../sparc-rtems/lib/soft/libc.a(lib_a-wbuf.o)
 .comment       0x00001c44       0x12 /opt/rtems-4.8-1.1.3/bin/../lib/gcc/sparc-rtems/4.2.4/soft/libgcc.a(_udivdi3.o)
 .comment       0x00001c56       0x12 /opt/rtems-4.8-1.1.3/bin/../lib/gcc/sparc-rtems/4.2.4/soft/libgcc.a(_umoddi3.o)
 .comment       0x00001c68       0x12 /opt/rtems-4.8-1.1.3/bin/../lib/gcc/sparc-rtems/4.2.4/soft/libgcc.a(_addsub_df.o)
 .comment       0x00001c7a       0x12 /opt/rtems-4.8-1.1.3/bin/../lib/gcc/sparc-rtems/4.2.4/soft/libgcc.a(_div_df.o)
 .comment       0x00001c8c       0x12 /opt/rtems-4.8-1.1.3/bin/../lib/gcc/sparc-rtems/4.2.4/soft/libgcc.a(_eq_df.o)
 .comment       0x00001c9e       0x12 /opt/rtems-4.8-1.1.3/bin/../lib/gcc/sparc-rtems/4.2.4/soft/libgcc.a(_ne_df.o)
 .comment       0x00001cb0       0x12 /opt/rtems-4.8-1.1.3/bin/../lib/gcc/sparc-rtems/4.2.4/soft/libgcc.a(_gt_df.o)
 .comment       0x00001cc2       0x12 /opt/rtems-4.8-1.1.3/bin/../lib/gcc/sparc-rtems/4.2.4/soft/libgcc.a(_ge_df.o)
 .comment       0x00001cd4       0x12 /opt/rtems-4.8-1.1.3/bin/../lib/gcc/sparc-rtems/4.2.4/soft/libgcc.a(_lt_df.o)
 .comment       0x00001ce6       0x12 /opt/rtems-4.8-1.1.3/bin/../lib/gcc/sparc-rtems/4.2.4/soft/libgcc.a(_si_to_df.o)
 .comment       0x00001cf8       0x12 /opt/rtems-4.8-1.1.3/bin/../lib/gcc/sparc-rtems/4.2.4/soft/libgcc.a(_df_to_si.o)
 .comment       0x00001d0a       0x12 /opt/rtems-4.8-1.1.3/bin/../lib/gcc/sparc-rtems/4.2.4/soft/libgcc.a(_fpcmp_parts_df.o)
 .comment       0x00001d1c       0x36 /opt/rtems-4.8/sparc-rtems/leon2/lib/librtemsbsp.a(cache.rel)
 .comment       0x00001d52       0x12 /opt/rtems-4.8/sparc-rtems/leon2/lib/librtemsbsp.a(libsupport_a-version.o)
 .comment       0x00001d64       0x12 /opt/rtems-4.8/sparc-rtems/leon2/lib/librtemscpu.a(libcsupport_a-fstat.o)
 .comment       0x00001d76       0x12 /opt/rtems-4.8/sparc-rtems/leon2/lib/librtemscpu.a(libcsupport_a-getpid.o)
 .comment       0x00001d88       0x12 /opt/rtems-4.8/sparc-rtems/leon2/lib/librtemscpu.a(libcsupport_a-isatty.o)
 .comment       0x00001d9a       0x12 /opt/rtems-4.8/sparc-rtems/leon2/lib/librtemscpu.a(libcsupport_a-lseek.o)
 .comment       0x00001dac       0x12 /opt/rtems-4.8/sparc-rtems/leon2/lib/librtemscpu.a(libcsupport_a-read.o)
 .comment       0x00001dbe       0x12 /opt/rtems-4.8/sparc-rtems/leon2/lib/librtemscpu.a(libcsupport_a-write_r.o)
 .comment       0x00001dd0       0x12 /opt/rtems-4.8/sparc-rtems/leon2/lib/librtemscpu.a(libposix_a-kill.o)
 .comment       0x00001de2       0x12 /opt/rtems-4.8/sparc-rtems/leon2/lib/librtemscpu.a(libposix_a-killinfo.o)
 .comment       0x00001df4       0x12 /opt/rtems-4.8/sparc-rtems/leon2/lib/librtemscpu.a(libposix_a-psignalsetprocesssignals.o)
 .comment       0x00001e06       0x12 /opt/rtems-4.8/sparc-rtems/leon2/lib/librtemscpu.a(libposix_a-psignalunblockthread.o)
 .comment       0x00001e18       0x12 /opt/rtems-4.8/sparc-rtems/leon2/lib/librtemscpu.a(libposix_a-pthreadkill.o)
 .comment       0x00001e2a       0x12 /opt/rtems-4.8/sparc-rtems/leon2/lib/librtemscpu.a(libposix_a-pthreadself.o)
 .comment       0x00001e3c       0x12 /opt/rtems-4.8/sparc-rtems/leon2/lib/librtemscpu.a(libposix_a-types.o)
 .comment       0x00001e4e       0x12 /opt/rtems-4.8/sparc-rtems/leon2/lib/librtemscpu.a(libcsupport_a-write.o)
 .comment       0x00001e60       0x12 /opt/rtems-4.8-1.1.3/bin/../lib/gcc/sparc-rtems/4.2.4/crtend.o

.debug_frame    0x00000000     0x7128
 .debug_frame   0x00000000      0x100 /home/aitor/workspace/rasta-sw/osal-repo/trunk/samples/misc/soclient.o
 .debug_frame   0x00000100       0x58 libosal_rtems_rastaleon2.a(osapi.o)
 .debug_frame   0x00000158       0xd0 libosal_rtems_rastaleon2.a(osmut.o)
 .debug_frame   0x00000228      0x188 libosal_rtems_rastaleon2.a(ostask.o)
 .debug_frame   0x000003b0       0x70 libosal_rtems_rastaleon2.a(rtems-config.o)
 .debug_frame   0x00000420       0x20 libosal_rtems_rastaleon2.a(osstats.o)
 .debug_frame   0x00000440       0x28 /opt/rtems-4.8-1.1.3/bin/../lib/gcc/sparc-rtems/4.2.4/soft/libgcc.a(_mul_df.o)
 .debug_frame   0x00000468       0x28 /opt/rtems-4.8-1.1.3/bin/../lib/gcc/sparc-rtems/4.2.4/soft/libgcc.a(_usi_to_df.o)
 .debug_frame   0x00000490       0x28 /opt/rtems-4.8-1.1.3/bin/../lib/gcc/sparc-rtems/4.2.4/soft/libgcc.a(_muldi3.o)
 .debug_frame   0x000004b8       0x20 /opt/rtems-4.8-1.1.3/bin/../lib/gcc/sparc-rtems/4.2.4/soft/libgcc.a(_clzsi2.o)
 .debug_frame   0x000004d8       0x28 /opt/rtems-4.8-1.1.3/bin/../lib/gcc/sparc-rtems/4.2.4/soft/libgcc.a(_pack_df.o)
 .debug_frame   0x00000500       0x20 /opt/rtems-4.8-1.1.3/bin/../lib/gcc/sparc-rtems/4.2.4/soft/libgcc.a(_unpack_df.o)
 .debug_frame   0x00000520      0x320 /opt/rtems-4.8/sparc-rtems/leon2/lib/librtemsbsp.a(amba.rel)
 .debug_frame   0x00000840       0x90 /opt/rtems-4.8/sparc-rtems/leon2/lib/librtemsbsp.a(clock.rel)
 .debug_frame   0x000008d0       0xf8 /opt/rtems-4.8/sparc-rtems/leon2/lib/librtemsbsp.a(console.rel)
 .debug_frame   0x000009c8       0x28 /opt/rtems-4.8/sparc-rtems/leon2/lib/librtemsbsp.a(leon_smc91111.rel)
 .debug_frame   0x000009f0       0xf8 /opt/rtems-4.8/sparc-rtems/leon2/lib/librtemsbsp.a(libnetchip_a-smc91111.o)
 .debug_frame   0x00000ae8      0x348 /opt/rtems-4.8/sparc-rtems/leon2/lib/librtemsbsp.a(startup.rel)
 .debug_frame   0x00000e30       0xe8 /opt/rtems-4.8/sparc-rtems/leon2/lib/librtemscpu.a(check.o)
 .debug_frame   0x00000f18       0x40 /opt/rtems-4.8/sparc-rtems/leon2/lib/librtemscpu.a(ioman.o)
 .debug_frame   0x00000f58       0x40 /opt/rtems-4.8/sparc-rtems/leon2/lib/librtemscpu.a(libc_a-inet_addr.o)
 .debug_frame   0x00000f98       0x40 /opt/rtems-4.8/sparc-rtems/leon2/lib/librtemscpu.a(libc_a-inet_pton.o)
 .debug_frame   0x00000fd8       0x20 /opt/rtems-4.8/sparc-rtems/leon2/lib/librtemscpu.a(libc_a-recv.o)
 .debug_frame   0x00000ff8       0x20 /opt/rtems-4.8/sparc-rtems/leon2/lib/librtemscpu.a(libc_a-send.o)
 .debug_frame   0x00001018       0x28 /opt/rtems-4.8/sparc-rtems/leon2/lib/librtemscpu.a(libcsupport_a-__assert.o)
 .debug_frame   0x00001040       0x38 /opt/rtems-4.8/sparc-rtems/leon2/lib/librtemscpu.a(libcsupport_a-close.o)
 .debug_frame   0x00001078       0x40 /opt/rtems-4.8/sparc-rtems/leon2/lib/librtemscpu.a(libcsupport_a-eval.o)
 .debug_frame   0x000010b8       0x98 /opt/rtems-4.8/sparc-rtems/leon2/lib/librtemscpu.a(libcsupport_a-libio.o)
 .debug_frame   0x00001150       0x28 /opt/rtems-4.8/sparc-rtems/leon2/lib/librtemscpu.a(libcsupport_a-libio_init.o)
 .debug_frame   0x00001178       0xe8 /opt/rtems-4.8/sparc-rtems/leon2/lib/librtemscpu.a(libcsupport_a-malloc.o)
 .debug_frame   0x00001260       0x20 /opt/rtems-4.8/sparc-rtems/leon2/lib/librtemscpu.a(libcsupport_a-mkdir.o)
 .debug_frame   0x00001280       0x28 /opt/rtems-4.8/sparc-rtems/leon2/lib/librtemscpu.a(libcsupport_a-mknod.o)
 .debug_frame   0x000012a8       0x68 /opt/rtems-4.8/sparc-rtems/leon2/lib/librtemscpu.a(libcsupport_a-newlibc.o)
 .debug_frame   0x00001310       0x28 /opt/rtems-4.8/sparc-rtems/leon2/lib/librtemscpu.a(libcsupport_a-open_dev_console.o)
 .debug_frame   0x00001338       0x40 /opt/rtems-4.8/sparc-rtems/leon2/lib/librtemscpu.a(libcsupport_a-printk.o)
 .debug_frame   0x00001378       0x28 /opt/rtems-4.8/sparc-rtems/leon2/lib/librtemscpu.a(libcsupport_a-printk_plugin.o)
 .debug_frame   0x000013a0      0x1c8 /opt/rtems-4.8/sparc-rtems/leon2/lib/librtemscpu.a(libcsupport_a-termios.o)
 .debug_frame   0x00001568       0x28 /opt/rtems-4.8/sparc-rtems/leon2/lib/librtemscpu.a(libcsupport_a-termiosinitialize.o)
 .debug_frame   0x00001590      0x140 /opt/rtems-4.8/sparc-rtems/leon2/lib/librtemscpu.a(libnetworking_a-if.o)
 .debug_frame   0x000016d0       0xd0 /opt/rtems-4.8/sparc-rtems/leon2/lib/librtemscpu.a(libnetworking_a-if_ethersubr.o)
 .debug_frame   0x000017a0       0x58 /opt/rtems-4.8/sparc-rtems/leon2/lib/librtemscpu.a(libnetworking_a-if_loop.o)
 .debug_frame   0x000017f8      0x148 /opt/rtems-4.8/sparc-rtems/leon2/lib/librtemscpu.a(libnetworking_a-ip_input.o)
 .debug_frame   0x00001940       0xc8 /opt/rtems-4.8/sparc-rtems/leon2/lib/librtemscpu.a(libnetworking_a-ip_mroute.o)
 .debug_frame   0x00001a08       0x58 /opt/rtems-4.8/sparc-rtems/leon2/lib/librtemscpu.a(libnetworking_a-ip_output.o)
 .debug_frame   0x00001a60      0x318 /opt/rtems-4.8/sparc-rtems/leon2/lib/librtemscpu.a(libnetworking_a-kern_sysctl.o)
 .debug_frame   0x00001d78      0x170 /opt/rtems-4.8/sparc-rtems/leon2/lib/librtemscpu.a(libnetworking_a-radix.o)
 .debug_frame   0x00001ee8       0x88 /opt/rtems-4.8/sparc-rtems/leon2/lib/librtemscpu.a(libnetworking_a-raw_ip.o)
 .debug_frame   0x00001f70      0x168 /opt/rtems-4.8/sparc-rtems/leon2/lib/librtemscpu.a(libnetworking_a-route.o)
 .debug_frame   0x000020d8      0x2b8 /opt/rtems-4.8/sparc-rtems/leon2/lib/librtemscpu.a(libnetworking_a-rtems_glue.o)
 .debug_frame   0x00002390       0x20 /opt/rtems-4.8/sparc-rtems/leon2/lib/librtemscpu.a(libnetworking_a-rtems_malloc_mbuf.o)
 .debug_frame   0x000023b0       0x40 /opt/rtems-4.8/sparc-rtems/leon2/lib/librtemscpu.a(libnetworking_a-rtems_showifstat.o)
 .debug_frame   0x000023f0       0x58 /opt/rtems-4.8/sparc-rtems/leon2/lib/librtemscpu.a(libnetworking_a-rtems_showroute.o)
 .debug_frame   0x00002448      0x210 /opt/rtems-4.8/sparc-rtems/leon2/lib/librtemscpu.a(libnetworking_a-rtems_syscall.o)
 .debug_frame   0x00002658       0xf8 /opt/rtems-4.8/sparc-rtems/leon2/lib/librtemscpu.a(libnetworking_a-rtsock.o)
 .debug_frame   0x00002750       0x40 /opt/rtems-4.8/sparc-rtems/leon2/lib/librtemscpu.a(libnetworking_a-sghostname.o)
 .debug_frame   0x00002790       0x90 /opt/rtems-4.8/sparc-rtems/leon2/lib/librtemscpu.a(libnetworking_a-uipc_domain.o)
 .debug_frame   0x00002820      0x1b8 /opt/rtems-4.8/sparc-rtems/leon2/lib/librtemscpu.a(libnetworking_a-uipc_mbuf.o)
 .debug_frame   0x000029d8      0x1a0 /opt/rtems-4.8/sparc-rtems/leon2/lib/librtemscpu.a(libnetworking_a-uipc_socket.o)
 .debug_frame   0x00002b78      0x3e8 /opt/rtems-4.8/sparc-rtems/leon2/lib/librtemscpu.a(libnetworking_a-uipc_socket2.o)
 .debug_frame   0x00002f60       0x28 /opt/rtems-4.8/sparc-rtems/leon2/lib/librtemscpu.a(librtems_a-clockget.o)
 .debug_frame   0x00002f88       0x20 /opt/rtems-4.8/sparc-rtems/leon2/lib/librtemscpu.a(librtems_a-clocksetnsecshandler.o)
 .debug_frame   0x00002fa8       0x28 /opt/rtems-4.8/sparc-rtems/leon2/lib/librtemscpu.a(librtems_a-clocktick.o)
 .debug_frame   0x00002fd0       0x28 /opt/rtems-4.8/sparc-rtems/leon2/lib/librtemscpu.a(librtems_a-eventreceive.o)
 .debug_frame   0x00002ff8       0x28 /opt/rtems-4.8/sparc-rtems/leon2/lib/librtemscpu.a(librtems_a-eventseize.o)
 .debug_frame   0x00003020       0x28 /opt/rtems-4.8/sparc-rtems/leon2/lib/librtemscpu.a(librtems_a-eventsend.o)
 .debug_frame   0x00003048       0x28 /opt/rtems-4.8/sparc-rtems/leon2/lib/librtemscpu.a(librtems_a-eventsurrender.o)
 .debug_frame   0x00003070       0x28 /opt/rtems-4.8/sparc-rtems/leon2/lib/librtemscpu.a(librtems_a-eventtimeout.o)
 .debug_frame   0x00003098       0x28 /opt/rtems-4.8/sparc-rtems/leon2/lib/librtemscpu.a(librtems_a-intrcatch.o)
 .debug_frame   0x000030c0       0x28 /opt/rtems-4.8/sparc-rtems/leon2/lib/librtemscpu.a(librtems_a-ratemoncreate.o)
 .debug_frame   0x000030e8       0x28 /opt/rtems-4.8/sparc-rtems/leon2/lib/librtemscpu.a(librtems_a-ratemondelete.o)
 .debug_frame   0x00003110       0x40 /opt/rtems-4.8/sparc-rtems/leon2/lib/librtemscpu.a(librtems_a-ratemonperiod.o)
 .debug_frame   0x00003150       0x28 /opt/rtems-4.8/sparc-rtems/leon2/lib/librtemscpu.a(librtems_a-ratemontimeout.o)
 .debug_frame   0x00003178       0x20 /opt/rtems-4.8/sparc-rtems/leon2/lib/librtemscpu.a(librtems_a-rtemsobjectgetname.o)
 .debug_frame   0x00003198       0x28 /opt/rtems-4.8/sparc-rtems/leon2/lib/librtemscpu.a(librtems_a-semcreate.o)
 .debug_frame   0x000031c0       0x28 /opt/rtems-4.8/sparc-rtems/leon2/lib/librtemscpu.a(librtems_a-semdelete.o)
 .debug_frame   0x000031e8       0x28 /opt/rtems-4.8/sparc-rtems/leon2/lib/librtemscpu.a(librtems_a-semflush.o)
 .debug_frame   0x00003210       0x28 /opt/rtems-4.8/sparc-rtems/leon2/lib/librtemscpu.a(librtems_a-semobtain.o)
 .debug_frame   0x00003238       0x28 /opt/rtems-4.8/sparc-rtems/leon2/lib/librtemscpu.a(librtems_a-semrelease.o)
 .debug_frame   0x00003260       0x30 /opt/rtems-4.8/sparc-rtems/leon2/lib/librtemscpu.a(librtems_a-semtranslatereturncode.o)
 .debug_frame   0x00003290       0x28 /opt/rtems-4.8/sparc-rtems/leon2/lib/librtemscpu.a(librtems_a-taskcreate.o)
 .debug_frame   0x000032b8       0x28 /opt/rtems-4.8/sparc-rtems/leon2/lib/librtemscpu.a(librtems_a-taskdelete.o)
 .debug_frame   0x000032e0       0x28 /opt/rtems-4.8/sparc-rtems/leon2/lib/librtemscpu.a(librtems_a-taskident.o)
 .debug_frame   0x00003308       0x28 /opt/rtems-4.8/sparc-rtems/leon2/lib/librtemscpu.a(librtems_a-taskinitusers.o)
 .debug_frame   0x00003330       0x28 /opt/rtems-4.8/sparc-rtems/leon2/lib/librtemscpu.a(librtems_a-taskresume.o)
 .debug_frame   0x00003358       0x28 /opt/rtems-4.8/sparc-rtems/leon2/lib/librtemscpu.a(librtems_a-tasksetpriority.o)
 .debug_frame   0x00003380       0x28 /opt/rtems-4.8/sparc-rtems/leon2/lib/librtemscpu.a(librtems_a-taskstart.o)
 .debug_frame   0x000033a8       0x28 /opt/rtems-4.8/sparc-rtems/leon2/lib/librtemscpu.a(librtems_a-tasksuspend.o)
 .debug_frame   0x000033d0       0x28 /opt/rtems-4.8/sparc-rtems/leon2/lib/librtemscpu.a(librtems_a-taskvariableadd.o)
 .debug_frame   0x000033f8       0x28 /opt/rtems-4.8/sparc-rtems/leon2/lib/librtemscpu.a(librtems_a-taskwakeafter.o)
 .debug_frame   0x00003420       0x40 /opt/rtems-4.8/sparc-rtems/leon2/lib/librtemscpu.a(libsapi_a-exinit.o)
 .debug_frame   0x00003460       0x28 /opt/rtems-4.8/sparc-rtems/leon2/lib/librtemscpu.a(libsapi_a-extension.o)
 .debug_frame   0x00003488       0x20 /opt/rtems-4.8/sparc-rtems/leon2/lib/librtemscpu.a(libsapi_a-fatal.o)
 .debug_frame   0x000034a8       0x20 /opt/rtems-4.8/sparc-rtems/leon2/lib/librtemscpu.a(libsapi_a-getversionstring.o)
 .debug_frame   0x000034c8       0x40 /opt/rtems-4.8/sparc-rtems/leon2/lib/librtemscpu.a(libsapi_a-io.o)
 .debug_frame   0x00003508       0x28 /opt/rtems-4.8/sparc-rtems/leon2/lib/librtemscpu.a(libsapi_a-ioinitialize.o)
 .debug_frame   0x00003530       0x28 /opt/rtems-4.8/sparc-rtems/leon2/lib/librtemscpu.a(libsapi_a-ioregisterdriver.o)
 .debug_frame   0x00003558       0x28 /opt/rtems-4.8/sparc-rtems/leon2/lib/librtemscpu.a(libsapi_a-posixapi.o)
 .debug_frame   0x00003580       0x28 /opt/rtems-4.8/sparc-rtems/leon2/lib/librtemscpu.a(libsapi_a-rtemsapi.o)
 .debug_frame   0x000035a8       0x78 /opt/rtems-4.8/sparc-rtems/leon2/lib/librtemscpu.a(libscore_a-apiext.o)
 .debug_frame   0x00003620       0x28 /opt/rtems-4.8/sparc-rtems/leon2/lib/librtemscpu.a(libscore_a-chainappend.o)
 .debug_frame   0x00003648       0x28 /opt/rtems-4.8/sparc-rtems/leon2/lib/librtemscpu.a(libscore_a-chainget.o)
 .debug_frame   0x00003670       0x20 /opt/rtems-4.8/sparc-rtems/leon2/lib/librtemscpu.a(libscore_a-coremutex.o)
 .debug_frame   0x00003690       0x20 /opt/rtems-4.8/sparc-rtems/leon2/lib/librtemscpu.a(libscore_a-coremutexflush.o)
 .debug_frame   0x000036b0       0x28 /opt/rtems-4.8/sparc-rtems/leon2/lib/librtemscpu.a(libscore_a-coremutexseize.o)
 .debug_frame   0x000036d8       0x28 /opt/rtems-4.8/sparc-rtems/leon2/lib/librtemscpu.a(libscore_a-coremutexsurrender.o)
 .debug_frame   0x00003700       0x20 /opt/rtems-4.8/sparc-rtems/leon2/lib/librtemscpu.a(libscore_a-coresem.o)
 .debug_frame   0x00003720       0x20 /opt/rtems-4.8/sparc-rtems/leon2/lib/librtemscpu.a(libscore_a-coresemflush.o)
 .debug_frame   0x00003740       0x28 /opt/rtems-4.8/sparc-rtems/leon2/lib/librtemscpu.a(libscore_a-coresemsurrender.o)
 .debug_frame   0x00003768       0x20 /opt/rtems-4.8/sparc-rtems/leon2/lib/librtemscpu.a(libscore_a-coretod.o)
 .debug_frame   0x00003788       0x28 /opt/rtems-4.8/sparc-rtems/leon2/lib/librtemscpu.a(libscore_a-coretodget.o)
 .debug_frame   0x000037b0       0x28 /opt/rtems-4.8/sparc-rtems/leon2/lib/librtemscpu.a(libscore_a-coretodgetuptime.o)
 .debug_frame   0x000037d8       0x28 /opt/rtems-4.8/sparc-rtems/leon2/lib/librtemscpu.a(libscore_a-coretodtickle.o)
 .debug_frame   0x00003800       0x50 /opt/rtems-4.8/sparc-rtems/leon2/lib/librtemscpu.a(libscore_a-heap.o)
 .debug_frame   0x00003850       0x28 /opt/rtems-4.8/sparc-rtems/leon2/lib/librtemscpu.a(libscore_a-heapallocate.o)
 .debug_frame   0x00003878       0x28 /opt/rtems-4.8/sparc-rtems/leon2/lib/librtemscpu.a(libscore_a-heapfree.o)
 .debug_frame   0x000038a0       0x28 /opt/rtems-4.8/sparc-rtems/leon2/lib/librtemscpu.a(libscore_a-interr.o)
 .debug_frame   0x000038c8       0x28 /opt/rtems-4.8/sparc-rtems/leon2/lib/librtemscpu.a(libscore_a-isr.o)
 .debug_frame   0x000038f0       0x28 /opt/rtems-4.8/sparc-rtems/leon2/lib/librtemscpu.a(libscore_a-iterateoverthreads.o)
 .debug_frame   0x00003918       0x20 /opt/rtems-4.8/sparc-rtems/leon2/lib/librtemscpu.a(libscore_a-object.o)
 .debug_frame   0x00003938       0x28 /opt/rtems-4.8/sparc-rtems/leon2/lib/librtemscpu.a(libscore_a-objectallocate.o)
 .debug_frame   0x00003960       0x28 /opt/rtems-4.8/sparc-rtems/leon2/lib/librtemscpu.a(libscore_a-objectextendinformation.o)
 .debug_frame   0x00003988       0x28 /opt/rtems-4.8/sparc-rtems/leon2/lib/librtemscpu.a(libscore_a-objectfree.o)
 .debug_frame   0x000039b0       0x28 /opt/rtems-4.8/sparc-rtems/leon2/lib/librtemscpu.a(libscore_a-objectget.o)
 .debug_frame   0x000039d8       0x28 /opt/rtems-4.8/sparc-rtems/leon2/lib/librtemscpu.a(libscore_a-objectgetisr.o)
 .debug_frame   0x00003a00       0x28 /opt/rtems-4.8/sparc-rtems/leon2/lib/librtemscpu.a(libscore_a-objectgetnameasstring.o)
 .debug_frame   0x00003a28       0x28 /opt/rtems-4.8/sparc-rtems/leon2/lib/librtemscpu.a(libscore_a-objectinitializeinformation.o)
 .debug_frame   0x00003a50       0x28 /opt/rtems-4.8/sparc-rtems/leon2/lib/librtemscpu.a(libscore_a-objectnametoid.o)
 .debug_frame   0x00003a78       0x28 /opt/rtems-4.8/sparc-rtems/leon2/lib/librtemscpu.a(libscore_a-objectshrinkinformation.o)
 .debug_frame   0x00003aa0       0x28 /opt/rtems-4.8/sparc-rtems/leon2/lib/librtemscpu.a(libscore_a-pheapallocate.o)
 .debug_frame   0x00003ac8       0x28 /opt/rtems-4.8/sparc-rtems/leon2/lib/librtemscpu.a(libscore_a-pheapextend.o)
 .debug_frame   0x00003af0       0x28 /opt/rtems-4.8/sparc-rtems/leon2/lib/librtemscpu.a(libscore_a-pheapfree.o)
 .debug_frame   0x00003b18       0x28 /opt/rtems-4.8/sparc-rtems/leon2/lib/librtemscpu.a(libscore_a-pheapgetblocksize.o)
 .debug_frame   0x00003b40       0x28 /opt/rtems-4.8/sparc-rtems/leon2/lib/librtemscpu.a(libscore_a-pheapresizeblock.o)
 .debug_frame   0x00003b68       0x28 /opt/rtems-4.8/sparc-rtems/leon2/lib/librtemscpu.a(libscore_a-thread.o)
 .debug_frame   0x00003b90       0x28 /opt/rtems-4.8/sparc-rtems/leon2/lib/librtemscpu.a(libscore_a-threadchangepriority.o)
 .debug_frame   0x00003bb8       0x28 /opt/rtems-4.8/sparc-rtems/leon2/lib/librtemscpu.a(libscore_a-threadclearstate.o)
 .debug_frame   0x00003be0       0x28 /opt/rtems-4.8/sparc-rtems/leon2/lib/librtemscpu.a(libscore_a-threadclose.o)
 .debug_frame   0x00003c08       0x28 /opt/rtems-4.8/sparc-rtems/leon2/lib/librtemscpu.a(libscore_a-threadcreateidle.o)
 .debug_frame   0x00003c30       0x28 /opt/rtems-4.8/sparc-rtems/leon2/lib/librtemscpu.a(libscore_a-threaddelayended.o)
 .debug_frame   0x00003c58       0x28 /opt/rtems-4.8/sparc-rtems/leon2/lib/librtemscpu.a(libscore_a-threaddispatch.o)
 .debug_frame   0x00003c80       0x20 /opt/rtems-4.8/sparc-rtems/leon2/lib/librtemscpu.a(libscore_a-threadidlebody.o)
 .debug_frame   0x00003ca0       0x28 /opt/rtems-4.8/sparc-rtems/leon2/lib/librtemscpu.a(libscore_a-threadinitialize.o)
 .debug_frame   0x00003cc8       0x20 /opt/rtems-4.8/sparc-rtems/leon2/lib/librtemscpu.a(libscore_a-threadq.o)
 .debug_frame   0x00003ce8       0x20 /opt/rtems-4.8/sparc-rtems/leon2/lib/librtemscpu.a(libscore_a-threadqdequeue.o)
 .debug_frame   0x00003d08       0x28 /opt/rtems-4.8/sparc-rtems/leon2/lib/librtemscpu.a(libscore_a-threadqdequeuefifo.o)
 .debug_frame   0x00003d30       0x28 /opt/rtems-4.8/sparc-rtems/leon2/lib/librtemscpu.a(libscore_a-threadqdequeuepriority.o)
 .debug_frame   0x00003d58       0x28 /opt/rtems-4.8/sparc-rtems/leon2/lib/librtemscpu.a(libscore_a-threadqenqueue.o)
 .debug_frame   0x00003d80       0x28 /opt/rtems-4.8/sparc-rtems/leon2/lib/librtemscpu.a(libscore_a-threadqenqueuefifo.o)
 .debug_frame   0x00003da8       0x28 /opt/rtems-4.8/sparc-rtems/leon2/lib/librtemscpu.a(libscore_a-threadqenqueuepriority.o)
 .debug_frame   0x00003dd0       0x28 /opt/rtems-4.8/sparc-rtems/leon2/lib/librtemscpu.a(libscore_a-threadqextractwithproxy.o)
 .debug_frame   0x00003df8       0x28 /opt/rtems-4.8/sparc-rtems/leon2/lib/librtemscpu.a(libscore_a-threadqflush.o)
 .debug_frame   0x00003e20       0x28 /opt/rtems-4.8/sparc-rtems/leon2/lib/librtemscpu.a(libscore_a-threadqrequeue.o)
 .debug_frame   0x00003e48       0x28 /opt/rtems-4.8/sparc-rtems/leon2/lib/librtemscpu.a(libscore_a-threadqtimeout.o)
 .debug_frame   0x00003e70       0x28 /opt/rtems-4.8/sparc-rtems/leon2/lib/librtemscpu.a(libscore_a-threadresume.o)
 .debug_frame   0x00003e98       0x20 /opt/rtems-4.8/sparc-rtems/leon2/lib/librtemscpu.a(libscore_a-threadsetpriority.o)
 .debug_frame   0x00003eb8       0x28 /opt/rtems-4.8/sparc-rtems/leon2/lib/librtemscpu.a(libscore_a-threadsetstate.o)
 .debug_frame   0x00003ee0       0x28 /opt/rtems-4.8/sparc-rtems/leon2/lib/librtemscpu.a(libscore_a-threadsettransient.o)
 .debug_frame   0x00003f08       0x28 /opt/rtems-4.8/sparc-rtems/leon2/lib/librtemscpu.a(libscore_a-threadstackallocate.o)
 .debug_frame   0x00003f30       0x28 /opt/rtems-4.8/sparc-rtems/leon2/lib/librtemscpu.a(libscore_a-threadstackfree.o)
 .debug_frame   0x00003f58       0x28 /opt/rtems-4.8/sparc-rtems/leon2/lib/librtemscpu.a(libscore_a-threadstart.o)
 .debug_frame   0x00003f80       0x28 /opt/rtems-4.8/sparc-rtems/leon2/lib/librtemscpu.a(libscore_a-threadstartmultitasking.o)
 .debug_frame   0x00003fa8       0x28 /opt/rtems-4.8/sparc-rtems/leon2/lib/librtemscpu.a(libscore_a-threadsuspend.o)
 .debug_frame   0x00003fd0       0x28 /opt/rtems-4.8/sparc-rtems/leon2/lib/librtemscpu.a(libscore_a-threadtickletimeslice.o)
 .debug_frame   0x00003ff8       0x28 /opt/rtems-4.8/sparc-rtems/leon2/lib/librtemscpu.a(libscore_a-threadyieldprocessor.o)
 .debug_frame   0x00004020       0x20 /opt/rtems-4.8/sparc-rtems/leon2/lib/librtemscpu.a(libscore_a-timespecaddto.o)
 .debug_frame   0x00004040       0x20 /opt/rtems-4.8/sparc-rtems/leon2/lib/librtemscpu.a(libscore_a-timespecgreaterthan.o)
 .debug_frame   0x00004060       0x20 /opt/rtems-4.8/sparc-rtems/leon2/lib/librtemscpu.a(libscore_a-timespeclessthan.o)
 .debug_frame   0x00004080       0x20 /opt/rtems-4.8/sparc-rtems/leon2/lib/librtemscpu.a(libscore_a-timespecsubtract.o)
 .debug_frame   0x000040a0       0x28 /opt/rtems-4.8/sparc-rtems/leon2/lib/librtemscpu.a(libscore_a-userext.o)
 .debug_frame   0x000040c8       0x28 /opt/rtems-4.8/sparc-rtems/leon2/lib/librtemscpu.a(libscore_a-userextaddset.o)
 .debug_frame   0x000040f0       0x58 /opt/rtems-4.8/sparc-rtems/leon2/lib/librtemscpu.a(libscore_a-userextthreadbegin.o)
 .debug_frame   0x00004148       0x28 /opt/rtems-4.8/sparc-rtems/leon2/lib/librtemscpu.a(libscore_a-userextthreadcreate.o)
 .debug_frame   0x00004170       0x28 /opt/rtems-4.8/sparc-rtems/leon2/lib/librtemscpu.a(libscore_a-userextthreaddelete.o)
 .debug_frame   0x00004198       0x28 /opt/rtems-4.8/sparc-rtems/leon2/lib/librtemscpu.a(libscore_a-userextthreadstart.o)
 .debug_frame   0x000041c0       0x28 /opt/rtems-4.8/sparc-rtems/leon2/lib/librtemscpu.a(libscore_a-userextthreadswitch.o)
 .debug_frame   0x000041e8       0x20 /opt/rtems-4.8/sparc-rtems/leon2/lib/librtemscpu.a(libscore_a-watchdog.o)
 .debug_frame   0x00004208       0x28 /opt/rtems-4.8/sparc-rtems/leon2/lib/librtemscpu.a(libscore_a-watchdoginsert.o)
 .debug_frame   0x00004230       0x28 /opt/rtems-4.8/sparc-rtems/leon2/lib/librtemscpu.a(libscore_a-watchdogremove.o)
 .debug_frame   0x00004258       0x28 /opt/rtems-4.8/sparc-rtems/leon2/lib/librtemscpu.a(libscore_a-watchdogtickle.o)
 .debug_frame   0x00004280       0x40 /opt/rtems-4.8/sparc-rtems/leon2/lib/librtemscpu.a(libscore_a-wkspace.o)
 .debug_frame   0x000042c0       0x70 /opt/rtems-4.8/sparc-rtems/leon2/lib/librtemscpu.a(libscorecpu_a-cpu.o)
 .debug_frame   0x00004330       0x20 /opt/rtems-4.8/sparc-rtems/leon2/lib/librtemscpu.a(miniimfs_init.o)
 .debug_frame   0x00004350       0xb0 /opt/rtems-4.8/sparc-rtems/leon2/lib/librtemscpu.a(imfs_eval.o)
 .debug_frame   0x00004400       0x28 /opt/rtems-4.8/sparc-rtems/leon2/lib/librtemscpu.a(imfs_getchild.o)
 .debug_frame   0x00004428       0x28 /opt/rtems-4.8/sparc-rtems/leon2/lib/librtemscpu.a(imfs_gtkn.o)
 .debug_frame   0x00004450       0x28 /opt/rtems-4.8/sparc-rtems/leon2/lib/librtemscpu.a(imfs_initsupp.o)
 .debug_frame   0x00004478       0x28 /opt/rtems-4.8/sparc-rtems/leon2/lib/librtemscpu.a(imfs_mknod.o)
 .debug_frame   0x000044a0       0x20 /opt/rtems-4.8/sparc-rtems/leon2/lib/librtemscpu.a(imfs_ntype.o)
 .debug_frame   0x000044c0       0x28 /opt/rtems-4.8/sparc-rtems/leon2/lib/librtemscpu.a(imfs_rmnod.o)
 .debug_frame   0x000044e8       0x28 /opt/rtems-4.8/sparc-rtems/leon2/lib/librtemscpu.a(imfs_stat.o)
 .debug_frame   0x00004510       0x28 /opt/rtems-4.8/sparc-rtems/leon2/lib/librtemscpu.a(libc_a-inet_ntoa.o)
 .debug_frame   0x00004538       0x40 /opt/rtems-4.8/sparc-rtems/leon2/lib/librtemscpu.a(libc_a-inet_ntop.o)
 .debug_frame   0x00004578       0x48 /opt/rtems-4.8/sparc-rtems/leon2/lib/librtemscpu.a(libcsupport_a-__gettod.o)
 .debug_frame   0x000045c0       0x28 /opt/rtems-4.8/sparc-rtems/leon2/lib/librtemscpu.a(libcsupport_a-assoclocalbyremote.o)
 .debug_frame   0x000045e8       0x28 /opt/rtems-4.8/sparc-rtems/leon2/lib/librtemscpu.a(libcsupport_a-assoclocalbyremotebitfield.o)
 .debug_frame   0x00004610       0x28 /opt/rtems-4.8/sparc-rtems/leon2/lib/librtemscpu.a(libcsupport_a-assocptrbyremote.o)
 .debug_frame   0x00004638       0x28 /opt/rtems-4.8/sparc-rtems/leon2/lib/librtemscpu.a(libcsupport_a-base_fs.o)
 .debug_frame   0x00004660       0x68 /opt/rtems-4.8/sparc-rtems/leon2/lib/librtemscpu.a(libcsupport_a-error.o)
 .debug_frame   0x000046c8       0x20 /opt/rtems-4.8/sparc-rtems/leon2/lib/librtemscpu.a(libcsupport_a-getegid.o)
 .debug_frame   0x000046e8       0x20 /opt/rtems-4.8/sparc-rtems/leon2/lib/librtemscpu.a(libcsupport_a-geteuid.o)
 .debug_frame   0x00004708       0x28 /opt/rtems-4.8/sparc-rtems/leon2/lib/librtemscpu.a(libcsupport_a-ioctl.o)
 .debug_frame   0x00004730       0x40 /opt/rtems-4.8/sparc-rtems/leon2/lib/librtemscpu.a(libcsupport_a-libio_sockets.o)
 .debug_frame   0x00004770       0x38 /opt/rtems-4.8/sparc-rtems/leon2/lib/librtemscpu.a(libcsupport_a-mount.o)
 .debug_frame   0x000047a8       0x40 /opt/rtems-4.8/sparc-rtems/leon2/lib/librtemscpu.a(libcsupport_a-newlibc_exit.o)
 .debug_frame   0x000047e8       0x38 /opt/rtems-4.8/sparc-rtems/leon2/lib/librtemscpu.a(libcsupport_a-open.o)
 .debug_frame   0x00004820       0xb8 /opt/rtems-4.8/sparc-rtems/leon2/lib/librtemscpu.a(libnetworking_a-if_ether.o)
 .debug_frame   0x000048d8       0xb8 /opt/rtems-4.8/sparc-rtems/leon2/lib/librtemscpu.a(libnetworking_a-in.o)
 .debug_frame   0x00004990       0x28 /opt/rtems-4.8/sparc-rtems/leon2/lib/librtemscpu.a(libnetworking_a-in_cksum.o)
 .debug_frame   0x000049b8      0x160 /opt/rtems-4.8/sparc-rtems/leon2/lib/librtemscpu.a(libnetworking_a-in_pcb.o)
 .debug_frame   0x00004b18       0xb8 /opt/rtems-4.8/sparc-rtems/leon2/lib/librtemscpu.a(libnetworking_a-in_rmx.o)
 .debug_frame   0x00004bd0       0x80 /opt/rtems-4.8/sparc-rtems/leon2/lib/librtemscpu.a(libnetworking_a-ip_icmp.o)
 .debug_frame   0x00004c50       0x58 /opt/rtems-4.8/sparc-rtems/leon2/lib/librtemscpu.a(libnetworking_a-kern_subr.o)
 .debug_frame   0x00004ca8       0x60 /opt/rtems-4.8/sparc-rtems/leon2/lib/librtemscpu.a(libnetworking_a-raw_usrreq.o)
 .debug_frame   0x00004d08       0x20 /opt/rtems-4.8/sparc-rtems/leon2/lib/librtemscpu.a(libnetworking_a-rtems_bsdnet_malloc_starvation.o)
 .debug_frame   0x00004d28       0x98 /opt/rtems-4.8/sparc-rtems/leon2/lib/librtemscpu.a(libnetworking_a-tcp_input.o)
 .debug_frame   0x00004dc0       0x40 /opt/rtems-4.8/sparc-rtems/leon2/lib/librtemscpu.a(libnetworking_a-tcp_output.o)
 .debug_frame   0x00004e00      0x150 /opt/rtems-4.8/sparc-rtems/leon2/lib/librtemscpu.a(libnetworking_a-tcp_subr.o)
 .debug_frame   0x00004f50       0x68 /opt/rtems-4.8/sparc-rtems/leon2/lib/librtemscpu.a(libnetworking_a-tcp_timer.o)
 .debug_frame   0x00004fb8      0x1d0 /opt/rtems-4.8/sparc-rtems/leon2/lib/librtemscpu.a(libnetworking_a-tcp_usrreq.o)
 .debug_frame   0x00005188       0xb0 /opt/rtems-4.8/sparc-rtems/leon2/lib/librtemscpu.a(libnetworking_a-udp_usrreq.o)
 .debug_frame   0x00005238       0x28 /opt/rtems-4.8/sparc-rtems/leon2/lib/librtemscpu.a(libposix_a-cond.o)
 .debug_frame   0x00005260       0x28 /opt/rtems-4.8/sparc-rtems/leon2/lib/librtemscpu.a(libposix_a-key.o)
 .debug_frame   0x00005288       0x28 /opt/rtems-4.8/sparc-rtems/leon2/lib/librtemscpu.a(libposix_a-mqueue.o)
 .debug_frame   0x000052b0       0x28 /opt/rtems-4.8/sparc-rtems/leon2/lib/librtemscpu.a(libposix_a-mutex.o)
 .debug_frame   0x000052d8       0x28 /opt/rtems-4.8/sparc-rtems/leon2/lib/librtemscpu.a(libposix_a-pbarrier.o)
 .debug_frame   0x00005300       0x28 /opt/rtems-4.8/sparc-rtems/leon2/lib/librtemscpu.a(libposix_a-prwlock.o)
 .debug_frame   0x00005328       0x58 /opt/rtems-4.8/sparc-rtems/leon2/lib/librtemscpu.a(libposix_a-psignal.o)
 .debug_frame   0x00005380       0x28 /opt/rtems-4.8/sparc-rtems/leon2/lib/librtemscpu.a(libposix_a-psignalchecksignal.o)
 .debug_frame   0x000053a8       0x28 /opt/rtems-4.8/sparc-rtems/leon2/lib/librtemscpu.a(libposix_a-psignalclearsignals.o)
 .debug_frame   0x000053d0       0x28 /opt/rtems-4.8/sparc-rtems/leon2/lib/librtemscpu.a(libposix_a-pspin.o)
 .debug_frame   0x000053f8       0xa8 /opt/rtems-4.8/sparc-rtems/leon2/lib/librtemscpu.a(libposix_a-pthread.o)
 .debug_frame   0x000054a0       0x28 /opt/rtems-4.8/sparc-rtems/leon2/lib/librtemscpu.a(libposix_a-pthreadexit.o)
 .debug_frame   0x000054c8       0x28 /opt/rtems-4.8/sparc-rtems/leon2/lib/librtemscpu.a(libposix_a-ptimer.o)
 .debug_frame   0x000054f0       0x28 /opt/rtems-4.8/sparc-rtems/leon2/lib/librtemscpu.a(libposix_a-semaphore.o)
 .debug_frame   0x00005518       0x28 /opt/rtems-4.8/sparc-rtems/leon2/lib/librtemscpu.a(libposix_a-sigemptyset.o)
 .debug_frame   0x00005540       0x28 /opt/rtems-4.8/sparc-rtems/leon2/lib/librtemscpu.a(librtems_a-barrier.o)
 .debug_frame   0x00005568       0x28 /opt/rtems-4.8/sparc-rtems/leon2/lib/librtemscpu.a(librtems_a-dpmem.o)
 .debug_frame   0x00005590       0x20 /opt/rtems-4.8/sparc-rtems/leon2/lib/librtemscpu.a(librtems_a-event.o)
 .debug_frame   0x000055b0       0x20 /opt/rtems-4.8/sparc-rtems/leon2/lib/librtemscpu.a(librtems_a-intr.o)
 .debug_frame   0x000055d0       0x28 /opt/rtems-4.8/sparc-rtems/leon2/lib/librtemscpu.a(librtems_a-msg.o)
 .debug_frame   0x000055f8       0x28 /opt/rtems-4.8/sparc-rtems/leon2/lib/librtemscpu.a(librtems_a-part.o)
 .debug_frame   0x00005620       0x28 /opt/rtems-4.8/sparc-rtems/leon2/lib/librtemscpu.a(librtems_a-ratemon.o)
 .debug_frame   0x00005648       0x28 /opt/rtems-4.8/sparc-rtems/leon2/lib/librtemscpu.a(librtems_a-region.o)
 .debug_frame   0x00005670       0x28 /opt/rtems-4.8/sparc-rtems/leon2/lib/librtemscpu.a(librtems_a-rtemstimer.o)
 .debug_frame   0x00005698       0x28 /opt/rtems-4.8/sparc-rtems/leon2/lib/librtemscpu.a(librtems_a-sem.o)
 .debug_frame   0x000056c0       0x20 /opt/rtems-4.8/sparc-rtems/leon2/lib/librtemscpu.a(librtems_a-signal.o)
 .debug_frame   0x000056e0       0xa8 /opt/rtems-4.8/sparc-rtems/leon2/lib/librtemscpu.a(librtems_a-tasks.o)
 .debug_frame   0x00005788       0x50 /opt/rtems-4.8/sparc-rtems/leon2/lib/librtemscpu.a(libsapi_a-debug.o)
 .debug_frame   0x000057d8       0x28 /opt/rtems-4.8/sparc-rtems/leon2/lib/librtemscpu.a(libsapi_a-exshutdown.o)
 .debug_frame   0x00005800       0x28 /opt/rtems-4.8/sparc-rtems/leon2/lib/librtemscpu.a(libscore_a-chain.o)
 .debug_frame   0x00005828       0x28 /opt/rtems-4.8/sparc-rtems/leon2/lib/librtemscpu.a(libscore_a-chainextract.o)
 .debug_frame   0x00005850       0x28 /opt/rtems-4.8/sparc-rtems/leon2/lib/librtemscpu.a(libscore_a-heapextend.o)
 .debug_frame   0x00005878       0x28 /opt/rtems-4.8/sparc-rtems/leon2/lib/librtemscpu.a(libscore_a-heapresizeblock.o)
 .debug_frame   0x000058a0       0x28 /opt/rtems-4.8/sparc-rtems/leon2/lib/librtemscpu.a(libscore_a-heapsizeofuserarea.o)
 .debug_frame   0x000058c8       0x20 /opt/rtems-4.8/sparc-rtems/leon2/lib/librtemscpu.a(libscore_a-objectcomparenameraw.o)
 .debug_frame   0x000058e8       0x28 /opt/rtems-4.8/sparc-rtems/leon2/lib/librtemscpu.a(libscore_a-objectcomparenamestring.o)
 .debug_frame   0x00005910       0x28 /opt/rtems-4.8/sparc-rtems/leon2/lib/librtemscpu.a(libscore_a-threadloadenv.o)
 .debug_frame   0x00005938       0x20 /opt/rtems-4.8/sparc-rtems/leon2/lib/librtemscpu.a(libscore_a-threadqextract.o)
 .debug_frame   0x00005958       0x28 /opt/rtems-4.8/sparc-rtems/leon2/lib/librtemscpu.a(libscore_a-threadqextractfifo.o)
 .debug_frame   0x00005980       0x28 /opt/rtems-4.8/sparc-rtems/leon2/lib/librtemscpu.a(libscore_a-threadqextractpriority.o)
 .debug_frame   0x000059a8       0x28 /opt/rtems-4.8/sparc-rtems/leon2/lib/librtemscpu.a(libscore_a-threadready.o)
 .debug_frame   0x000059d0       0x28 /opt/rtems-4.8/sparc-rtems/leon2/lib/librtemscpu.a(libscore_a-threadresettimeslice.o)
 .debug_frame   0x000059f8       0x28 /opt/rtems-4.8/sparc-rtems/leon2/lib/librtemscpu.a(libscore_a-timespectoticks.o)
 .debug_frame   0x00005a20       0x28 /opt/rtems-4.8/sparc-rtems/leon2/lib/librtemscpu.a(libscore_a-userextaddapiset.o)
 .debug_frame   0x00005a48       0xb0 /opt/rtems-4.8/sparc-rtems/leon2/lib/librtemscpu.a(deviceio.o)
 .debug_frame   0x00005af8       0x28 /opt/rtems-4.8/sparc-rtems/leon2/lib/librtemscpu.a(imfs_creat.o)
 .debug_frame   0x00005b20       0x28 /opt/rtems-4.8/sparc-rtems/leon2/lib/librtemscpu.a(imfs_fchmod.o)
 .debug_frame   0x00005b48       0x28 /opt/rtems-4.8/sparc-rtems/leon2/lib/librtemscpu.a(libcsupport_a-assocnamebylocal.o)
 .debug_frame   0x00005b70       0x28 /opt/rtems-4.8/sparc-rtems/leon2/lib/librtemscpu.a(libcsupport_a-assocptrbylocal.o)
 .debug_frame   0x00005b98       0x28 /opt/rtems-4.8/sparc-rtems/leon2/lib/librtemscpu.a(libcsupport_a-assocremotebylocal.o)
 .debug_frame   0x00005bc0       0x28 /opt/rtems-4.8/sparc-rtems/leon2/lib/librtemscpu.a(libcsupport_a-ftruncate.o)
 .debug_frame   0x00005be8       0xc0 /opt/rtems-4.8/sparc-rtems/leon2/lib/librtemscpu.a(libnetworking_a-igmp.o)
 .debug_frame   0x00005ca8       0x48 /opt/rtems-4.8/sparc-rtems/leon2/lib/librtemscpu.a(libnetworking_a-raw_cb.o)
 .debug_frame   0x00005cf0       0x28 /opt/rtems-4.8/sparc-rtems/leon2/lib/librtemscpu.a(libposix_a-keyrundestructors.o)
 .debug_frame   0x00005d18       0x28 /opt/rtems-4.8/sparc-rtems/leon2/lib/librtemscpu.a(libposix_a-psignalclearprocesssignals.o)
 .debug_frame   0x00005d40       0x28 /opt/rtems-4.8/sparc-rtems/leon2/lib/librtemscpu.a(librtems_a-taskmode.o)
 .debug_frame   0x00005d68       0x28 /opt/rtems-4.8/sparc-rtems/leon2/lib/librtemscpu.a(libsapi_a-ioclose.o)
 .debug_frame   0x00005d90       0x28 /opt/rtems-4.8/sparc-rtems/leon2/lib/librtemscpu.a(libsapi_a-iocontrol.o)
 .debug_frame   0x00005db8       0x28 /opt/rtems-4.8/sparc-rtems/leon2/lib/librtemscpu.a(libsapi_a-ioopen.o)
 .debug_frame   0x00005de0       0x28 /opt/rtems-4.8/sparc-rtems/leon2/lib/librtemscpu.a(libsapi_a-ioread.o)
 .debug_frame   0x00005e08       0x28 /opt/rtems-4.8/sparc-rtems/leon2/lib/librtemscpu.a(libsapi_a-iowrite.o)
 .debug_frame   0x00005e30       0x20 /opt/rtems-4.8/sparc-rtems/leon2/lib/librtemscpu.a(libscore_a-threadevaluatemode.o)
 .debug_frame   0x00005e50       0x28 /opt/rtems-4.8/sparc-rtems/leon2/lib/librtemscpu.a(libscore_a-threadhandler.o)
 .debug_frame   0x00005e78       0x20 /opt/rtems-4.8/sparc-rtems/leon2/lib/librtemscpu.a(libcsupport_a-assocnamebad.o)
 .debug_frame   0x00005e98       0x28 /opt/rtems-4.8-1.1.3/bin/../lib/gcc/sparc-rtems/4.2.4/../../../../sparc-rtems/lib/soft/libc.a(lib_a-abort.o)
 .debug_frame   0x00005ec0       0x20 /opt/rtems-4.8-1.1.3/bin/../lib/gcc/sparc-rtems/4.2.4/../../../../sparc-rtems/lib/soft/libc.a(lib_a-atexit.o)
 .debug_frame   0x00005ee0       0x20 /opt/rtems-4.8-1.1.3/bin/../lib/gcc/sparc-rtems/4.2.4/../../../../sparc-rtems/lib/soft/libc.a(lib_a-bcmp.o)
 .debug_frame   0x00005f00       0x20 /opt/rtems-4.8-1.1.3/bin/../lib/gcc/sparc-rtems/4.2.4/../../../../sparc-rtems/lib/soft/libc.a(lib_a-errno.o)
 .debug_frame   0x00005f20       0x28 /opt/rtems-4.8-1.1.3/bin/../lib/gcc/sparc-rtems/4.2.4/../../../../sparc-rtems/lib/soft/libc.a(lib_a-exit.o)
 .debug_frame   0x00005f48       0x38 /opt/rtems-4.8-1.1.3/bin/../lib/gcc/sparc-rtems/4.2.4/../../../../sparc-rtems/lib/soft/libc.a(lib_a-fclose.o)
 .debug_frame   0x00005f80       0x28 /opt/rtems-4.8-1.1.3/bin/../lib/gcc/sparc-rtems/4.2.4/../../../../sparc-rtems/lib/soft/libc.a(lib_a-fflush.o)
 .debug_frame   0x00005fa8       0x28 /opt/rtems-4.8-1.1.3/bin/../lib/gcc/sparc-rtems/4.2.4/../../../../sparc-rtems/lib/soft/libc.a(lib_a-fileno.o)
 .debug_frame   0x00005fd0      0x108 /opt/rtems-4.8-1.1.3/bin/../lib/gcc/sparc-rtems/4.2.4/../../../../sparc-rtems/lib/soft/libc.a(lib_a-findfp.o)
 .debug_frame   0x000060d8       0x28 /opt/rtems-4.8-1.1.3/bin/../lib/gcc/sparc-rtems/4.2.4/../../../../sparc-rtems/lib/soft/libc.a(lib_a-fprintf.o)
 .debug_frame   0x00006100       0x40 /opt/rtems-4.8-1.1.3/bin/../lib/gcc/sparc-rtems/4.2.4/../../../../sparc-rtems/lib/soft/libc.a(lib_a-fwalk.o)
 .debug_frame   0x00006140       0x20 /opt/rtems-4.8-1.1.3/bin/../lib/gcc/sparc-rtems/4.2.4/../../../../sparc-rtems/lib/soft/libc.a(lib_a-gmtime_r.o)
 .debug_frame   0x00006160       0x20 /opt/rtems-4.8-1.1.3/bin/../lib/gcc/sparc-rtems/4.2.4/../../../../sparc-rtems/lib/soft/libc.a(lib_a-memcmp.o)
 .debug_frame   0x00006180       0x20 /opt/rtems-4.8-1.1.3/bin/../lib/gcc/sparc-rtems/4.2.4/../../../../sparc-rtems/lib/soft/libc.a(lib_a-memcpy.o)
 .debug_frame   0x000061a0       0x20 /opt/rtems-4.8-1.1.3/bin/../lib/gcc/sparc-rtems/4.2.4/../../../../sparc-rtems/lib/soft/libc.a(lib_a-memset.o)
 .debug_frame   0x000061c0       0x40 /opt/rtems-4.8-1.1.3/bin/../lib/gcc/sparc-rtems/4.2.4/../../../../sparc-rtems/lib/soft/libc.a(lib_a-mktm_r.o)
 .debug_frame   0x00006200       0x40 /opt/rtems-4.8-1.1.3/bin/../lib/gcc/sparc-rtems/4.2.4/../../../../sparc-rtems/lib/soft/libc.a(lib_a-printf.o)
 .debug_frame   0x00006240       0x30 /opt/rtems-4.8-1.1.3/bin/../lib/gcc/sparc-rtems/4.2.4/../../../../sparc-rtems/lib/soft/libc.a(lib_a-putchar.o)
 .debug_frame   0x00006270       0x38 /opt/rtems-4.8-1.1.3/bin/../lib/gcc/sparc-rtems/4.2.4/../../../../sparc-rtems/lib/soft/libc.a(lib_a-puts.o)
 .debug_frame   0x000062a8       0x38 /opt/rtems-4.8-1.1.3/bin/../lib/gcc/sparc-rtems/4.2.4/../../../../sparc-rtems/lib/soft/libc.a(lib_a-raise.o)
 .debug_frame   0x000062e0       0x58 /opt/rtems-4.8-1.1.3/bin/../lib/gcc/sparc-rtems/4.2.4/../../../../sparc-rtems/lib/soft/libc.a(lib_a-reent.o)
 .debug_frame   0x00006338       0x40 /opt/rtems-4.8-1.1.3/bin/../lib/gcc/sparc-rtems/4.2.4/../../../../sparc-rtems/lib/soft/libc.a(lib_a-snprintf.o)
 .debug_frame   0x00006378       0x40 /opt/rtems-4.8-1.1.3/bin/../lib/gcc/sparc-rtems/4.2.4/../../../../sparc-rtems/lib/soft/libc.a(lib_a-sprintf.o)
 .debug_frame   0x000063b8       0x68 /opt/rtems-4.8-1.1.3/bin/../lib/gcc/sparc-rtems/4.2.4/../../../../sparc-rtems/lib/soft/libc.a(lib_a-stdio.o)
 .debug_frame   0x00006420       0x20 /opt/rtems-4.8-1.1.3/bin/../lib/gcc/sparc-rtems/4.2.4/../../../../sparc-rtems/lib/soft/libc.a(lib_a-strchr.o)
 .debug_frame   0x00006440       0x20 /opt/rtems-4.8-1.1.3/bin/../lib/gcc/sparc-rtems/4.2.4/../../../../sparc-rtems/lib/soft/libc.a(lib_a-strcmp.o)
 .debug_frame   0x00006460       0x20 /opt/rtems-4.8-1.1.3/bin/../lib/gcc/sparc-rtems/4.2.4/../../../../sparc-rtems/lib/soft/libc.a(lib_a-strcpy.o)
 .debug_frame   0x00006480       0x20 /opt/rtems-4.8-1.1.3/bin/../lib/gcc/sparc-rtems/4.2.4/../../../../sparc-rtems/lib/soft/libc.a(lib_a-strdup.o)
 .debug_frame   0x000064a0       0x28 /opt/rtems-4.8-1.1.3/bin/../lib/gcc/sparc-rtems/4.2.4/../../../../sparc-rtems/lib/soft/libc.a(lib_a-strdup_r.o)
 .debug_frame   0x000064c8       0x28 /opt/rtems-4.8-1.1.3/bin/../lib/gcc/sparc-rtems/4.2.4/../../../../sparc-rtems/lib/soft/libc.a(lib_a-strerror.o)
 .debug_frame   0x000064f0       0x20 /opt/rtems-4.8-1.1.3/bin/../lib/gcc/sparc-rtems/4.2.4/../../../../sparc-rtems/lib/soft/libc.a(lib_a-strlcpy.o)
 .debug_frame   0x00006510       0x20 /opt/rtems-4.8-1.1.3/bin/../lib/gcc/sparc-rtems/4.2.4/../../../../sparc-rtems/lib/soft/libc.a(lib_a-strlen.o)
 .debug_frame   0x00006530       0x20 /opt/rtems-4.8-1.1.3/bin/../lib/gcc/sparc-rtems/4.2.4/../../../../sparc-rtems/lib/soft/libc.a(lib_a-strncmp.o)
 .debug_frame   0x00006550       0x20 /opt/rtems-4.8-1.1.3/bin/../lib/gcc/sparc-rtems/4.2.4/../../../../sparc-rtems/lib/soft/libc.a(lib_a-strncpy.o)
 .debug_frame   0x00006570       0x30 /opt/rtems-4.8-1.1.3/bin/../lib/gcc/sparc-rtems/4.2.4/../../../../sparc-rtems/lib/soft/libc.a(lib_a-tzlock.o)
 .debug_frame   0x000065a0       0x20 /opt/rtems-4.8-1.1.3/bin/../lib/gcc/sparc-rtems/4.2.4/../../../../sparc-rtems/lib/soft/libc.a(lib_a-u_strerr.o)
 .debug_frame   0x000065c0       0x50 /opt/rtems-4.8-1.1.3/bin/../lib/gcc/sparc-rtems/4.2.4/../../../../sparc-rtems/lib/soft/libc.a(lib_a-vfprintf.o)
 .debug_frame   0x00006610       0x30 /opt/rtems-4.8-1.1.3/bin/../lib/gcc/sparc-rtems/4.2.4/../../../../sparc-rtems/lib/soft/libc.a(lib_a-vprintf.o)
 .debug_frame   0x00006640       0x38 /opt/rtems-4.8-1.1.3/bin/../lib/gcc/sparc-rtems/4.2.4/../../../../sparc-rtems/lib/soft/libc.a(lib_a-wcrtomb.o)
 .debug_frame   0x00006678       0x38 /opt/rtems-4.8-1.1.3/bin/../lib/gcc/sparc-rtems/4.2.4/../../../../sparc-rtems/lib/soft/libc.a(lib_a-wcsrtombs.o)
 .debug_frame   0x000066b0       0x28 /opt/rtems-4.8-1.1.3/bin/../lib/gcc/sparc-rtems/4.2.4/../../../../sparc-rtems/lib/soft/libc.a(lib_a-wctomb_r.o)
 .debug_frame   0x000066d8       0x28 /opt/rtems-4.8-1.1.3/bin/../lib/gcc/sparc-rtems/4.2.4/../../../../sparc-rtems/lib/soft/libc.a(lib_a-wsetup.o)
 .debug_frame   0x00006700       0x28 /opt/rtems-4.8-1.1.3/bin/../lib/gcc/sparc-rtems/4.2.4/../../../../sparc-rtems/lib/soft/libc.a(lib_a-__atexit.o)
 .debug_frame   0x00006728       0x28 /opt/rtems-4.8-1.1.3/bin/../lib/gcc/sparc-rtems/4.2.4/../../../../sparc-rtems/lib/soft/libc.a(lib_a-__call_atexit.o)
 .debug_frame   0x00006750       0x40 /opt/rtems-4.8-1.1.3/bin/../lib/gcc/sparc-rtems/4.2.4/../../../../sparc-rtems/lib/soft/libc.a(lib_a-dtoa.o)
 .debug_frame   0x00006790       0x28 /opt/rtems-4.8-1.1.3/bin/../lib/gcc/sparc-rtems/4.2.4/../../../../sparc-rtems/lib/soft/libc.a(lib_a-fvwrite.o)
 .debug_frame   0x000067b8       0x20 /opt/rtems-4.8-1.1.3/bin/../lib/gcc/sparc-rtems/4.2.4/../../../../sparc-rtems/lib/soft/libc.a(lib_a-gettzinfo.o)
 .debug_frame   0x000067d8       0x68 /opt/rtems-4.8-1.1.3/bin/../lib/gcc/sparc-rtems/4.2.4/../../../../sparc-rtems/lib/soft/libc.a(lib_a-locale.o)
 .debug_frame   0x00006840       0x28 /opt/rtems-4.8-1.1.3/bin/../lib/gcc/sparc-rtems/4.2.4/../../../../sparc-rtems/lib/soft/libc.a(lib_a-makebuf.o)
 .debug_frame   0x00006868       0x20 /opt/rtems-4.8-1.1.3/bin/../lib/gcc/sparc-rtems/4.2.4/../../../../sparc-rtems/lib/soft/libc.a(lib_a-memchr.o)
 .debug_frame   0x00006888       0x20 /opt/rtems-4.8-1.1.3/bin/../lib/gcc/sparc-rtems/4.2.4/../../../../sparc-rtems/lib/soft/libc.a(lib_a-memmove.o)
 .debug_frame   0x000068a8      0x1a0 /opt/rtems-4.8-1.1.3/bin/../lib/gcc/sparc-rtems/4.2.4/../../../../sparc-rtems/lib/soft/libc.a(lib_a-mprec.o)
 .debug_frame   0x00006a48       0x40 /opt/rtems-4.8-1.1.3/bin/../lib/gcc/sparc-rtems/4.2.4/../../../../sparc-rtems/lib/soft/libc.a(lib_a-putc.o)
 .debug_frame   0x00006a88       0x20 /opt/rtems-4.8-1.1.3/bin/../lib/gcc/sparc-rtems/4.2.4/../../../../sparc-rtems/lib/soft/libc.a(lib_a-s_isinfd.o)
 .debug_frame   0x00006aa8       0x20 /opt/rtems-4.8-1.1.3/bin/../lib/gcc/sparc-rtems/4.2.4/../../../../sparc-rtems/lib/soft/libc.a(lib_a-s_isnand.o)
 .debug_frame   0x00006ac8       0x38 /opt/rtems-4.8-1.1.3/bin/../lib/gcc/sparc-rtems/4.2.4/../../../../sparc-rtems/lib/soft/libc.a(lib_a-wbuf.o)
 .debug_frame   0x00006b00       0x28 /opt/rtems-4.8-1.1.3/bin/../lib/gcc/sparc-rtems/4.2.4/soft/libgcc.a(_udivdi3.o)
 .debug_frame   0x00006b28       0x28 /opt/rtems-4.8-1.1.3/bin/../lib/gcc/sparc-rtems/4.2.4/soft/libgcc.a(_umoddi3.o)
 .debug_frame   0x00006b50       0x58 /opt/rtems-4.8-1.1.3/bin/../lib/gcc/sparc-rtems/4.2.4/soft/libgcc.a(_addsub_df.o)
 .debug_frame   0x00006ba8       0x28 /opt/rtems-4.8-1.1.3/bin/../lib/gcc/sparc-rtems/4.2.4/soft/libgcc.a(_div_df.o)
 .debug_frame   0x00006bd0       0x28 /opt/rtems-4.8-1.1.3/bin/../lib/gcc/sparc-rtems/4.2.4/soft/libgcc.a(_eq_df.o)
 .debug_frame   0x00006bf8       0x28 /opt/rtems-4.8-1.1.3/bin/../lib/gcc/sparc-rtems/4.2.4/soft/libgcc.a(_ne_df.o)
 .debug_frame   0x00006c20       0x28 /opt/rtems-4.8-1.1.3/bin/../lib/gcc/sparc-rtems/4.2.4/soft/libgcc.a(_gt_df.o)
 .debug_frame   0x00006c48       0x28 /opt/rtems-4.8-1.1.3/bin/../lib/gcc/sparc-rtems/4.2.4/soft/libgcc.a(_ge_df.o)
 .debug_frame   0x00006c70       0x28 /opt/rtems-4.8-1.1.3/bin/../lib/gcc/sparc-rtems/4.2.4/soft/libgcc.a(_lt_df.o)
 .debug_frame   0x00006c98       0x28 /opt/rtems-4.8-1.1.3/bin/../lib/gcc/sparc-rtems/4.2.4/soft/libgcc.a(_si_to_df.o)
 .debug_frame   0x00006cc0       0x28 /opt/rtems-4.8-1.1.3/bin/../lib/gcc/sparc-rtems/4.2.4/soft/libgcc.a(_df_to_si.o)
 .debug_frame   0x00006ce8       0x20 /opt/rtems-4.8-1.1.3/bin/../lib/gcc/sparc-rtems/4.2.4/soft/libgcc.a(_fpcmp_parts_df.o)
 .debug_frame   0x00006d08      0x190 /opt/rtems-4.8/sparc-rtems/leon2/lib/librtemsbsp.a(cache.rel)
 .debug_frame   0x00006e98       0x38 /opt/rtems-4.8/sparc-rtems/leon2/lib/librtemscpu.a(libcsupport_a-fstat.o)
 .debug_frame   0x00006ed0       0x30 /opt/rtems-4.8/sparc-rtems/leon2/lib/librtemscpu.a(libcsupport_a-getpid.o)
 .debug_frame   0x00006f00       0x28 /opt/rtems-4.8/sparc-rtems/leon2/lib/librtemscpu.a(libcsupport_a-isatty.o)
 .debug_frame   0x00006f28       0x38 /opt/rtems-4.8/sparc-rtems/leon2/lib/librtemscpu.a(libcsupport_a-lseek.o)
 .debug_frame   0x00006f60       0x38 /opt/rtems-4.8/sparc-rtems/leon2/lib/librtemscpu.a(libcsupport_a-read.o)
 .debug_frame   0x00006f98       0x20 /opt/rtems-4.8/sparc-rtems/leon2/lib/librtemscpu.a(libcsupport_a-write_r.o)
 .debug_frame   0x00006fb8       0x30 /opt/rtems-4.8/sparc-rtems/leon2/lib/librtemscpu.a(libposix_a-kill.o)
 .debug_frame   0x00006fe8       0x28 /opt/rtems-4.8/sparc-rtems/leon2/lib/librtemscpu.a(libposix_a-killinfo.o)
 .debug_frame   0x00007010       0x28 /opt/rtems-4.8/sparc-rtems/leon2/lib/librtemscpu.a(libposix_a-psignalsetprocesssignals.o)
 .debug_frame   0x00007038       0x28 /opt/rtems-4.8/sparc-rtems/leon2/lib/librtemscpu.a(libposix_a-psignalunblockthread.o)
 .debug_frame   0x00007060       0x28 /opt/rtems-4.8/sparc-rtems/leon2/lib/librtemscpu.a(libposix_a-pthreadkill.o)
 .debug_frame   0x00007088       0x20 /opt/rtems-4.8/sparc-rtems/leon2/lib/librtemscpu.a(libposix_a-pthreadself.o)
 .debug_frame   0x000070a8       0x58 /opt/rtems-4.8/sparc-rtems/leon2/lib/librtemscpu.a(libposix_a-types.o)
 .debug_frame   0x00007100       0x28 /opt/rtems-4.8/sparc-rtems/leon2/lib/librtemscpu.a(libcsupport_a-write.o)

.debug_loc      0x00000000    0x27cf3
 .debug_loc     0x00000000      0x41a /home/aitor/workspace/rasta-sw/osal-repo/trunk/samples/misc/soclient.o
 .debug_loc     0x0000041a       0xa1 libosal_rtems_rastaleon2.a(osapi.o)
 .debug_loc     0x000004bb      0x614 libosal_rtems_rastaleon2.a(osmut.o)
 .debug_loc     0x00000acf      0x59b libosal_rtems_rastaleon2.a(ostask.o)
 .debug_loc     0x0000106a       0x3c libosal_rtems_rastaleon2.a(rtems-config.o)
 .debug_loc     0x000010a6      0x335 /opt/rtems-4.8-1.1.3/bin/../lib/gcc/sparc-rtems/4.2.4/soft/libgcc.a(_mul_df.o)
 .debug_loc     0x000013db       0x70 /opt/rtems-4.8-1.1.3/bin/../lib/gcc/sparc-rtems/4.2.4/soft/libgcc.a(_usi_to_df.o)
 .debug_loc     0x0000144b       0x4e /opt/rtems-4.8-1.1.3/bin/../lib/gcc/sparc-rtems/4.2.4/soft/libgcc.a(_muldi3.o)
 .debug_loc     0x00001499       0x1e /opt/rtems-4.8-1.1.3/bin/../lib/gcc/sparc-rtems/4.2.4/soft/libgcc.a(_clzsi2.o)
 .debug_loc     0x000014b7      0x136 /opt/rtems-4.8-1.1.3/bin/../lib/gcc/sparc-rtems/4.2.4/soft/libgcc.a(_pack_df.o)
 .debug_loc     0x000015ed       0xd2 /opt/rtems-4.8-1.1.3/bin/../lib/gcc/sparc-rtems/4.2.4/soft/libgcc.a(_unpack_df.o)
 .debug_loc     0x000016bf     0x13ab /opt/rtems-4.8/sparc-rtems/leon2/lib/librtemsbsp.a(amba.rel)
 .debug_loc     0x00002a6a       0xe5 /opt/rtems-4.8/sparc-rtems/leon2/lib/librtemsbsp.a(clock.rel)
 .debug_loc     0x00002b4f      0x1a1 /opt/rtems-4.8/sparc-rtems/leon2/lib/librtemsbsp.a(console.rel)
 .debug_loc     0x00002cf0       0x31 /opt/rtems-4.8/sparc-rtems/leon2/lib/librtemsbsp.a(leon_smc91111.rel)
 .debug_loc     0x00002d21     0x161b /opt/rtems-4.8/sparc-rtems/leon2/lib/librtemsbsp.a(libnetchip_a-smc91111.o)
 .debug_loc     0x0000433c      0x70b /opt/rtems-4.8/sparc-rtems/leon2/lib/librtemsbsp.a(startup.rel)
 .debug_loc     0x00004a47      0x24d /opt/rtems-4.8/sparc-rtems/leon2/lib/librtemscpu.a(check.o)
 .debug_loc     0x00004c94       0xcf /opt/rtems-4.8/sparc-rtems/leon2/lib/librtemscpu.a(ioman.o)
 .debug_loc     0x00004d63      0x17a /opt/rtems-4.8/sparc-rtems/leon2/lib/librtemscpu.a(libc_a-inet_addr.o)
 .debug_loc     0x00004edd      0x372 /opt/rtems-4.8/sparc-rtems/leon2/lib/librtemscpu.a(libc_a-inet_pton.o)
 .debug_loc     0x0000524f       0x13 /opt/rtems-4.8/sparc-rtems/leon2/lib/librtemscpu.a(libc_a-recv.o)
 .debug_loc     0x00005262       0x13 /opt/rtems-4.8/sparc-rtems/leon2/lib/librtemscpu.a(libc_a-send.o)
 .debug_loc     0x00005275       0x3c /opt/rtems-4.8/sparc-rtems/leon2/lib/librtemscpu.a(libcsupport_a-__assert.o)
 .debug_loc     0x000052b1       0x78 /opt/rtems-4.8/sparc-rtems/leon2/lib/librtemscpu.a(libcsupport_a-close.o)
 .debug_loc     0x00005329      0x17f /opt/rtems-4.8/sparc-rtems/leon2/lib/librtemscpu.a(libcsupport_a-eval.o)
 .debug_loc     0x000054a8      0x21c /opt/rtems-4.8/sparc-rtems/leon2/lib/librtemscpu.a(libcsupport_a-libio.o)
 .debug_loc     0x000056c4       0x52 /opt/rtems-4.8/sparc-rtems/leon2/lib/librtemscpu.a(libcsupport_a-libio_init.o)
 .debug_loc     0x00005716      0x32f /opt/rtems-4.8/sparc-rtems/leon2/lib/librtemscpu.a(libcsupport_a-malloc.o)
 .debug_loc     0x00005a45       0x26 /opt/rtems-4.8/sparc-rtems/leon2/lib/librtemscpu.a(libcsupport_a-mkdir.o)
 .debug_loc     0x00005a6b       0xed /opt/rtems-4.8/sparc-rtems/leon2/lib/librtemscpu.a(libcsupport_a-mknod.o)
 .debug_loc     0x00005b58       0xa9 /opt/rtems-4.8/sparc-rtems/leon2/lib/librtemscpu.a(libcsupport_a-newlibc.o)
 .debug_loc     0x00005c01       0x1e /opt/rtems-4.8/sparc-rtems/leon2/lib/librtemscpu.a(libcsupport_a-open_dev_console.o)
 .debug_loc     0x00005c1f       0xd8 /opt/rtems-4.8/sparc-rtems/leon2/lib/librtemscpu.a(libcsupport_a-printk.o)
 .debug_loc     0x00005cf7       0x31 /opt/rtems-4.8/sparc-rtems/leon2/lib/librtemscpu.a(libcsupport_a-printk_plugin.o)
 .debug_loc     0x00005d28      0xbe8 /opt/rtems-4.8/sparc-rtems/leon2/lib/librtemscpu.a(libcsupport_a-termios.o)
 .debug_loc     0x00006910       0x47 /opt/rtems-4.8/sparc-rtems/leon2/lib/librtemscpu.a(libcsupport_a-termiosinitialize.o)
 .debug_loc     0x00006957      0x8d0 /opt/rtems-4.8/sparc-rtems/leon2/lib/librtemscpu.a(libnetworking_a-if.o)
 .debug_loc     0x00007227      0x5e7 /opt/rtems-4.8/sparc-rtems/leon2/lib/librtemscpu.a(libnetworking_a-if_ethersubr.o)
 .debug_loc     0x0000780e       0xd8 /opt/rtems-4.8/sparc-rtems/leon2/lib/librtemscpu.a(libnetworking_a-if_loop.o)
 .debug_loc     0x000078e6     0x1698 /opt/rtems-4.8/sparc-rtems/leon2/lib/librtemscpu.a(libnetworking_a-ip_input.o)
 .debug_loc     0x00008f7e       0xa3 /opt/rtems-4.8/sparc-rtems/leon2/lib/librtemscpu.a(libnetworking_a-ip_mroute.o)
 .debug_loc     0x00009021     0x14d8 /opt/rtems-4.8/sparc-rtems/leon2/lib/librtemscpu.a(libnetworking_a-ip_output.o)
 .debug_loc     0x0000a4f9     0x11f5 /opt/rtems-4.8/sparc-rtems/leon2/lib/librtemscpu.a(libnetworking_a-kern_sysctl.o)
 .debug_loc     0x0000b6ee     0x1b8c /opt/rtems-4.8/sparc-rtems/leon2/lib/librtemscpu.a(libnetworking_a-radix.o)
 .debug_loc     0x0000d27a      0x575 /opt/rtems-4.8/sparc-rtems/leon2/lib/librtemscpu.a(libnetworking_a-raw_ip.o)
 .debug_loc     0x0000d7ef      0xb72 /opt/rtems-4.8/sparc-rtems/leon2/lib/librtemscpu.a(libnetworking_a-route.o)
 .debug_loc     0x0000e361      0x8ef /opt/rtems-4.8/sparc-rtems/leon2/lib/librtemscpu.a(libnetworking_a-rtems_glue.o)
 .debug_loc     0x0000ec50       0x13 /opt/rtems-4.8/sparc-rtems/leon2/lib/librtemscpu.a(libnetworking_a-rtems_malloc_mbuf.o)
 .debug_loc     0x0000ec63      0x1d1 /opt/rtems-4.8/sparc-rtems/leon2/lib/librtemscpu.a(libnetworking_a-rtems_showifstat.o)
 .debug_loc     0x0000ee34      0x2d9 /opt/rtems-4.8/sparc-rtems/leon2/lib/librtemscpu.a(libnetworking_a-rtems_showroute.o)
 .debug_loc     0x0000f10d     0x115c /opt/rtems-4.8/sparc-rtems/leon2/lib/librtemscpu.a(libnetworking_a-rtems_syscall.o)
 .debug_loc     0x00010269      0xc0b /opt/rtems-4.8/sparc-rtems/leon2/lib/librtemscpu.a(libnetworking_a-rtsock.o)
 .debug_loc     0x00010e74      0x114 /opt/rtems-4.8/sparc-rtems/leon2/lib/librtemscpu.a(libnetworking_a-sghostname.o)
 .debug_loc     0x00010f88      0x1e2 /opt/rtems-4.8/sparc-rtems/leon2/lib/librtemscpu.a(libnetworking_a-uipc_domain.o)
 .debug_loc     0x0001116a      0xb99 /opt/rtems-4.8/sparc-rtems/leon2/lib/librtemscpu.a(libnetworking_a-uipc_mbuf.o)
 .debug_loc     0x00011d03     0x11d0 /opt/rtems-4.8/sparc-rtems/leon2/lib/librtemscpu.a(libnetworking_a-uipc_socket.o)
 .debug_loc     0x00012ed3      0xd4a /opt/rtems-4.8/sparc-rtems/leon2/lib/librtemscpu.a(libnetworking_a-uipc_socket2.o)
 .debug_loc     0x00013c1d       0x3c /opt/rtems-4.8/sparc-rtems/leon2/lib/librtemscpu.a(librtems_a-clockget.o)
 .debug_loc     0x00013c59       0x1e /opt/rtems-4.8/sparc-rtems/leon2/lib/librtemscpu.a(librtems_a-clocksetnsecshandler.o)
 .debug_loc     0x00013c77       0x1e /opt/rtems-4.8/sparc-rtems/leon2/lib/librtemscpu.a(librtems_a-clocktick.o)
 .debug_loc     0x00013c95       0xc2 /opt/rtems-4.8/sparc-rtems/leon2/lib/librtemscpu.a(librtems_a-eventreceive.o)
 .debug_loc     0x00013d57      0x11c /opt/rtems-4.8/sparc-rtems/leon2/lib/librtemscpu.a(librtems_a-eventseize.o)
 .debug_loc     0x00013e73       0xf9 /opt/rtems-4.8/sparc-rtems/leon2/lib/librtemscpu.a(librtems_a-eventsend.o)
 .debug_loc     0x00013f6c       0xe3 /opt/rtems-4.8/sparc-rtems/leon2/lib/librtemscpu.a(librtems_a-eventsurrender.o)
 .debug_loc     0x0001404f       0xd0 /opt/rtems-4.8/sparc-rtems/leon2/lib/librtemscpu.a(librtems_a-eventtimeout.o)
 .debug_loc     0x0001411f       0x65 /opt/rtems-4.8/sparc-rtems/leon2/lib/librtemscpu.a(librtems_a-intrcatch.o)
 .debug_loc     0x00014184       0x3c /opt/rtems-4.8/sparc-rtems/leon2/lib/librtemscpu.a(librtems_a-ratemoncreate.o)
 .debug_loc     0x000141c0       0x73 /opt/rtems-4.8/sparc-rtems/leon2/lib/librtemscpu.a(librtems_a-ratemondelete.o)
 .debug_loc     0x00014233      0x195 /opt/rtems-4.8/sparc-rtems/leon2/lib/librtemscpu.a(librtems_a-ratemonperiod.o)
 .debug_loc     0x000143c8       0xa0 /opt/rtems-4.8/sparc-rtems/leon2/lib/librtemscpu.a(librtems_a-ratemontimeout.o)
 .debug_loc     0x00014468       0x13 /opt/rtems-4.8/sparc-rtems/leon2/lib/librtemscpu.a(librtems_a-rtemsobjectgetname.o)
 .debug_loc     0x0001447b       0x4f /opt/rtems-4.8/sparc-rtems/leon2/lib/librtemscpu.a(librtems_a-semcreate.o)
 .debug_loc     0x000144ca       0x8a /opt/rtems-4.8/sparc-rtems/leon2/lib/librtemscpu.a(librtems_a-semdelete.o)
 .debug_loc     0x00014554       0x89 /opt/rtems-4.8/sparc-rtems/leon2/lib/librtemscpu.a(librtems_a-semflush.o)
 .debug_loc     0x000145dd      0x20d /opt/rtems-4.8/sparc-rtems/leon2/lib/librtemscpu.a(librtems_a-semobtain.o)
 .debug_loc     0x000147ea       0xd0 /opt/rtems-4.8/sparc-rtems/leon2/lib/librtemscpu.a(librtems_a-semrelease.o)
 .debug_loc     0x000148ba       0x52 /opt/rtems-4.8/sparc-rtems/leon2/lib/librtemscpu.a(librtems_a-semtranslatereturncode.o)
 .debug_loc     0x0001490c       0x62 /opt/rtems-4.8/sparc-rtems/leon2/lib/librtemscpu.a(librtems_a-taskcreate.o)
 .debug_loc     0x0001496e      0x104 /opt/rtems-4.8/sparc-rtems/leon2/lib/librtemscpu.a(librtems_a-taskdelete.o)
 .debug_loc     0x00014a72       0x70 /opt/rtems-4.8/sparc-rtems/leon2/lib/librtemscpu.a(librtems_a-taskident.o)
 .debug_loc     0x00014ae2       0xc5 /opt/rtems-4.8/sparc-rtems/leon2/lib/librtemscpu.a(librtems_a-taskinitusers.o)
 .debug_loc     0x00014ba7       0xfd /opt/rtems-4.8/sparc-rtems/leon2/lib/librtemscpu.a(librtems_a-taskresume.o)
 .debug_loc     0x00014ca4       0xdb /opt/rtems-4.8/sparc-rtems/leon2/lib/librtemscpu.a(librtems_a-tasksetpriority.o)
 .debug_loc     0x00014d7f       0xbb /opt/rtems-4.8/sparc-rtems/leon2/lib/librtemscpu.a(librtems_a-taskstart.o)
 .debug_loc     0x00014e3a       0xfd /opt/rtems-4.8/sparc-rtems/leon2/lib/librtemscpu.a(librtems_a-tasksuspend.o)
 .debug_loc     0x00014f37      0x104 /opt/rtems-4.8/sparc-rtems/leon2/lib/librtemscpu.a(librtems_a-taskvariableadd.o)
 .debug_loc     0x0001503b       0x62 /opt/rtems-4.8/sparc-rtems/leon2/lib/librtemscpu.a(librtems_a-taskwakeafter.o)
 .debug_loc     0x0001509d       0x5a /opt/rtems-4.8/sparc-rtems/leon2/lib/librtemscpu.a(libsapi_a-exinit.o)
 .debug_loc     0x000150f7       0x1e /opt/rtems-4.8/sparc-rtems/leon2/lib/librtemscpu.a(libsapi_a-extension.o)
 .debug_loc     0x00015115       0x1e /opt/rtems-4.8/sparc-rtems/leon2/lib/librtemscpu.a(libsapi_a-fatal.o)
 .debug_loc     0x00015133       0x4f /opt/rtems-4.8/sparc-rtems/leon2/lib/librtemscpu.a(libsapi_a-io.o)
 .debug_loc     0x00015182       0xa1 /opt/rtems-4.8/sparc-rtems/leon2/lib/librtemscpu.a(libsapi_a-ioinitialize.o)
 .debug_loc     0x00015223       0x3c /opt/rtems-4.8/sparc-rtems/leon2/lib/librtemscpu.a(libsapi_a-ioregisterdriver.o)
 .debug_loc     0x0001525f       0x4f /opt/rtems-4.8/sparc-rtems/leon2/lib/librtemscpu.a(libsapi_a-posixapi.o)
 .debug_loc     0x000152ae       0x31 /opt/rtems-4.8/sparc-rtems/leon2/lib/librtemscpu.a(libsapi_a-rtemsapi.o)
 .debug_loc     0x000152df       0x78 /opt/rtems-4.8/sparc-rtems/leon2/lib/librtemscpu.a(libscore_a-apiext.o)
 .debug_loc     0x00015357       0x44 /opt/rtems-4.8/sparc-rtems/leon2/lib/librtemscpu.a(libscore_a-chainappend.o)
 .debug_loc     0x0001539b       0x6d /opt/rtems-4.8/sparc-rtems/leon2/lib/librtemscpu.a(libscore_a-chainget.o)
 .debug_loc     0x00015408       0x52 /opt/rtems-4.8/sparc-rtems/leon2/lib/librtemscpu.a(libscore_a-coremutex.o)
 .debug_loc     0x0001545a       0x3c /opt/rtems-4.8/sparc-rtems/leon2/lib/librtemscpu.a(libscore_a-coremutexseize.o)
 .debug_loc     0x00015496       0x8e /opt/rtems-4.8/sparc-rtems/leon2/lib/librtemscpu.a(libscore_a-coremutexsurrender.o)
 .debug_loc     0x00015524       0x26 /opt/rtems-4.8/sparc-rtems/leon2/lib/librtemscpu.a(libscore_a-coresem.o)
 .debug_loc     0x0001554a       0x5a /opt/rtems-4.8/sparc-rtems/leon2/lib/librtemscpu.a(libscore_a-coresemsurrender.o)
 .debug_loc     0x000155a4       0x1e /opt/rtems-4.8/sparc-rtems/leon2/lib/librtemscpu.a(libscore_a-coretodget.o)
 .debug_loc     0x000155c2       0x1e /opt/rtems-4.8/sparc-rtems/leon2/lib/librtemscpu.a(libscore_a-coretodgetuptime.o)
 .debug_loc     0x000155e0       0x1e /opt/rtems-4.8/sparc-rtems/leon2/lib/librtemscpu.a(libscore_a-coretodtickle.o)
 .debug_loc     0x000155fe      0x1fb /opt/rtems-4.8/sparc-rtems/leon2/lib/librtemscpu.a(libscore_a-heap.o)
 .debug_loc     0x000157f9       0xca /opt/rtems-4.8/sparc-rtems/leon2/lib/librtemscpu.a(libscore_a-heapallocate.o)
 .debug_loc     0x000158c3      0x1f6 /opt/rtems-4.8/sparc-rtems/leon2/lib/librtemscpu.a(libscore_a-heapfree.o)
 .debug_loc     0x00015ab9       0x1e /opt/rtems-4.8/sparc-rtems/leon2/lib/librtemscpu.a(libscore_a-interr.o)
 .debug_loc     0x00015ad7       0x1e /opt/rtems-4.8/sparc-rtems/leon2/lib/librtemscpu.a(libscore_a-isr.o)
 .debug_loc     0x00015af5       0x1e /opt/rtems-4.8/sparc-rtems/leon2/lib/librtemscpu.a(libscore_a-iterateoverthreads.o)
 .debug_loc     0x00015b13       0x39 /opt/rtems-4.8/sparc-rtems/leon2/lib/librtemscpu.a(libscore_a-object.o)
 .debug_loc     0x00015b4c       0x83 /opt/rtems-4.8/sparc-rtems/leon2/lib/librtemscpu.a(libscore_a-objectallocate.o)
 .debug_loc     0x00015bcf      0x228 /opt/rtems-4.8/sparc-rtems/leon2/lib/librtemscpu.a(libscore_a-objectextendinformation.o)
 .debug_loc     0x00015df7       0x31 /opt/rtems-4.8/sparc-rtems/leon2/lib/librtemscpu.a(libscore_a-objectfree.o)
 .debug_loc     0x00015e28       0x78 /opt/rtems-4.8/sparc-rtems/leon2/lib/librtemscpu.a(libscore_a-objectget.o)
 .debug_loc     0x00015ea0       0x78 /opt/rtems-4.8/sparc-rtems/leon2/lib/librtemscpu.a(libscore_a-objectgetisr.o)
 .debug_loc     0x00015f18      0x1a5 /opt/rtems-4.8/sparc-rtems/leon2/lib/librtemscpu.a(libscore_a-objectgetnameasstring.o)
 .debug_loc     0x000160bd       0xc0 /opt/rtems-4.8/sparc-rtems/leon2/lib/librtemscpu.a(libscore_a-objectinitializeinformation.o)
 .debug_loc     0x0001617d       0xdd /opt/rtems-4.8/sparc-rtems/leon2/lib/librtemscpu.a(libscore_a-objectnametoid.o)
 .debug_loc     0x0001625a       0x8b /opt/rtems-4.8/sparc-rtems/leon2/lib/librtemscpu.a(libscore_a-objectshrinkinformation.o)
 .debug_loc     0x000162e5      0x10c /opt/rtems-4.8/sparc-rtems/leon2/lib/librtemscpu.a(libscore_a-pheapallocate.o)
 .debug_loc     0x000163f1       0xf6 /opt/rtems-4.8/sparc-rtems/leon2/lib/librtemscpu.a(libscore_a-pheapextend.o)
 .debug_loc     0x000164e7      0x10c /opt/rtems-4.8/sparc-rtems/leon2/lib/librtemscpu.a(libscore_a-pheapfree.o)
 .debug_loc     0x000165f3      0x10c /opt/rtems-4.8/sparc-rtems/leon2/lib/librtemscpu.a(libscore_a-pheapgetblocksize.o)
 .debug_loc     0x000166ff       0xf6 /opt/rtems-4.8/sparc-rtems/leon2/lib/librtemscpu.a(libscore_a-pheapresizeblock.o)
 .debug_loc     0x000167f5       0x1e /opt/rtems-4.8/sparc-rtems/leon2/lib/librtemscpu.a(libscore_a-thread.o)
 .debug_loc     0x00016813      0x129 /opt/rtems-4.8/sparc-rtems/leon2/lib/librtemscpu.a(libscore_a-threadchangepriority.o)
 .debug_loc     0x0001693c       0xac /opt/rtems-4.8/sparc-rtems/leon2/lib/librtemscpu.a(libscore_a-threadclearstate.o)
 .debug_loc     0x000169e8       0x1e /opt/rtems-4.8/sparc-rtems/leon2/lib/librtemscpu.a(libscore_a-threadclose.o)
 .debug_loc     0x00016a06       0x3c /opt/rtems-4.8/sparc-rtems/leon2/lib/librtemscpu.a(libscore_a-threadcreateidle.o)
 .debug_loc     0x00016a42       0xb9 /opt/rtems-4.8/sparc-rtems/leon2/lib/librtemscpu.a(libscore_a-threaddelayended.o)
 .debug_loc     0x00016afb       0x8e /opt/rtems-4.8/sparc-rtems/leon2/lib/librtemscpu.a(libscore_a-threaddispatch.o)
 .debug_loc     0x00016b89      0x30a /opt/rtems-4.8/sparc-rtems/leon2/lib/librtemscpu.a(libscore_a-threadinitialize.o)
 .debug_loc     0x00016e93       0x29 /opt/rtems-4.8/sparc-rtems/leon2/lib/librtemscpu.a(libscore_a-threadqdequeue.o)
 .debug_loc     0x00016ebc       0x83 /opt/rtems-4.8/sparc-rtems/leon2/lib/librtemscpu.a(libscore_a-threadqdequeuefifo.o)
 .debug_loc     0x00016f3f      0x17c /opt/rtems-4.8/sparc-rtems/leon2/lib/librtemscpu.a(libscore_a-threadqdequeuepriority.o)
 .debug_loc     0x000170bb       0x78 /opt/rtems-4.8/sparc-rtems/leon2/lib/librtemscpu.a(libscore_a-threadqenqueue.o)
 .debug_loc     0x00017133      0x10f /opt/rtems-4.8/sparc-rtems/leon2/lib/librtemscpu.a(libscore_a-threadqenqueuefifo.o)
 .debug_loc     0x00017242      0x205 /opt/rtems-4.8/sparc-rtems/leon2/lib/librtemscpu.a(libscore_a-threadqenqueuepriority.o)
 .debug_loc     0x00017447       0x83 /opt/rtems-4.8/sparc-rtems/leon2/lib/librtemscpu.a(libscore_a-threadqextractwithproxy.o)
 .debug_loc     0x000174ca       0x3c /opt/rtems-4.8/sparc-rtems/leon2/lib/librtemscpu.a(libscore_a-threadqflush.o)
 .debug_loc     0x00017506       0x3c /opt/rtems-4.8/sparc-rtems/leon2/lib/librtemscpu.a(libscore_a-threadqrequeue.o)
 .debug_loc     0x00017542       0xdb /opt/rtems-4.8/sparc-rtems/leon2/lib/librtemscpu.a(libscore_a-threadqtimeout.o)
 .debug_loc     0x0001761d       0x78 /opt/rtems-4.8/sparc-rtems/leon2/lib/librtemscpu.a(libscore_a-threadresume.o)
 .debug_loc     0x00017695       0x13 /opt/rtems-4.8/sparc-rtems/leon2/lib/librtemscpu.a(libscore_a-threadsetpriority.o)
 .debug_loc     0x000176a8       0xda /opt/rtems-4.8/sparc-rtems/leon2/lib/librtemscpu.a(libscore_a-threadsetstate.o)
 .debug_loc     0x00017782       0x80 /opt/rtems-4.8/sparc-rtems/leon2/lib/librtemscpu.a(libscore_a-threadsettransient.o)
 .debug_loc     0x00017802       0x78 /opt/rtems-4.8/sparc-rtems/leon2/lib/librtemscpu.a(libscore_a-threadstackallocate.o)
 .debug_loc     0x0001787a       0x31 /opt/rtems-4.8/sparc-rtems/leon2/lib/librtemscpu.a(libscore_a-threadstackfree.o)
 .debug_loc     0x000178ab       0x31 /opt/rtems-4.8/sparc-rtems/leon2/lib/librtemscpu.a(libscore_a-threadstart.o)
 .debug_loc     0x000178dc       0x1e /opt/rtems-4.8/sparc-rtems/leon2/lib/librtemscpu.a(libscore_a-threadstartmultitasking.o)
 .debug_loc     0x000178fa       0xda /opt/rtems-4.8/sparc-rtems/leon2/lib/librtemscpu.a(libscore_a-threadsuspend.o)
 .debug_loc     0x000179d4       0x1e /opt/rtems-4.8/sparc-rtems/leon2/lib/librtemscpu.a(libscore_a-threadtickletimeslice.o)
 .debug_loc     0x000179f2       0x57 /opt/rtems-4.8/sparc-rtems/leon2/lib/librtemscpu.a(libscore_a-threadyieldprocessor.o)
 .debug_loc     0x00017a49       0x31 /opt/rtems-4.8/sparc-rtems/leon2/lib/librtemscpu.a(libscore_a-timespecaddto.o)
 .debug_loc     0x00017a7a       0x1e /opt/rtems-4.8/sparc-rtems/leon2/lib/librtemscpu.a(libscore_a-timespecgreaterthan.o)
 .debug_loc     0x00017a98       0x1e /opt/rtems-4.8/sparc-rtems/leon2/lib/librtemscpu.a(libscore_a-timespeclessthan.o)
 .debug_loc     0x00017ab6       0x3c /opt/rtems-4.8/sparc-rtems/leon2/lib/librtemscpu.a(libscore_a-userext.o)
 .debug_loc     0x00017af2       0x5a /opt/rtems-4.8/sparc-rtems/leon2/lib/librtemscpu.a(libscore_a-userextaddset.o)
 .debug_loc     0x00017b4c       0xd5 /opt/rtems-4.8/sparc-rtems/leon2/lib/librtemscpu.a(libscore_a-userextthreadbegin.o)
 .debug_loc     0x00017c21       0x5d /opt/rtems-4.8/sparc-rtems/leon2/lib/librtemscpu.a(libscore_a-userextthreadcreate.o)
 .debug_loc     0x00017c7e       0x47 /opt/rtems-4.8/sparc-rtems/leon2/lib/librtemscpu.a(libscore_a-userextthreaddelete.o)
 .debug_loc     0x00017cc5       0x47 /opt/rtems-4.8/sparc-rtems/leon2/lib/librtemscpu.a(libscore_a-userextthreadstart.o)
 .debug_loc     0x00017d0c       0x1e /opt/rtems-4.8/sparc-rtems/leon2/lib/librtemscpu.a(libscore_a-userextthreadswitch.o)
 .debug_loc     0x00017d2a       0x9e /opt/rtems-4.8/sparc-rtems/leon2/lib/librtemscpu.a(libscore_a-watchdoginsert.o)
 .debug_loc     0x00017dc8       0x78 /opt/rtems-4.8/sparc-rtems/leon2/lib/librtemscpu.a(libscore_a-watchdogremove.o)
 .debug_loc     0x00017e40       0x78 /opt/rtems-4.8/sparc-rtems/leon2/lib/librtemscpu.a(libscore_a-watchdogtickle.o)
 .debug_loc     0x00017eb8       0xa6 /opt/rtems-4.8/sparc-rtems/leon2/lib/librtemscpu.a(libscore_a-wkspace.o)
 .debug_loc     0x00017f5e       0xa6 /opt/rtems-4.8/sparc-rtems/leon2/lib/librtemscpu.a(libscorecpu_a-cpu.o)
 .debug_loc     0x00018004       0x13 /opt/rtems-4.8/sparc-rtems/leon2/lib/librtemscpu.a(miniimfs_init.o)
 .debug_loc     0x00018017      0x46f /opt/rtems-4.8/sparc-rtems/leon2/lib/librtemscpu.a(imfs_eval.o)
 .debug_loc     0x00018486       0x65 /opt/rtems-4.8/sparc-rtems/leon2/lib/librtemscpu.a(imfs_getchild.o)
 .debug_loc     0x000184eb      0x125 /opt/rtems-4.8/sparc-rtems/leon2/lib/librtemscpu.a(imfs_gtkn.o)
 .debug_loc     0x00018610       0x62 /opt/rtems-4.8/sparc-rtems/leon2/lib/librtemscpu.a(imfs_initsupp.o)
 .debug_loc     0x00018672       0xa4 /opt/rtems-4.8/sparc-rtems/leon2/lib/librtemscpu.a(imfs_mknod.o)
 .debug_loc     0x00018716       0x13 /opt/rtems-4.8/sparc-rtems/leon2/lib/librtemscpu.a(imfs_ntype.o)
 .debug_loc     0x00018729       0x3c /opt/rtems-4.8/sparc-rtems/leon2/lib/librtemscpu.a(imfs_rmnod.o)
 .debug_loc     0x00018765       0x82 /opt/rtems-4.8/sparc-rtems/leon2/lib/librtemscpu.a(imfs_stat.o)
 .debug_loc     0x000187e7       0x31 /opt/rtems-4.8/sparc-rtems/leon2/lib/librtemscpu.a(libc_a-inet_ntoa.o)
 .debug_loc     0x00018818      0x143 /opt/rtems-4.8/sparc-rtems/leon2/lib/librtemscpu.a(libc_a-inet_ntop.o)
 .debug_loc     0x0001895b       0x80 /opt/rtems-4.8/sparc-rtems/leon2/lib/librtemscpu.a(libcsupport_a-__gettod.o)
 .debug_loc     0x000189db       0x3c /opt/rtems-4.8/sparc-rtems/leon2/lib/librtemscpu.a(libcsupport_a-assoclocalbyremote.o)
 .debug_loc     0x00018a17       0x3c /opt/rtems-4.8/sparc-rtems/leon2/lib/librtemscpu.a(libcsupport_a-assoclocalbyremotebitfield.o)
 .debug_loc     0x00018a53       0x5a /opt/rtems-4.8/sparc-rtems/leon2/lib/librtemscpu.a(libcsupport_a-assocptrbyremote.o)
 .debug_loc     0x00018aad       0x50 /opt/rtems-4.8/sparc-rtems/leon2/lib/librtemscpu.a(libcsupport_a-base_fs.o)
 .debug_loc     0x00018afd      0x16e /opt/rtems-4.8/sparc-rtems/leon2/lib/librtemscpu.a(libcsupport_a-error.o)
 .debug_loc     0x00018c6b       0xe3 /opt/rtems-4.8/sparc-rtems/leon2/lib/librtemscpu.a(libcsupport_a-ioctl.o)
 .debug_loc     0x00018d4e       0xa9 /opt/rtems-4.8/sparc-rtems/leon2/lib/librtemscpu.a(libcsupport_a-libio_sockets.o)
 .debug_loc     0x00018df7      0x1c4 /opt/rtems-4.8/sparc-rtems/leon2/lib/librtemscpu.a(libcsupport_a-mount.o)
 .debug_loc     0x00018fbb       0x3c /opt/rtems-4.8/sparc-rtems/leon2/lib/librtemscpu.a(libcsupport_a-newlibc_exit.o)
 .debug_loc     0x00018ff7      0x12f /opt/rtems-4.8/sparc-rtems/leon2/lib/librtemscpu.a(libcsupport_a-open.o)
 .debug_loc     0x00019126      0x3fc /opt/rtems-4.8/sparc-rtems/leon2/lib/librtemscpu.a(libnetworking_a-if_ether.o)
 .debug_loc     0x00019522      0x864 /opt/rtems-4.8/sparc-rtems/leon2/lib/librtemscpu.a(libnetworking_a-in.o)
 .debug_loc     0x00019d86      0x177 /opt/rtems-4.8/sparc-rtems/leon2/lib/librtemscpu.a(libnetworking_a-in_cksum.o)
 .debug_loc     0x00019efd      0x7b9 /opt/rtems-4.8/sparc-rtems/leon2/lib/librtemscpu.a(libnetworking_a-in_pcb.o)
 .debug_loc     0x0001a6b6      0x26b /opt/rtems-4.8/sparc-rtems/leon2/lib/librtemscpu.a(libnetworking_a-in_rmx.o)
 .debug_loc     0x0001a921      0x308 /opt/rtems-4.8/sparc-rtems/leon2/lib/librtemscpu.a(libnetworking_a-ip_icmp.o)
 .debug_loc     0x0001ac29      0x1e3 /opt/rtems-4.8/sparc-rtems/leon2/lib/librtemscpu.a(libnetworking_a-kern_subr.o)
 .debug_loc     0x0001ae0c      0x295 /opt/rtems-4.8/sparc-rtems/leon2/lib/librtemscpu.a(libnetworking_a-raw_usrreq.o)
 .debug_loc     0x0001b0a1     0x1021 /opt/rtems-4.8/sparc-rtems/leon2/lib/librtemscpu.a(libnetworking_a-tcp_input.o)
 .debug_loc     0x0001c0c2      0x3f8 /opt/rtems-4.8/sparc-rtems/leon2/lib/librtemscpu.a(libnetworking_a-tcp_output.o)
 .debug_loc     0x0001c4ba      0x714 /opt/rtems-4.8/sparc-rtems/leon2/lib/librtemscpu.a(libnetworking_a-tcp_subr.o)
 .debug_loc     0x0001cbce      0x200 /opt/rtems-4.8/sparc-rtems/leon2/lib/librtemscpu.a(libnetworking_a-tcp_timer.o)
 .debug_loc     0x0001cdce      0x9ed /opt/rtems-4.8/sparc-rtems/leon2/lib/librtemscpu.a(libnetworking_a-tcp_usrreq.o)
 .debug_loc     0x0001d7bb      0x7f6 /opt/rtems-4.8/sparc-rtems/leon2/lib/librtemscpu.a(libnetworking_a-udp_usrreq.o)
 .debug_loc     0x0001dfb1       0x1e /opt/rtems-4.8/sparc-rtems/leon2/lib/librtemscpu.a(libposix_a-cond.o)
 .debug_loc     0x0001dfcf       0x1e /opt/rtems-4.8/sparc-rtems/leon2/lib/librtemscpu.a(libposix_a-key.o)
 .debug_loc     0x0001dfed       0x1e /opt/rtems-4.8/sparc-rtems/leon2/lib/librtemscpu.a(libposix_a-mqueue.o)
 .debug_loc     0x0001e00b       0x1e /opt/rtems-4.8/sparc-rtems/leon2/lib/librtemscpu.a(libposix_a-mutex.o)
 .debug_loc     0x0001e029       0x1e /opt/rtems-4.8/sparc-rtems/leon2/lib/librtemscpu.a(libposix_a-pbarrier.o)
 .debug_loc     0x0001e047       0x1e /opt/rtems-4.8/sparc-rtems/leon2/lib/librtemscpu.a(libposix_a-prwlock.o)
 .debug_loc     0x0001e065       0x9e /opt/rtems-4.8/sparc-rtems/leon2/lib/librtemscpu.a(libposix_a-psignal.o)
 .debug_loc     0x0001e103       0x83 /opt/rtems-4.8/sparc-rtems/leon2/lib/librtemscpu.a(libposix_a-psignalchecksignal.o)
 .debug_loc     0x0001e186      0x163 /opt/rtems-4.8/sparc-rtems/leon2/lib/librtemscpu.a(libposix_a-psignalclearsignals.o)
 .debug_loc     0x0001e2e9       0x1e /opt/rtems-4.8/sparc-rtems/leon2/lib/librtemscpu.a(libposix_a-pspin.o)
 .debug_loc     0x0001e307      0x20e /opt/rtems-4.8/sparc-rtems/leon2/lib/librtemscpu.a(libposix_a-pthread.o)
 .debug_loc     0x0001e515       0x1e /opt/rtems-4.8/sparc-rtems/leon2/lib/librtemscpu.a(libposix_a-pthreadexit.o)
 .debug_loc     0x0001e533       0x1e /opt/rtems-4.8/sparc-rtems/leon2/lib/librtemscpu.a(libposix_a-ptimer.o)
 .debug_loc     0x0001e551       0x1e /opt/rtems-4.8/sparc-rtems/leon2/lib/librtemscpu.a(libposix_a-semaphore.o)
 .debug_loc     0x0001e56f       0x3c /opt/rtems-4.8/sparc-rtems/leon2/lib/librtemscpu.a(libposix_a-sigemptyset.o)
 .debug_loc     0x0001e5ab       0x1e /opt/rtems-4.8/sparc-rtems/leon2/lib/librtemscpu.a(librtems_a-barrier.o)
 .debug_loc     0x0001e5c9       0x1e /opt/rtems-4.8/sparc-rtems/leon2/lib/librtemscpu.a(librtems_a-dpmem.o)
 .debug_loc     0x0001e5e7       0x1e /opt/rtems-4.8/sparc-rtems/leon2/lib/librtemscpu.a(librtems_a-msg.o)
 .debug_loc     0x0001e605       0x1e /opt/rtems-4.8/sparc-rtems/leon2/lib/librtemscpu.a(librtems_a-part.o)
 .debug_loc     0x0001e623       0x1e /opt/rtems-4.8/sparc-rtems/leon2/lib/librtemscpu.a(librtems_a-ratemon.o)
 .debug_loc     0x0001e641       0x1e /opt/rtems-4.8/sparc-rtems/leon2/lib/librtemscpu.a(librtems_a-region.o)
 .debug_loc     0x0001e65f       0x1e /opt/rtems-4.8/sparc-rtems/leon2/lib/librtemscpu.a(librtems_a-rtemstimer.o)
 .debug_loc     0x0001e67d       0x1e /opt/rtems-4.8/sparc-rtems/leon2/lib/librtemscpu.a(librtems_a-sem.o)
 .debug_loc     0x0001e69b      0x100 /opt/rtems-4.8/sparc-rtems/leon2/lib/librtemscpu.a(librtems_a-tasks.o)
 .debug_loc     0x0001e79b       0x39 /opt/rtems-4.8/sparc-rtems/leon2/lib/librtemscpu.a(libsapi_a-debug.o)
 .debug_loc     0x0001e7d4       0x3c /opt/rtems-4.8/sparc-rtems/leon2/lib/librtemscpu.a(libsapi_a-exshutdown.o)
 .debug_loc     0x0001e810       0x96 /opt/rtems-4.8/sparc-rtems/leon2/lib/librtemscpu.a(libscore_a-chain.o)
 .debug_loc     0x0001e8a6       0x57 /opt/rtems-4.8/sparc-rtems/leon2/lib/librtemscpu.a(libscore_a-chainextract.o)
 .debug_loc     0x0001e8fd       0x8b /opt/rtems-4.8/sparc-rtems/leon2/lib/librtemscpu.a(libscore_a-heapextend.o)
 .debug_loc     0x0001e988      0x1f1 /opt/rtems-4.8/sparc-rtems/leon2/lib/librtemscpu.a(libscore_a-heapresizeblock.o)
 .debug_loc     0x0001eb79       0x78 /opt/rtems-4.8/sparc-rtems/leon2/lib/librtemscpu.a(libscore_a-heapsizeofuserarea.o)
 .debug_loc     0x0001ebf1       0x26 /opt/rtems-4.8/sparc-rtems/leon2/lib/librtemscpu.a(libscore_a-objectcomparenameraw.o)
 .debug_loc     0x0001ec17       0x31 /opt/rtems-4.8/sparc-rtems/leon2/lib/librtemscpu.a(libscore_a-objectcomparenamestring.o)
 .debug_loc     0x0001ec48       0x31 /opt/rtems-4.8/sparc-rtems/leon2/lib/librtemscpu.a(libscore_a-threadloadenv.o)
 .debug_loc     0x0001ec79       0xac /opt/rtems-4.8/sparc-rtems/leon2/lib/librtemscpu.a(libscore_a-threadqextractfifo.o)
 .debug_loc     0x0001ed25      0x13d /opt/rtems-4.8/sparc-rtems/leon2/lib/librtemscpu.a(libscore_a-threadqextractpriority.o)
 .debug_loc     0x0001ee62       0xc7 /opt/rtems-4.8/sparc-rtems/leon2/lib/librtemscpu.a(libscore_a-threadready.o)
 .debug_loc     0x0001ef29       0x57 /opt/rtems-4.8/sparc-rtems/leon2/lib/librtemscpu.a(libscore_a-threadresettimeslice.o)
 .debug_loc     0x0001ef80       0x5a /opt/rtems-4.8/sparc-rtems/leon2/lib/librtemscpu.a(libscore_a-timespectoticks.o)
 .debug_loc     0x0001efda       0x3c /opt/rtems-4.8/sparc-rtems/leon2/lib/librtemscpu.a(libscore_a-userextaddapiset.o)
 .debug_loc     0x0001f016      0x1b9 /opt/rtems-4.8/sparc-rtems/leon2/lib/librtemscpu.a(deviceio.o)
 .debug_loc     0x0001f1cf       0xf1 /opt/rtems-4.8/sparc-rtems/leon2/lib/librtemscpu.a(imfs_creat.o)
 .debug_loc     0x0001f2c0       0x4f /opt/rtems-4.8/sparc-rtems/leon2/lib/librtemscpu.a(imfs_fchmod.o)
 .debug_loc     0x0001f30f       0x4f /opt/rtems-4.8/sparc-rtems/leon2/lib/librtemscpu.a(libcsupport_a-assocnamebylocal.o)
 .debug_loc     0x0001f35e       0x5a /opt/rtems-4.8/sparc-rtems/leon2/lib/librtemscpu.a(libcsupport_a-assocptrbylocal.o)
 .debug_loc     0x0001f3b8       0x3c /opt/rtems-4.8/sparc-rtems/leon2/lib/librtemscpu.a(libcsupport_a-assocremotebylocal.o)
 .debug_loc     0x0001f3f4       0x65 /opt/rtems-4.8/sparc-rtems/leon2/lib/librtemscpu.a(libcsupport_a-ftruncate.o)
 .debug_loc     0x0001f459      0x277 /opt/rtems-4.8/sparc-rtems/leon2/lib/librtemscpu.a(libnetworking_a-igmp.o)
 .debug_loc     0x0001f6d0       0x78 /opt/rtems-4.8/sparc-rtems/leon2/lib/librtemscpu.a(libnetworking_a-raw_cb.o)
 .debug_loc     0x0001f748       0x70 /opt/rtems-4.8/sparc-rtems/leon2/lib/librtemscpu.a(libposix_a-keyrundestructors.o)
 .debug_loc     0x0001f7b8       0x31 /opt/rtems-4.8/sparc-rtems/leon2/lib/librtemscpu.a(libposix_a-psignalclearprocesssignals.o)
 .debug_loc     0x0001f7e9       0xb7 /opt/rtems-4.8/sparc-rtems/leon2/lib/librtemscpu.a(librtems_a-taskmode.o)
 .debug_loc     0x0001f8a0       0xa1 /opt/rtems-4.8/sparc-rtems/leon2/lib/librtemscpu.a(libsapi_a-ioclose.o)
 .debug_loc     0x0001f941       0xa1 /opt/rtems-4.8/sparc-rtems/leon2/lib/librtemscpu.a(libsapi_a-iocontrol.o)
 .debug_loc     0x0001f9e2       0xa1 /opt/rtems-4.8/sparc-rtems/leon2/lib/librtemscpu.a(libsapi_a-ioopen.o)
 .debug_loc     0x0001fa83       0xa1 /opt/rtems-4.8/sparc-rtems/leon2/lib/librtemscpu.a(libsapi_a-ioread.o)
 .debug_loc     0x0001fb24       0xa1 /opt/rtems-4.8/sparc-rtems/leon2/lib/librtemscpu.a(libsapi_a-iowrite.o)
 .debug_loc     0x0001fbc5       0x52 /opt/rtems-4.8/sparc-rtems/leon2/lib/librtemscpu.a(libscore_a-threadhandler.o)
 .debug_loc     0x0001fc17       0x13 /opt/rtems-4.8/sparc-rtems/leon2/lib/librtemscpu.a(libcsupport_a-assocnamebad.o)
 .debug_loc     0x0001fc2a       0x1e /opt/rtems-4.8-1.1.3/bin/../lib/gcc/sparc-rtems/4.2.4/../../../../sparc-rtems/lib/soft/libc.a(lib_a-abort.o)
 .debug_loc     0x0001fc48       0x1e /opt/rtems-4.8-1.1.3/bin/../lib/gcc/sparc-rtems/4.2.4/../../../../sparc-rtems/lib/soft/libc.a(lib_a-atexit.o)
 .debug_loc     0x0001fc66       0x13 /opt/rtems-4.8-1.1.3/bin/../lib/gcc/sparc-rtems/4.2.4/../../../../sparc-rtems/lib/soft/libc.a(lib_a-bcmp.o)
 .debug_loc     0x0001fc79       0x1e /opt/rtems-4.8-1.1.3/bin/../lib/gcc/sparc-rtems/4.2.4/../../../../sparc-rtems/lib/soft/libc.a(lib_a-exit.o)
 .debug_loc     0x0001fc97       0x65 /opt/rtems-4.8-1.1.3/bin/../lib/gcc/sparc-rtems/4.2.4/../../../../sparc-rtems/lib/soft/libc.a(lib_a-fclose.o)
 .debug_loc     0x0001fcfc      0x11f /opt/rtems-4.8-1.1.3/bin/../lib/gcc/sparc-rtems/4.2.4/../../../../sparc-rtems/lib/soft/libc.a(lib_a-fflush.o)
 .debug_loc     0x0001fe1b       0x3c /opt/rtems-4.8-1.1.3/bin/../lib/gcc/sparc-rtems/4.2.4/../../../../sparc-rtems/lib/soft/libc.a(lib_a-fileno.o)
 .debug_loc     0x0001fe57      0x1af /opt/rtems-4.8-1.1.3/bin/../lib/gcc/sparc-rtems/4.2.4/../../../../sparc-rtems/lib/soft/libc.a(lib_a-findfp.o)
 .debug_loc     0x00020006       0x31 /opt/rtems-4.8-1.1.3/bin/../lib/gcc/sparc-rtems/4.2.4/../../../../sparc-rtems/lib/soft/libc.a(lib_a-fprintf.o)
 .debug_loc     0x00020037       0x75 /opt/rtems-4.8-1.1.3/bin/../lib/gcc/sparc-rtems/4.2.4/../../../../sparc-rtems/lib/soft/libc.a(lib_a-fwalk.o)
 .debug_loc     0x000200ac       0x13 /opt/rtems-4.8-1.1.3/bin/../lib/gcc/sparc-rtems/4.2.4/../../../../sparc-rtems/lib/soft/libc.a(lib_a-gmtime_r.o)
 .debug_loc     0x000200bf       0xeb /opt/rtems-4.8-1.1.3/bin/../lib/gcc/sparc-rtems/4.2.4/../../../../sparc-rtems/lib/soft/libc.a(lib_a-memcmp.o)
 .debug_loc     0x000201aa      0x11c /opt/rtems-4.8-1.1.3/bin/../lib/gcc/sparc-rtems/4.2.4/../../../../sparc-rtems/lib/soft/libc.a(lib_a-memcpy.o)
 .debug_loc     0x000202c6       0xe0 /opt/rtems-4.8-1.1.3/bin/../lib/gcc/sparc-rtems/4.2.4/../../../../sparc-rtems/lib/soft/libc.a(lib_a-memset.o)
 .debug_loc     0x000203a6      0x2ae /opt/rtems-4.8-1.1.3/bin/../lib/gcc/sparc-rtems/4.2.4/../../../../sparc-rtems/lib/soft/libc.a(lib_a-mktm_r.o)
 .debug_loc     0x00020654       0x62 /opt/rtems-4.8-1.1.3/bin/../lib/gcc/sparc-rtems/4.2.4/../../../../sparc-rtems/lib/soft/libc.a(lib_a-printf.o)
 .debug_loc     0x000206b6       0x31 /opt/rtems-4.8-1.1.3/bin/../lib/gcc/sparc-rtems/4.2.4/../../../../sparc-rtems/lib/soft/libc.a(lib_a-putchar.o)
 .debug_loc     0x000206e7       0x62 /opt/rtems-4.8-1.1.3/bin/../lib/gcc/sparc-rtems/4.2.4/../../../../sparc-rtems/lib/soft/libc.a(lib_a-puts.o)
 .debug_loc     0x00020749       0x6d /opt/rtems-4.8-1.1.3/bin/../lib/gcc/sparc-rtems/4.2.4/../../../../sparc-rtems/lib/soft/libc.a(lib_a-raise.o)
 .debug_loc     0x000207b6      0x174 /opt/rtems-4.8-1.1.3/bin/../lib/gcc/sparc-rtems/4.2.4/../../../../sparc-rtems/lib/soft/libc.a(lib_a-reent.o)
 .debug_loc     0x0002092a      0x193 /opt/rtems-4.8-1.1.3/bin/../lib/gcc/sparc-rtems/4.2.4/../../../../sparc-rtems/lib/soft/libc.a(lib_a-snprintf.o)
 .debug_loc     0x00020abd       0x62 /opt/rtems-4.8-1.1.3/bin/../lib/gcc/sparc-rtems/4.2.4/../../../../sparc-rtems/lib/soft/libc.a(lib_a-sprintf.o)
 .debug_loc     0x00020b1f      0x103 /opt/rtems-4.8-1.1.3/bin/../lib/gcc/sparc-rtems/4.2.4/../../../../sparc-rtems/lib/soft/libc.a(lib_a-stdio.o)
 .debug_loc     0x00020c22       0xb7 /opt/rtems-4.8-1.1.3/bin/../lib/gcc/sparc-rtems/4.2.4/../../../../sparc-rtems/lib/soft/libc.a(lib_a-strchr.o)
 .debug_loc     0x00020cd9       0xa4 /opt/rtems-4.8-1.1.3/bin/../lib/gcc/sparc-rtems/4.2.4/../../../../sparc-rtems/lib/soft/libc.a(lib_a-strcmp.o)
 .debug_loc     0x00020d7d       0x4f /opt/rtems-4.8-1.1.3/bin/../lib/gcc/sparc-rtems/4.2.4/../../../../sparc-rtems/lib/soft/libc.a(lib_a-strcpy.o)
 .debug_loc     0x00020dcc       0x1e /opt/rtems-4.8-1.1.3/bin/../lib/gcc/sparc-rtems/4.2.4/../../../../sparc-rtems/lib/soft/libc.a(lib_a-strdup.o)
 .debug_loc     0x00020dea       0x44 /opt/rtems-4.8-1.1.3/bin/../lib/gcc/sparc-rtems/4.2.4/../../../../sparc-rtems/lib/soft/libc.a(lib_a-strdup_r.o)
 .debug_loc     0x00020e2e      0x3f6 /opt/rtems-4.8-1.1.3/bin/../lib/gcc/sparc-rtems/4.2.4/../../../../sparc-rtems/lib/soft/libc.a(lib_a-strerror.o)
 .debug_loc     0x00021224       0x47 /opt/rtems-4.8-1.1.3/bin/../lib/gcc/sparc-rtems/4.2.4/../../../../sparc-rtems/lib/soft/libc.a(lib_a-strlcpy.o)
 .debug_loc     0x0002126b       0x3c /opt/rtems-4.8-1.1.3/bin/../lib/gcc/sparc-rtems/4.2.4/../../../../sparc-rtems/lib/soft/libc.a(lib_a-strlen.o)
 .debug_loc     0x000212a7       0x70 /opt/rtems-4.8-1.1.3/bin/../lib/gcc/sparc-rtems/4.2.4/../../../../sparc-rtems/lib/soft/libc.a(lib_a-strncmp.o)
 .debug_loc     0x00021317      0x114 /opt/rtems-4.8-1.1.3/bin/../lib/gcc/sparc-rtems/4.2.4/../../../../sparc-rtems/lib/soft/libc.a(lib_a-strncpy.o)
 .debug_loc     0x0002142b       0x13 /opt/rtems-4.8-1.1.3/bin/../lib/gcc/sparc-rtems/4.2.4/../../../../sparc-rtems/lib/soft/libc.a(lib_a-u_strerr.o)
 .debug_loc     0x0002143e     0x1c85 /opt/rtems-4.8-1.1.3/bin/../lib/gcc/sparc-rtems/4.2.4/../../../../sparc-rtems/lib/soft/libc.a(lib_a-vfprintf.o)
 .debug_loc     0x000230c3       0x8b /opt/rtems-4.8-1.1.3/bin/../lib/gcc/sparc-rtems/4.2.4/../../../../sparc-rtems/lib/soft/libc.a(lib_a-vprintf.o)
 .debug_loc     0x0002314e       0xd5 /opt/rtems-4.8-1.1.3/bin/../lib/gcc/sparc-rtems/4.2.4/../../../../sparc-rtems/lib/soft/libc.a(lib_a-wcrtomb.o)
 .debug_loc     0x00023223      0x189 /opt/rtems-4.8-1.1.3/bin/../lib/gcc/sparc-rtems/4.2.4/../../../../sparc-rtems/lib/soft/libc.a(lib_a-wcsrtombs.o)
 .debug_loc     0x000233ac       0x83 /opt/rtems-4.8-1.1.3/bin/../lib/gcc/sparc-rtems/4.2.4/../../../../sparc-rtems/lib/soft/libc.a(lib_a-wctomb_r.o)
 .debug_loc     0x0002342f       0x3c /opt/rtems-4.8-1.1.3/bin/../lib/gcc/sparc-rtems/4.2.4/../../../../sparc-rtems/lib/soft/libc.a(lib_a-wsetup.o)
 .debug_loc     0x0002346b       0x5a /opt/rtems-4.8-1.1.3/bin/../lib/gcc/sparc-rtems/4.2.4/../../../../sparc-rtems/lib/soft/libc.a(lib_a-__atexit.o)
 .debug_loc     0x000234c5       0x7b /opt/rtems-4.8-1.1.3/bin/../lib/gcc/sparc-rtems/4.2.4/../../../../sparc-rtems/lib/soft/libc.a(lib_a-__call_atexit.o)
 .debug_loc     0x00023540     0x15b4 /opt/rtems-4.8-1.1.3/bin/../lib/gcc/sparc-rtems/4.2.4/../../../../sparc-rtems/lib/soft/libc.a(lib_a-dtoa.o)
 .debug_loc     0x00024af4      0x2c3 /opt/rtems-4.8-1.1.3/bin/../lib/gcc/sparc-rtems/4.2.4/../../../../sparc-rtems/lib/soft/libc.a(lib_a-fvwrite.o)
 .debug_loc     0x00024db7       0x8b /opt/rtems-4.8-1.1.3/bin/../lib/gcc/sparc-rtems/4.2.4/../../../../sparc-rtems/lib/soft/libc.a(lib_a-locale.o)
 .debug_loc     0x00024e42       0x83 /opt/rtems-4.8-1.1.3/bin/../lib/gcc/sparc-rtems/4.2.4/../../../../sparc-rtems/lib/soft/libc.a(lib_a-makebuf.o)
 .debug_loc     0x00024ec5      0x132 /opt/rtems-4.8-1.1.3/bin/../lib/gcc/sparc-rtems/4.2.4/../../../../sparc-rtems/lib/soft/libc.a(lib_a-memchr.o)
 .debug_loc     0x00024ff7      0x17f /opt/rtems-4.8-1.1.3/bin/../lib/gcc/sparc-rtems/4.2.4/../../../../sparc-rtems/lib/soft/libc.a(lib_a-memmove.o)
 .debug_loc     0x00025176      0xeb7 /opt/rtems-4.8-1.1.3/bin/../lib/gcc/sparc-rtems/4.2.4/../../../../sparc-rtems/lib/soft/libc.a(lib_a-mprec.o)
 .debug_loc     0x0002602d       0xf0 /opt/rtems-4.8-1.1.3/bin/../lib/gcc/sparc-rtems/4.2.4/../../../../sparc-rtems/lib/soft/libc.a(lib_a-putc.o)
 .debug_loc     0x0002611d       0x18 /opt/rtems-4.8-1.1.3/bin/../lib/gcc/sparc-rtems/4.2.4/../../../../sparc-rtems/lib/soft/libc.a(lib_a-s_isinfd.o)
 .debug_loc     0x00026135       0x2b /opt/rtems-4.8-1.1.3/bin/../lib/gcc/sparc-rtems/4.2.4/../../../../sparc-rtems/lib/soft/libc.a(lib_a-s_isnand.o)
 .debug_loc     0x00026160       0xf6 /opt/rtems-4.8-1.1.3/bin/../lib/gcc/sparc-rtems/4.2.4/../../../../sparc-rtems/lib/soft/libc.a(lib_a-wbuf.o)
 .debug_loc     0x00026256      0x218 /opt/rtems-4.8-1.1.3/bin/../lib/gcc/sparc-rtems/4.2.4/soft/libgcc.a(_udivdi3.o)
 .debug_loc     0x0002646e      0x2a1 /opt/rtems-4.8-1.1.3/bin/../lib/gcc/sparc-rtems/4.2.4/soft/libgcc.a(_umoddi3.o)
 .debug_loc     0x0002670f      0x39f /opt/rtems-4.8-1.1.3/bin/../lib/gcc/sparc-rtems/4.2.4/soft/libgcc.a(_addsub_df.o)
 .debug_loc     0x00026aae      0x2ad /opt/rtems-4.8-1.1.3/bin/../lib/gcc/sparc-rtems/4.2.4/soft/libgcc.a(_div_df.o)
 .debug_loc     0x00026d5b       0x5e /opt/rtems-4.8-1.1.3/bin/../lib/gcc/sparc-rtems/4.2.4/soft/libgcc.a(_eq_df.o)
 .debug_loc     0x00026db9       0x5e /opt/rtems-4.8-1.1.3/bin/../lib/gcc/sparc-rtems/4.2.4/soft/libgcc.a(_ne_df.o)
 .debug_loc     0x00026e17       0x5e /opt/rtems-4.8-1.1.3/bin/../lib/gcc/sparc-rtems/4.2.4/soft/libgcc.a(_gt_df.o)
 .debug_loc     0x00026e75       0x5e /opt/rtems-4.8-1.1.3/bin/../lib/gcc/sparc-rtems/4.2.4/soft/libgcc.a(_ge_df.o)
 .debug_loc     0x00026ed3       0x5e /opt/rtems-4.8-1.1.3/bin/../lib/gcc/sparc-rtems/4.2.4/soft/libgcc.a(_lt_df.o)
 .debug_loc     0x00026f31       0xaf /opt/rtems-4.8-1.1.3/bin/../lib/gcc/sparc-rtems/4.2.4/soft/libgcc.a(_si_to_df.o)
 .debug_loc     0x00026fe0       0x8f /opt/rtems-4.8-1.1.3/bin/../lib/gcc/sparc-rtems/4.2.4/soft/libgcc.a(_df_to_si.o)
 .debug_loc     0x0002706f       0x60 /opt/rtems-4.8-1.1.3/bin/../lib/gcc/sparc-rtems/4.2.4/soft/libgcc.a(_fpcmp_parts_df.o)
 .debug_loc     0x000270cf       0x13 /opt/rtems-4.8/sparc-rtems/leon2/lib/librtemsbsp.a(cache.rel)
 .debug_loc     0x000270e2      0x101 /opt/rtems-4.8/sparc-rtems/leon2/lib/librtemscpu.a(libcsupport_a-fstat.o)
 .debug_loc     0x000271e3       0x13 /opt/rtems-4.8/sparc-rtems/leon2/lib/librtemscpu.a(libcsupport_a-getpid.o)
 .debug_loc     0x000271f6       0x3c /opt/rtems-4.8/sparc-rtems/leon2/lib/librtemscpu.a(libcsupport_a-isatty.o)
 .debug_loc     0x00027232      0x1dc /opt/rtems-4.8/sparc-rtems/leon2/lib/librtemscpu.a(libcsupport_a-lseek.o)
 .debug_loc     0x0002740e      0x171 /opt/rtems-4.8/sparc-rtems/leon2/lib/librtemscpu.a(libcsupport_a-read.o)
 .debug_loc     0x0002757f       0x4f /opt/rtems-4.8/sparc-rtems/leon2/lib/librtemscpu.a(libcsupport_a-write_r.o)
 .debug_loc     0x000275ce       0x44 /opt/rtems-4.8/sparc-rtems/leon2/lib/librtemscpu.a(libposix_a-kill.o)
 .debug_loc     0x00027612      0x33b /opt/rtems-4.8/sparc-rtems/leon2/lib/librtemscpu.a(libposix_a-killinfo.o)
 .debug_loc     0x0002794d       0x3c /opt/rtems-4.8/sparc-rtems/leon2/lib/librtemscpu.a(libposix_a-psignalsetprocesssignals.o)
 .debug_loc     0x00027989      0x104 /opt/rtems-4.8/sparc-rtems/leon2/lib/librtemscpu.a(libposix_a-psignalunblockthread.o)
 .debug_loc     0x00027a8d       0xea /opt/rtems-4.8/sparc-rtems/leon2/lib/librtemscpu.a(libposix_a-pthreadkill.o)
 .debug_loc     0x00027b77       0x5a /opt/rtems-4.8/sparc-rtems/leon2/lib/librtemscpu.a(libposix_a-types.o)
 .debug_loc     0x00027bd1      0x122 /opt/rtems-4.8/sparc-rtems/leon2/lib/librtemscpu.a(libcsupport_a-write.o)

.debug_pubnames
                0x00000000     0x854e
 .debug_pubnames
                0x00000000       0xb8 /home/aitor/workspace/rasta-sw/osal-repo/trunk/samples/misc/soclient.o
 .debug_pubnames
                0x000000b8       0x57 libosal_rtems_rastaleon2.a(osapi.o)
 .debug_pubnames
                0x0000010f       0xb1 libosal_rtems_rastaleon2.a(osmut.o)
 .debug_pubnames
                0x000001c0      0x12c libosal_rtems_rastaleon2.a(ostask.o)
 .debug_pubnames
                0x000002ec      0x3dc libosal_rtems_rastaleon2.a(rtems-config.o)
 .debug_pubnames
                0x000006c8       0xa1 libosal_rtems_rastaleon2.a(osstats.o)
 .debug_pubnames
                0x00000769       0x1f /opt/rtems-4.8-1.1.3/bin/../lib/gcc/sparc-rtems/4.2.4/soft/libgcc.a(_mul_df.o)
 .debug_pubnames
                0x00000788       0x22 /opt/rtems-4.8-1.1.3/bin/../lib/gcc/sparc-rtems/4.2.4/soft/libgcc.a(_thenan_df.o)
 .debug_pubnames
                0x000007aa       0x24 /opt/rtems-4.8-1.1.3/bin/../lib/gcc/sparc-rtems/4.2.4/soft/libgcc.a(_usi_to_df.o)
 .debug_pubnames
                0x000007ce       0x1f /opt/rtems-4.8-1.1.3/bin/../lib/gcc/sparc-rtems/4.2.4/soft/libgcc.a(_muldi3.o)
 .debug_pubnames
                0x000007ed       0x1f /opt/rtems-4.8-1.1.3/bin/../lib/gcc/sparc-rtems/4.2.4/soft/libgcc.a(_clzsi2.o)
 .debug_pubnames
                0x0000080c       0x1f /opt/rtems-4.8-1.1.3/bin/../lib/gcc/sparc-rtems/4.2.4/soft/libgcc.a(_pack_df.o)
 .debug_pubnames
                0x0000082b       0x21 /opt/rtems-4.8-1.1.3/bin/../lib/gcc/sparc-rtems/4.2.4/soft/libgcc.a(_unpack_df.o)
 .debug_pubnames
                0x0000084c       0x20 /opt/rtems-4.8-1.1.3/bin/../lib/gcc/sparc-rtems/4.2.4/soft/libgcc.a(_clz.o)
 .debug_pubnames
                0x0000086c      0x3ab /opt/rtems-4.8/sparc-rtems/leon2/lib/librtemsbsp.a(amba.rel)
 .debug_pubnames
                0x00000c17       0xe4 /opt/rtems-4.8/sparc-rtems/leon2/lib/librtemsbsp.a(clock.rel)
 .debug_pubnames
                0x00000cfb      0x147 /opt/rtems-4.8/sparc-rtems/leon2/lib/librtemsbsp.a(console.rel)
 .debug_pubnames
                0x00000e42       0x5a /opt/rtems-4.8/sparc-rtems/leon2/lib/librtemsbsp.a(leon_smc91111.rel)
 .debug_pubnames
                0x00000e9c       0x91 /opt/rtems-4.8/sparc-rtems/leon2/lib/librtemsbsp.a(libnetchip_a-smc91111.o)
 .debug_pubnames
                0x00000f2d      0x43c /opt/rtems-4.8/sparc-rtems/leon2/lib/librtemsbsp.a(startup.rel)
 .debug_pubnames
                0x00001369      0x1c0 /opt/rtems-4.8/sparc-rtems/leon2/lib/librtemscpu.a(check.o)
 .debug_pubnames
                0x00001529       0x46 /opt/rtems-4.8/sparc-rtems/leon2/lib/librtemscpu.a(ioman.o)
 .debug_pubnames
                0x0000156f       0x2e /opt/rtems-4.8/sparc-rtems/leon2/lib/librtemscpu.a(libc_a-inet_addr.o)
 .debug_pubnames
                0x0000159d       0x20 /opt/rtems-4.8/sparc-rtems/leon2/lib/librtemscpu.a(libc_a-inet_pton.o)
 .debug_pubnames
                0x000015bd       0x1b /opt/rtems-4.8/sparc-rtems/leon2/lib/librtemscpu.a(libc_a-recv.o)
 .debug_pubnames
                0x000015d8       0x1b /opt/rtems-4.8/sparc-rtems/leon2/lib/librtemscpu.a(libc_a-send.o)
 .debug_pubnames
                0x000015f3       0x1f /opt/rtems-4.8/sparc-rtems/leon2/lib/librtemscpu.a(libcsupport_a-__assert.o)
 .debug_pubnames
                0x00001612       0x29 /opt/rtems-4.8/sparc-rtems/leon2/lib/librtemscpu.a(libcsupport_a-close.o)
 .debug_pubnames
                0x0000163b       0x5a /opt/rtems-4.8/sparc-rtems/leon2/lib/librtemscpu.a(libcsupport_a-eval.o)
 .debug_pubnames
                0x00001695       0xea /opt/rtems-4.8/sparc-rtems/leon2/lib/librtemscpu.a(libcsupport_a-libio.o)
 .debug_pubnames
                0x0000177f       0x73 /opt/rtems-4.8/sparc-rtems/leon2/lib/librtemscpu.a(libcsupport_a-libio_init.o)
 .debug_pubnames
                0x000017f2       0xfc /opt/rtems-4.8/sparc-rtems/leon2/lib/librtemscpu.a(libcsupport_a-malloc.o)
 .debug_pubnames
                0x000018ee       0x1c /opt/rtems-4.8/sparc-rtems/leon2/lib/librtemscpu.a(libcsupport_a-mkdir.o)
 .debug_pubnames
                0x0000190a       0x1c /opt/rtems-4.8/sparc-rtems/leon2/lib/librtemscpu.a(libcsupport_a-mknod.o)
 .debug_pubnames
                0x00001926       0x78 /opt/rtems-4.8/sparc-rtems/leon2/lib/librtemscpu.a(libcsupport_a-newlibc.o)
 .debug_pubnames
                0x0000199e       0x27 /opt/rtems-4.8/sparc-rtems/leon2/lib/librtemscpu.a(libcsupport_a-open_dev_console.o)
 .debug_pubnames
                0x000019c5       0x29 /opt/rtems-4.8/sparc-rtems/leon2/lib/librtemscpu.a(libcsupport_a-printk.o)
 .debug_pubnames
                0x000019ee       0x24 /opt/rtems-4.8/sparc-rtems/leon2/lib/librtemscpu.a(libcsupport_a-printk_plugin.o)
 .debug_pubnames
                0x00001a12      0x17f /opt/rtems-4.8/sparc-rtems/leon2/lib/librtemscpu.a(libcsupport_a-termios.o)
 .debug_pubnames
                0x00001b91       0x7e /opt/rtems-4.8/sparc-rtems/leon2/lib/librtemscpu.a(libcsupport_a-termiosinitialize.o)
 .debug_pubnames
                0x00001c0f      0x12f /opt/rtems-4.8/sparc-rtems/leon2/lib/librtemscpu.a(libnetworking_a-if.o)
 .debug_pubnames
                0x00001d3e      0x123 /opt/rtems-4.8/sparc-rtems/leon2/lib/librtemscpu.a(libnetworking_a-if_ethersubr.o)
 .debug_pubnames
                0x00001e61       0x44 /opt/rtems-4.8/sparc-rtems/leon2/lib/librtemscpu.a(libnetworking_a-if_loop.o)
 .debug_pubnames
                0x00001ea5      0x16f /opt/rtems-4.8/sparc-rtems/leon2/lib/librtemscpu.a(libnetworking_a-ip_input.o)
 .debug_pubnames
                0x00002014      0x178 /opt/rtems-4.8/sparc-rtems/leon2/lib/librtemscpu.a(libnetworking_a-ip_mroute.o)
 .debug_pubnames
                0x0000218c       0x4f /opt/rtems-4.8/sparc-rtems/leon2/lib/librtemscpu.a(libnetworking_a-ip_output.o)
 .debug_pubnames
                0x000021db       0x86 /opt/rtems-4.8/sparc-rtems/leon2/lib/librtemscpu.a(libnetworking_a-kern_mib.o)
 .debug_pubnames
                0x00002261      0x271 /opt/rtems-4.8/sparc-rtems/leon2/lib/librtemscpu.a(libnetworking_a-kern_sysctl.o)
 .debug_pubnames
                0x000024d2       0x85 /opt/rtems-4.8/sparc-rtems/leon2/lib/librtemscpu.a(libnetworking_a-radix.o)
 .debug_pubnames
                0x00002557       0x5d /opt/rtems-4.8/sparc-rtems/leon2/lib/librtemscpu.a(libnetworking_a-raw_ip.o)
 .debug_pubnames
                0x000025b4       0xd3 /opt/rtems-4.8/sparc-rtems/leon2/lib/librtemscpu.a(libnetworking_a-route.o)
 .debug_pubnames
                0x00002687      0x4a8 /opt/rtems-4.8/sparc-rtems/leon2/lib/librtemscpu.a(libnetworking_a-rtems_glue.o)
 .debug_pubnames
                0x00002b2f       0x2f /opt/rtems-4.8/sparc-rtems/leon2/lib/librtemscpu.a(libnetworking_a-rtems_malloc_mbuf.o)
 .debug_pubnames
                0x00002b5e       0x31 /opt/rtems-4.8/sparc-rtems/leon2/lib/librtemscpu.a(libnetworking_a-rtems_showifstat.o)
 .debug_pubnames
                0x00002b8f       0x34 /opt/rtems-4.8/sparc-rtems/leon2/lib/librtemscpu.a(libnetworking_a-rtems_showroute.o)
 .debug_pubnames
                0x00002bc3       0xce /opt/rtems-4.8/sparc-rtems/leon2/lib/librtemscpu.a(libnetworking_a-rtems_syscall.o)
 .debug_pubnames
                0x00002c91       0x74 /opt/rtems-4.8/sparc-rtems/leon2/lib/librtemscpu.a(libnetworking_a-rtsock.o)
 .debug_pubnames
                0x00002d05       0x32 /opt/rtems-4.8/sparc-rtems/leon2/lib/librtemscpu.a(libnetworking_a-sghostname.o)
 .debug_pubnames
                0x00002d37       0x5b /opt/rtems-4.8/sparc-rtems/leon2/lib/librtemscpu.a(libnetworking_a-uipc_domain.o)
 .debug_pubnames
                0x00002d92      0x171 /opt/rtems-4.8/sparc-rtems/leon2/lib/librtemscpu.a(libnetworking_a-uipc_mbuf.o)
 .debug_pubnames
                0x00002f03       0xf7 /opt/rtems-4.8/sparc-rtems/leon2/lib/librtemscpu.a(libnetworking_a-uipc_socket.o)
 .debug_pubnames
                0x00002ffa      0x22c /opt/rtems-4.8/sparc-rtems/leon2/lib/librtemscpu.a(libnetworking_a-uipc_socket2.o)
 .debug_pubnames
                0x00003226       0x26 /opt/rtems-4.8/sparc-rtems/leon2/lib/librtemscpu.a(librtems_a-clockget.o)
 .debug_pubnames
                0x0000324c       0x3c /opt/rtems-4.8/sparc-rtems/leon2/lib/librtemscpu.a(librtems_a-clocksetnsecshandler.o)
 .debug_pubnames
                0x00003288       0x27 /opt/rtems-4.8/sparc-rtems/leon2/lib/librtemscpu.a(librtems_a-clocktick.o)
 .debug_pubnames
                0x000032af       0x2a /opt/rtems-4.8/sparc-rtems/leon2/lib/librtemscpu.a(librtems_a-eventreceive.o)
 .debug_pubnames
                0x000032d9       0x23 /opt/rtems-4.8/sparc-rtems/leon2/lib/librtemscpu.a(librtems_a-eventseize.o)
 .debug_pubnames
                0x000032fc       0x27 /opt/rtems-4.8/sparc-rtems/leon2/lib/librtemscpu.a(librtems_a-eventsend.o)
 .debug_pubnames
                0x00003323       0x27 /opt/rtems-4.8/sparc-rtems/leon2/lib/librtemscpu.a(librtems_a-eventsurrender.o)
 .debug_pubnames
                0x0000334a       0x25 /opt/rtems-4.8/sparc-rtems/leon2/lib/librtemscpu.a(librtems_a-eventtimeout.o)
 .debug_pubnames
                0x0000336f       0x2c /opt/rtems-4.8/sparc-rtems/leon2/lib/librtemscpu.a(librtems_a-intrcatch.o)
 .debug_pubnames
                0x0000339b       0x32 /opt/rtems-4.8/sparc-rtems/leon2/lib/librtemscpu.a(librtems_a-ratemoncreate.o)
 .debug_pubnames
                0x000033cd       0x32 /opt/rtems-4.8/sparc-rtems/leon2/lib/librtemscpu.a(librtems_a-ratemondata.o)
 .debug_pubnames
                0x000033ff       0x32 /opt/rtems-4.8/sparc-rtems/leon2/lib/librtemscpu.a(librtems_a-ratemondelete.o)
 .debug_pubnames
                0x00003431       0x58 /opt/rtems-4.8/sparc-rtems/leon2/lib/librtemscpu.a(librtems_a-ratemonperiod.o)
 .debug_pubnames
                0x00003489       0x2e /opt/rtems-4.8/sparc-rtems/leon2/lib/librtemscpu.a(librtems_a-ratemontimeout.o)
 .debug_pubnames
                0x000034b7       0x2c /opt/rtems-4.8/sparc-rtems/leon2/lib/librtemscpu.a(librtems_a-rtemsobjectgetname.o)
 .debug_pubnames
                0x000034e3       0x2d /opt/rtems-4.8/sparc-rtems/leon2/lib/librtemscpu.a(librtems_a-semcreate.o)
 .debug_pubnames
                0x00003510       0x2d /opt/rtems-4.8/sparc-rtems/leon2/lib/librtemscpu.a(librtems_a-semdata.o)
 .debug_pubnames
                0x0000353d       0x2d /opt/rtems-4.8/sparc-rtems/leon2/lib/librtemscpu.a(librtems_a-semdelete.o)
 .debug_pubnames
                0x0000356a       0x2c /opt/rtems-4.8/sparc-rtems/leon2/lib/librtemscpu.a(librtems_a-semflush.o)
 .debug_pubnames
                0x00003596       0x2d /opt/rtems-4.8/sparc-rtems/leon2/lib/librtemscpu.a(librtems_a-semobtain.o)
 .debug_pubnames
                0x000035c3       0x2e /opt/rtems-4.8/sparc-rtems/leon2/lib/librtemscpu.a(librtems_a-semrelease.o)
 .debug_pubnames
                0x000035f1       0xdc /opt/rtems-4.8/sparc-rtems/leon2/lib/librtemscpu.a(librtems_a-semtranslatereturncode.o)
 .debug_pubnames
                0x000036cd       0x28 /opt/rtems-4.8/sparc-rtems/leon2/lib/librtemscpu.a(librtems_a-taskcreate.o)
 .debug_pubnames
                0x000036f5       0x2f /opt/rtems-4.8/sparc-rtems/leon2/lib/librtemscpu.a(librtems_a-taskdata.o)
 .debug_pubnames
                0x00003724       0x28 /opt/rtems-4.8/sparc-rtems/leon2/lib/librtemscpu.a(librtems_a-taskdelete.o)
 .debug_pubnames
                0x0000374c       0x27 /opt/rtems-4.8/sparc-rtems/leon2/lib/librtemscpu.a(librtems_a-taskident.o)
 .debug_pubnames
                0x00003773       0x3e /opt/rtems-4.8/sparc-rtems/leon2/lib/librtemscpu.a(librtems_a-taskinitusers.o)
 .debug_pubnames
                0x000037b1       0x28 /opt/rtems-4.8/sparc-rtems/leon2/lib/librtemscpu.a(librtems_a-taskresume.o)
 .debug_pubnames
                0x000037d9       0x2e /opt/rtems-4.8/sparc-rtems/leon2/lib/librtemscpu.a(librtems_a-tasksetpriority.o)
 .debug_pubnames
                0x00003807       0x27 /opt/rtems-4.8/sparc-rtems/leon2/lib/librtemscpu.a(librtems_a-taskstart.o)
 .debug_pubnames
                0x0000382e       0x29 /opt/rtems-4.8/sparc-rtems/leon2/lib/librtemscpu.a(librtems_a-tasksuspend.o)
 .debug_pubnames
                0x00003857       0x2e /opt/rtems-4.8/sparc-rtems/leon2/lib/librtemscpu.a(librtems_a-taskvariableadd.o)
 .debug_pubnames
                0x00003885       0x2c /opt/rtems-4.8/sparc-rtems/leon2/lib/librtemscpu.a(librtems_a-taskwakeafter.o)
 .debug_pubnames
                0x000038b1      0x5b3 /opt/rtems-4.8/sparc-rtems/leon2/lib/librtemscpu.a(libsapi_a-exinit.o)
 .debug_pubnames
                0x00003e64       0x38 /opt/rtems-4.8/sparc-rtems/leon2/lib/librtemscpu.a(libsapi_a-extension.o)
 .debug_pubnames
                0x00003e9c       0x2d /opt/rtems-4.8/sparc-rtems/leon2/lib/librtemscpu.a(libsapi_a-extensiondata.o)
 .debug_pubnames
                0x00003ec9       0x31 /opt/rtems-4.8/sparc-rtems/leon2/lib/librtemscpu.a(libsapi_a-fatal.o)
 .debug_pubnames
                0x00003efa       0x2f /opt/rtems-4.8/sparc-rtems/leon2/lib/librtemscpu.a(libsapi_a-getversionstring.o)
 .debug_pubnames
                0x00003f29       0x50 /opt/rtems-4.8/sparc-rtems/leon2/lib/librtemscpu.a(libsapi_a-io.o)
 .debug_pubnames
                0x00003f79       0x49 /opt/rtems-4.8/sparc-rtems/leon2/lib/librtemscpu.a(libsapi_a-iodata.o)
 .debug_pubnames
                0x00003fc2       0x2a /opt/rtems-4.8/sparc-rtems/leon2/lib/librtemscpu.a(libsapi_a-ioinitialize.o)
 .debug_pubnames
                0x00003fec       0x2f /opt/rtems-4.8/sparc-rtems/leon2/lib/librtemscpu.a(libsapi_a-ioregisterdriver.o)
 .debug_pubnames
                0x0000401b      0x22f /opt/rtems-4.8/sparc-rtems/leon2/lib/librtemscpu.a(libsapi_a-posixapi.o)
 .debug_pubnames
                0x0000424a       0x68 /opt/rtems-4.8/sparc-rtems/leon2/lib/librtemscpu.a(libsapi_a-rtemsapi.o)
 .debug_pubnames
                0x000042b2       0xb5 /opt/rtems-4.8/sparc-rtems/leon2/lib/librtemscpu.a(libscore_a-apiext.o)
 .debug_pubnames
                0x00004367       0x24 /opt/rtems-4.8/sparc-rtems/leon2/lib/librtemscpu.a(libscore_a-chainappend.o)
 .debug_pubnames
                0x0000438b       0x21 /opt/rtems-4.8/sparc-rtems/leon2/lib/librtemscpu.a(libscore_a-chainget.o)
 .debug_pubnames
                0x000043ac       0x2d /opt/rtems-4.8/sparc-rtems/leon2/lib/librtemscpu.a(libscore_a-coremutex.o)
 .debug_pubnames
                0x000043d9       0x28 /opt/rtems-4.8/sparc-rtems/leon2/lib/librtemscpu.a(libscore_a-coremutexflush.o)
 .debug_pubnames
                0x00004401       0x3b /opt/rtems-4.8/sparc-rtems/leon2/lib/librtemscpu.a(libscore_a-coremutexseize.o)
 .debug_pubnames
                0x0000443c       0x2c /opt/rtems-4.8/sparc-rtems/leon2/lib/librtemscpu.a(libscore_a-coremutexsurrender.o)
 .debug_pubnames
                0x00004468       0x31 /opt/rtems-4.8/sparc-rtems/leon2/lib/librtemscpu.a(libscore_a-coresem.o)
 .debug_pubnames
                0x00004499       0x2c /opt/rtems-4.8/sparc-rtems/leon2/lib/librtemscpu.a(libscore_a-coresemflush.o)
 .debug_pubnames
                0x000044c5       0x30 /opt/rtems-4.8/sparc-rtems/leon2/lib/librtemscpu.a(libscore_a-coresemsurrender.o)
 .debug_pubnames
                0x000044f5       0x32 /opt/rtems-4.8/sparc-rtems/leon2/lib/librtemscpu.a(libscore_a-coretod.o)
 .debug_pubnames
                0x00004527       0x1f /opt/rtems-4.8/sparc-rtems/leon2/lib/librtemscpu.a(libscore_a-coretodget.o)
 .debug_pubnames
                0x00004546       0x26 /opt/rtems-4.8/sparc-rtems/leon2/lib/librtemscpu.a(libscore_a-coretodgetuptime.o)
 .debug_pubnames
                0x0000456c       0x28 /opt/rtems-4.8/sparc-rtems/leon2/lib/librtemscpu.a(libscore_a-coretodtickle.o)
 .debug_pubnames
                0x00004594       0x5a /opt/rtems-4.8/sparc-rtems/leon2/lib/librtemscpu.a(libscore_a-heap.o)
 .debug_pubnames
                0x000045ee       0x25 /opt/rtems-4.8/sparc-rtems/leon2/lib/librtemscpu.a(libscore_a-heapallocate.o)
 .debug_pubnames
                0x00004613       0x21 /opt/rtems-4.8/sparc-rtems/leon2/lib/librtemscpu.a(libscore_a-heapfree.o)
 .debug_pubnames
                0x00004634       0x2f /opt/rtems-4.8/sparc-rtems/leon2/lib/librtemscpu.a(libscore_a-interr.o)
 .debug_pubnames
                0x00004663       0x32 /opt/rtems-4.8/sparc-rtems/leon2/lib/librtemscpu.a(libscore_a-isr.o)
 .debug_pubnames
                0x00004695       0x35 /opt/rtems-4.8/sparc-rtems/leon2/lib/librtemscpu.a(libscore_a-iterateoverthreads.o)
 .debug_pubnames
                0x000046ca       0x36 /opt/rtems-4.8/sparc-rtems/leon2/lib/librtemscpu.a(libscore_a-object.o)
 .debug_pubnames
                0x00004700       0x28 /opt/rtems-4.8/sparc-rtems/leon2/lib/librtemscpu.a(libscore_a-objectallocate.o)
 .debug_pubnames
                0x00004728       0x32 /opt/rtems-4.8/sparc-rtems/leon2/lib/librtemscpu.a(libscore_a-objectextendinformation.o)
 .debug_pubnames
                0x0000475a       0x24 /opt/rtems-4.8/sparc-rtems/leon2/lib/librtemscpu.a(libscore_a-objectfree.o)
 .debug_pubnames
                0x0000477e       0x23 /opt/rtems-4.8/sparc-rtems/leon2/lib/librtemscpu.a(libscore_a-objectget.o)
 .debug_pubnames
                0x000047a1       0x2f /opt/rtems-4.8/sparc-rtems/leon2/lib/librtemscpu.a(libscore_a-objectgetisr.o)
 .debug_pubnames
                0x000047d0       0x32 /opt/rtems-4.8/sparc-rtems/leon2/lib/librtemscpu.a(libscore_a-objectgetnameasstring.o)
 .debug_pubnames
                0x00004802       0x36 /opt/rtems-4.8/sparc-rtems/leon2/lib/librtemscpu.a(libscore_a-objectinitializeinformation.o)
 .debug_pubnames
                0x00004838       0x2a /opt/rtems-4.8/sparc-rtems/leon2/lib/librtemscpu.a(libscore_a-objectnametoid.o)
 .debug_pubnames
                0x00004862       0x32 /opt/rtems-4.8/sparc-rtems/leon2/lib/librtemscpu.a(libscore_a-objectshrinkinformation.o)
 .debug_pubnames
                0x00004894       0x2f /opt/rtems-4.8/sparc-rtems/leon2/lib/librtemscpu.a(libscore_a-pheapallocate.o)
 .debug_pubnames
                0x000048c3       0x2d /opt/rtems-4.8/sparc-rtems/leon2/lib/librtemscpu.a(libscore_a-pheapextend.o)
 .debug_pubnames
                0x000048f0       0x2b /opt/rtems-4.8/sparc-rtems/leon2/lib/librtemscpu.a(libscore_a-pheapfree.o)
 .debug_pubnames
                0x0000491b       0x35 /opt/rtems-4.8/sparc-rtems/leon2/lib/librtemscpu.a(libscore_a-pheapgetblocksize.o)
 .debug_pubnames
                0x00004950       0x33 /opt/rtems-4.8/sparc-rtems/leon2/lib/librtemscpu.a(libscore_a-pheapresizeblock.o)
 .debug_pubnames
                0x00004983       0x35 /opt/rtems-4.8/sparc-rtems/leon2/lib/librtemscpu.a(libscore_a-thread.o)
 .debug_pubnames
                0x000049b8       0x2e /opt/rtems-4.8/sparc-rtems/leon2/lib/librtemscpu.a(libscore_a-threadchangepriority.o)
 .debug_pubnames
                0x000049e6       0x2a /opt/rtems-4.8/sparc-rtems/leon2/lib/librtemscpu.a(libscore_a-threadclearstate.o)
 .debug_pubnames
                0x00004a10       0x24 /opt/rtems-4.8/sparc-rtems/leon2/lib/librtemscpu.a(libscore_a-threadclose.o)
 .debug_pubnames
                0x00004a34       0x40 /opt/rtems-4.8/sparc-rtems/leon2/lib/librtemscpu.a(libscore_a-threadcreateidle.o)
 .debug_pubnames
                0x00004a74       0x2a /opt/rtems-4.8/sparc-rtems/leon2/lib/librtemscpu.a(libscore_a-threaddelayended.o)
 .debug_pubnames
                0x00004a9e       0x27 /opt/rtems-4.8/sparc-rtems/leon2/lib/librtemscpu.a(libscore_a-threaddispatch.o)
 .debug_pubnames
                0x00004ac5       0x28 /opt/rtems-4.8/sparc-rtems/leon2/lib/librtemscpu.a(libscore_a-threadidlebody.o)
 .debug_pubnames
                0x00004aed       0x29 /opt/rtems-4.8/sparc-rtems/leon2/lib/librtemscpu.a(libscore_a-threadinitialize.o)
 .debug_pubnames
                0x00004b16       0x2f /opt/rtems-4.8/sparc-rtems/leon2/lib/librtemscpu.a(libscore_a-threadq.o)
 .debug_pubnames
                0x00004b45       0x2c /opt/rtems-4.8/sparc-rtems/leon2/lib/librtemscpu.a(libscore_a-threadqdequeue.o)
 .debug_pubnames
                0x00004b71       0x31 /opt/rtems-4.8/sparc-rtems/leon2/lib/librtemscpu.a(libscore_a-threadqdequeuefifo.o)
 .debug_pubnames
                0x00004ba2       0x35 /opt/rtems-4.8/sparc-rtems/leon2/lib/librtemscpu.a(libscore_a-threadqdequeuepriority.o)
 .debug_pubnames
                0x00004bd7       0x39 /opt/rtems-4.8/sparc-rtems/leon2/lib/librtemscpu.a(libscore_a-threadqenqueue.o)
 .debug_pubnames
                0x00004c10       0x31 /opt/rtems-4.8/sparc-rtems/leon2/lib/librtemscpu.a(libscore_a-threadqenqueuefifo.o)
 .debug_pubnames
                0x00004c41       0x35 /opt/rtems-4.8/sparc-rtems/leon2/lib/librtemscpu.a(libscore_a-threadqenqueuepriority.o)
 .debug_pubnames
                0x00004c76       0x37 /opt/rtems-4.8/sparc-rtems/leon2/lib/librtemscpu.a(libscore_a-threadqextractwithproxy.o)
 .debug_pubnames
                0x00004cad       0x2a /opt/rtems-4.8/sparc-rtems/leon2/lib/librtemscpu.a(libscore_a-threadqflush.o)
 .debug_pubnames
                0x00004cd7       0x2c /opt/rtems-4.8/sparc-rtems/leon2/lib/librtemscpu.a(libscore_a-threadqrequeue.o)
 .debug_pubnames
                0x00004d03       0x2c /opt/rtems-4.8/sparc-rtems/leon2/lib/librtemscpu.a(libscore_a-threadqtimeout.o)
 .debug_pubnames
                0x00004d2f       0x25 /opt/rtems-4.8/sparc-rtems/leon2/lib/librtemscpu.a(libscore_a-threadresume.o)
 .debug_pubnames
                0x00004d54       0x2b /opt/rtems-4.8/sparc-rtems/leon2/lib/librtemscpu.a(libscore_a-threadsetpriority.o)
 .debug_pubnames
                0x00004d7f       0x28 /opt/rtems-4.8/sparc-rtems/leon2/lib/librtemscpu.a(libscore_a-threadsetstate.o)
 .debug_pubnames
                0x00004da7       0x2c /opt/rtems-4.8/sparc-rtems/leon2/lib/librtemscpu.a(libscore_a-threadsettransient.o)
 .debug_pubnames
                0x00004dd3       0x2d /opt/rtems-4.8/sparc-rtems/leon2/lib/librtemscpu.a(libscore_a-threadstackallocate.o)
 .debug_pubnames
                0x00004e00       0x29 /opt/rtems-4.8/sparc-rtems/leon2/lib/librtemscpu.a(libscore_a-threadstackfree.o)
 .debug_pubnames
                0x00004e29       0x24 /opt/rtems-4.8/sparc-rtems/leon2/lib/librtemscpu.a(libscore_a-threadstart.o)
 .debug_pubnames
                0x00004e4d       0x31 /opt/rtems-4.8/sparc-rtems/leon2/lib/librtemscpu.a(libscore_a-threadstartmultitasking.o)
 .debug_pubnames
                0x00004e7e       0x26 /opt/rtems-4.8/sparc-rtems/leon2/lib/librtemscpu.a(libscore_a-threadsuspend.o)
 .debug_pubnames
                0x00004ea4       0x2f /opt/rtems-4.8/sparc-rtems/leon2/lib/librtemscpu.a(libscore_a-threadtickletimeslice.o)
 .debug_pubnames
                0x00004ed3       0x2e /opt/rtems-4.8/sparc-rtems/leon2/lib/librtemscpu.a(libscore_a-threadyieldprocessor.o)
 .debug_pubnames
                0x00004f01       0x27 /opt/rtems-4.8/sparc-rtems/leon2/lib/librtemscpu.a(libscore_a-timespecaddto.o)
 .debug_pubnames
                0x00004f28       0x2d /opt/rtems-4.8/sparc-rtems/leon2/lib/librtemscpu.a(libscore_a-timespecgreaterthan.o)
 .debug_pubnames
                0x00004f55       0x2a /opt/rtems-4.8/sparc-rtems/leon2/lib/librtemscpu.a(libscore_a-timespeclessthan.o)
 .debug_pubnames
                0x00004f7f       0x29 /opt/rtems-4.8/sparc-rtems/leon2/lib/librtemscpu.a(libscore_a-timespecsubtract.o)
 .debug_pubnames
                0x00004fa8       0x3e /opt/rtems-4.8/sparc-rtems/leon2/lib/librtemscpu.a(libscore_a-userext.o)
 .debug_pubnames
                0x00004fe6       0x2f /opt/rtems-4.8/sparc-rtems/leon2/lib/librtemscpu.a(libscore_a-userextaddset.o)
 .debug_pubnames
                0x00005015       0x73 /opt/rtems-4.8/sparc-rtems/leon2/lib/librtemscpu.a(libscore_a-userextthreadbegin.o)
 .debug_pubnames
                0x00005088       0x35 /opt/rtems-4.8/sparc-rtems/leon2/lib/librtemscpu.a(libscore_a-userextthreadcreate.o)
 .debug_pubnames
                0x000050bd       0x35 /opt/rtems-4.8/sparc-rtems/leon2/lib/librtemscpu.a(libscore_a-userextthreaddelete.o)
 .debug_pubnames
                0x000050f2       0x34 /opt/rtems-4.8/sparc-rtems/leon2/lib/librtemscpu.a(libscore_a-userextthreadstart.o)
 .debug_pubnames
                0x00005126       0x35 /opt/rtems-4.8/sparc-rtems/leon2/lib/librtemscpu.a(libscore_a-userextthreadswitch.o)
 .debug_pubnames
                0x0000515b       0x37 /opt/rtems-4.8/sparc-rtems/leon2/lib/librtemscpu.a(libscore_a-watchdog.o)
 .debug_pubnames
                0x00005192       0x27 /opt/rtems-4.8/sparc-rtems/leon2/lib/librtemscpu.a(libscore_a-watchdoginsert.o)
 .debug_pubnames
                0x000051b9       0x27 /opt/rtems-4.8/sparc-rtems/leon2/lib/librtemscpu.a(libscore_a-watchdogremove.o)
 .debug_pubnames
                0x000051e0       0x27 /opt/rtems-4.8/sparc-rtems/leon2/lib/librtemscpu.a(libscore_a-watchdogtickle.o)
 .debug_pubnames
                0x00005207       0x5f /opt/rtems-4.8/sparc-rtems/leon2/lib/librtemscpu.a(libscore_a-wkspace.o)
 .debug_pubnames
                0x00005266       0xb2 /opt/rtems-4.8/sparc-rtems/leon2/lib/librtemscpu.a(libscorecpu_a-cpu.o)
 .debug_pubnames
                0x00005318       0x3b /opt/rtems-4.8/sparc-rtems/leon2/lib/librtemscpu.a(miniimfs_init.o)
 .debug_pubnames
                0x00005353       0xc1 /opt/rtems-4.8/sparc-rtems/leon2/lib/librtemscpu.a(imfs_eval.o)
 .debug_pubnames
                0x00005414       0x2d /opt/rtems-4.8/sparc-rtems/leon2/lib/librtemscpu.a(imfs_getchild.o)
 .debug_pubnames
                0x00005441       0x25 /opt/rtems-4.8/sparc-rtems/leon2/lib/librtemscpu.a(imfs_gtkn.o)
 .debug_pubnames
                0x00005466       0x2b /opt/rtems-4.8/sparc-rtems/leon2/lib/librtemscpu.a(imfs_handlers_device.o)
 .debug_pubnames
                0x00005491       0x29 /opt/rtems-4.8/sparc-rtems/leon2/lib/librtemscpu.a(imfs_handlers_link.o)
 .debug_pubnames
                0x000054ba       0x4f /opt/rtems-4.8/sparc-rtems/leon2/lib/librtemscpu.a(imfs_initsupp.o)
 .debug_pubnames
                0x00005509       0x21 /opt/rtems-4.8/sparc-rtems/leon2/lib/librtemscpu.a(imfs_mknod.o)
 .debug_pubnames
                0x0000552a       0x25 /opt/rtems-4.8/sparc-rtems/leon2/lib/librtemscpu.a(imfs_ntype.o)
 .debug_pubnames
                0x0000554f       0x21 /opt/rtems-4.8/sparc-rtems/leon2/lib/librtemscpu.a(imfs_rmnod.o)
 .debug_pubnames
                0x00005570       0x20 /opt/rtems-4.8/sparc-rtems/leon2/lib/librtemscpu.a(imfs_stat.o)
 .debug_pubnames
                0x00005590       0x20 /opt/rtems-4.8/sparc-rtems/leon2/lib/librtemscpu.a(libc_a-inet_ntoa.o)
 .debug_pubnames
                0x000055b0       0x20 /opt/rtems-4.8/sparc-rtems/leon2/lib/librtemscpu.a(libc_a-inet_ntop.o)
 .debug_pubnames
                0x000055d0       0x49 /opt/rtems-4.8/sparc-rtems/leon2/lib/librtemscpu.a(libcsupport_a-__gettod.o)
 .debug_pubnames
                0x00005619       0x32 /opt/rtems-4.8/sparc-rtems/leon2/lib/librtemscpu.a(libcsupport_a-assoclocalbyremote.o)
 .debug_pubnames
                0x0000564b       0x3b /opt/rtems-4.8/sparc-rtems/leon2/lib/librtemscpu.a(libcsupport_a-assoclocalbyremotebitfield.o)
 .debug_pubnames
                0x00005686       0x30 /opt/rtems-4.8/sparc-rtems/leon2/lib/librtemscpu.a(libcsupport_a-assocptrbyremote.o)
 .debug_pubnames
                0x000056b6       0x67 /opt/rtems-4.8/sparc-rtems/leon2/lib/librtemscpu.a(libcsupport_a-base_fs.o)
 .debug_pubnames
                0x0000571d       0x7b /opt/rtems-4.8/sparc-rtems/leon2/lib/librtemscpu.a(libcsupport_a-error.o)
 .debug_pubnames
                0x00005798       0x35 /opt/rtems-4.8/sparc-rtems/leon2/lib/librtemscpu.a(libcsupport_a-fs_null_handlers.o)
 .debug_pubnames
                0x000057cd       0x1e /opt/rtems-4.8/sparc-rtems/leon2/lib/librtemscpu.a(libcsupport_a-getegid.o)
 .debug_pubnames
                0x000057eb       0x1e /opt/rtems-4.8/sparc-rtems/leon2/lib/librtemscpu.a(libcsupport_a-geteuid.o)
 .debug_pubnames
                0x00005809       0x1c /opt/rtems-4.8/sparc-rtems/leon2/lib/librtemscpu.a(libcsupport_a-ioctl.o)
 .debug_pubnames
                0x00005825       0x4f /opt/rtems-4.8/sparc-rtems/leon2/lib/librtemscpu.a(libcsupport_a-libio_sockets.o)
 .debug_pubnames
                0x00005874       0x5d /opt/rtems-4.8/sparc-rtems/leon2/lib/librtemscpu.a(libcsupport_a-mount.o)
 .debug_pubnames
                0x000058d1       0x2c /opt/rtems-4.8/sparc-rtems/leon2/lib/librtemscpu.a(libcsupport_a-newlibc_exit.o)
 .debug_pubnames
                0x000058fd       0x27 /opt/rtems-4.8/sparc-rtems/leon2/lib/librtemscpu.a(libcsupport_a-open.o)
 .debug_pubnames
                0x00005924       0x72 /opt/rtems-4.8/sparc-rtems/leon2/lib/librtemscpu.a(libnetworking_a-if_ether.o)
 .debug_pubnames
                0x00005996       0x75 /opt/rtems-4.8/sparc-rtems/leon2/lib/librtemscpu.a(libnetworking_a-in.o)
 .debug_pubnames
                0x00005a0b       0x1f /opt/rtems-4.8/sparc-rtems/leon2/lib/librtemscpu.a(libnetworking_a-in_cksum.o)
 .debug_pubnames
                0x00005a2a      0x130 /opt/rtems-4.8/sparc-rtems/leon2/lib/librtemscpu.a(libnetworking_a-in_pcb.o)
 .debug_pubnames
                0x00005b5a       0xf5 /opt/rtems-4.8/sparc-rtems/leon2/lib/librtemscpu.a(libnetworking_a-in_proto.o)
 .debug_pubnames
                0x00005c4f       0x32 /opt/rtems-4.8/sparc-rtems/leon2/lib/librtemscpu.a(libnetworking_a-in_rmx.o)
 .debug_pubnames
                0x00005c81       0x70 /opt/rtems-4.8/sparc-rtems/leon2/lib/librtemscpu.a(libnetworking_a-ip_icmp.o)
 .debug_pubnames
                0x00005cf1       0x39 /opt/rtems-4.8/sparc-rtems/leon2/lib/librtemscpu.a(libnetworking_a-kern_subr.o)
 .debug_pubnames
                0x00005d2a       0x4d /opt/rtems-4.8/sparc-rtems/leon2/lib/librtemscpu.a(libnetworking_a-raw_usrreq.o)
 .debug_pubnames
                0x00005d77       0x35 /opt/rtems-4.8/sparc-rtems/leon2/lib/librtemscpu.a(libnetworking_a-rtems_bsdnet_malloc_starvation.o)
 .debug_pubnames
                0x00005dac       0x81 /opt/rtems-4.8/sparc-rtems/leon2/lib/librtemscpu.a(libnetworking_a-tcp_input.o)
 .debug_pubnames
                0x00005e2d       0x34 /opt/rtems-4.8/sparc-rtems/leon2/lib/librtemscpu.a(libnetworking_a-tcp_output.o)
 .debug_pubnames
                0x00005e61       0xdf /opt/rtems-4.8/sparc-rtems/leon2/lib/librtemscpu.a(libnetworking_a-tcp_subr.o)
 .debug_pubnames
                0x00005f40       0x9a /opt/rtems-4.8/sparc-rtems/leon2/lib/librtemscpu.a(libnetworking_a-tcp_timer.o)
 .debug_pubnames
                0x00005fda       0x58 /opt/rtems-4.8/sparc-rtems/leon2/lib/librtemscpu.a(libnetworking_a-tcp_usrreq.o)
 .debug_pubnames
                0x00006032       0x6d /opt/rtems-4.8/sparc-rtems/leon2/lib/librtemscpu.a(libnetworking_a-udp_usrreq.o)
 .debug_pubnames
                0x0000609f       0x48 /opt/rtems-4.8/sparc-rtems/leon2/lib/librtemscpu.a(libposix_a-cond.o)
 .debug_pubnames
                0x000060e7       0x38 /opt/rtems-4.8/sparc-rtems/leon2/lib/librtemscpu.a(libposix_a-key.o)
 .debug_pubnames
                0x0000611f       0x42 /opt/rtems-4.8/sparc-rtems/leon2/lib/librtemscpu.a(libposix_a-mqueue.o)
 .debug_pubnames
                0x00006161       0x3a /opt/rtems-4.8/sparc-rtems/leon2/lib/librtemscpu.a(libposix_a-mutex.o)
 .debug_pubnames
                0x0000619b       0x3c /opt/rtems-4.8/sparc-rtems/leon2/lib/librtemscpu.a(libposix_a-pbarrier.o)
 .debug_pubnames
                0x000061d7       0x3b /opt/rtems-4.8/sparc-rtems/leon2/lib/librtemscpu.a(libposix_a-prwlock.o)
 .debug_pubnames
                0x00006212      0x14b /opt/rtems-4.8/sparc-rtems/leon2/lib/librtemscpu.a(libposix_a-psignal.o)
 .debug_pubnames
                0x0000635d       0x32 /opt/rtems-4.8/sparc-rtems/leon2/lib/librtemscpu.a(libposix_a-psignalchecksignal.o)
 .debug_pubnames
                0x0000638f       0x33 /opt/rtems-4.8/sparc-rtems/leon2/lib/librtemscpu.a(libposix_a-psignalclearsignals.o)
 .debug_pubnames
                0x000063c2       0x3d /opt/rtems-4.8/sparc-rtems/leon2/lib/librtemscpu.a(libposix_a-pspin.o)
 .debug_pubnames
                0x000063ff      0x191 /opt/rtems-4.8/sparc-rtems/leon2/lib/librtemscpu.a(libposix_a-pthread.o)
 .debug_pubnames
                0x00006590       0x23 /opt/rtems-4.8/sparc-rtems/leon2/lib/librtemscpu.a(libposix_a-pthreadexit.o)
 .debug_pubnames
                0x000065b3       0x3a /opt/rtems-4.8/sparc-rtems/leon2/lib/librtemscpu.a(libposix_a-ptimer.o)
 .debug_pubnames
                0x000065ed       0x3e /opt/rtems-4.8/sparc-rtems/leon2/lib/librtemscpu.a(libposix_a-semaphore.o)
 .debug_pubnames
                0x0000662b       0x22 /opt/rtems-4.8/sparc-rtems/leon2/lib/librtemscpu.a(libposix_a-sigemptyset.o)
 .debug_pubnames
                0x0000664d       0x36 /opt/rtems-4.8/sparc-rtems/leon2/lib/librtemscpu.a(librtems_a-barrier.o)
 .debug_pubnames
                0x00006683       0x2b /opt/rtems-4.8/sparc-rtems/leon2/lib/librtemscpu.a(librtems_a-barrierdata.o)
 .debug_pubnames
                0x000066ae       0x41 /opt/rtems-4.8/sparc-rtems/leon2/lib/librtemscpu.a(librtems_a-dpmem.o)
 .debug_pubnames
                0x000066ef       0x36 /opt/rtems-4.8/sparc-rtems/leon2/lib/librtemscpu.a(librtems_a-dpmemdata.o)
 .debug_pubnames
                0x00006725       0x34 /opt/rtems-4.8/sparc-rtems/leon2/lib/librtemscpu.a(librtems_a-event.o)
 .debug_pubnames
                0x00006759       0x28 /opt/rtems-4.8/sparc-rtems/leon2/lib/librtemscpu.a(librtems_a-eventdata.o)
 .debug_pubnames
                0x00006781       0x38 /opt/rtems-4.8/sparc-rtems/leon2/lib/librtemscpu.a(librtems_a-intr.o)
 .debug_pubnames
                0x000067b9       0x3c /opt/rtems-4.8/sparc-rtems/leon2/lib/librtemscpu.a(librtems_a-msg.o)
 .debug_pubnames
                0x000067f5       0x31 /opt/rtems-4.8/sparc-rtems/leon2/lib/librtemscpu.a(librtems_a-msgdata.o)
 .debug_pubnames
                0x00006826       0x38 /opt/rtems-4.8/sparc-rtems/leon2/lib/librtemscpu.a(librtems_a-part.o)
 .debug_pubnames
                0x0000685e       0x2d /opt/rtems-4.8/sparc-rtems/leon2/lib/librtemscpu.a(librtems_a-partdata.o)
 .debug_pubnames
                0x0000688b       0x3d /opt/rtems-4.8/sparc-rtems/leon2/lib/librtemscpu.a(librtems_a-ratemon.o)
 .debug_pubnames
                0x000068c8       0x35 /opt/rtems-4.8/sparc-rtems/leon2/lib/librtemscpu.a(librtems_a-region.o)
 .debug_pubnames
                0x000068fd       0x2a /opt/rtems-4.8/sparc-rtems/leon2/lib/librtemscpu.a(librtems_a-regiondata.o)
 .debug_pubnames
                0x00006927       0x34 /opt/rtems-4.8/sparc-rtems/leon2/lib/librtemscpu.a(librtems_a-rtemstimer.o)
 .debug_pubnames
                0x0000695b       0x3b /opt/rtems-4.8/sparc-rtems/leon2/lib/librtemscpu.a(librtems_a-rtemstimerdata.o)
 .debug_pubnames
                0x00006996       0x38 /opt/rtems-4.8/sparc-rtems/leon2/lib/librtemscpu.a(librtems_a-sem.o)
 .debug_pubnames
                0x000069ce       0x35 /opt/rtems-4.8/sparc-rtems/leon2/lib/librtemscpu.a(librtems_a-signal.o)
 .debug_pubnames
                0x00006a03      0x150 /opt/rtems-4.8/sparc-rtems/leon2/lib/librtemscpu.a(librtems_a-tasks.o)
 .debug_pubnames
                0x00006b53       0x79 /opt/rtems-4.8/sparc-rtems/leon2/lib/librtemscpu.a(libsapi_a-debug.o)
 .debug_pubnames
                0x00006bcc       0x2f /opt/rtems-4.8/sparc-rtems/leon2/lib/librtemscpu.a(libsapi_a-exshutdown.o)
 .debug_pubnames
                0x00006bfb       0x28 /opt/rtems-4.8/sparc-rtems/leon2/lib/librtemscpu.a(libscore_a-chain.o)
 .debug_pubnames
                0x00006c23       0x25 /opt/rtems-4.8/sparc-rtems/leon2/lib/librtemscpu.a(libscore_a-chainextract.o)
 .debug_pubnames
                0x00006c48       0x23 /opt/rtems-4.8/sparc-rtems/leon2/lib/librtemscpu.a(libscore_a-heapextend.o)
 .debug_pubnames
                0x00006c6b       0x29 /opt/rtems-4.8/sparc-rtems/leon2/lib/librtemscpu.a(libscore_a-heapresizeblock.o)
 .debug_pubnames
                0x00006c94       0x2e /opt/rtems-4.8/sparc-rtems/leon2/lib/librtemscpu.a(libscore_a-heapsizeofuserarea.o)
 .debug_pubnames
                0x00006cc2       0x30 /opt/rtems-4.8/sparc-rtems/leon2/lib/librtemscpu.a(libscore_a-objectcomparenameraw.o)
 .debug_pubnames
                0x00006cf2       0x33 /opt/rtems-4.8/sparc-rtems/leon2/lib/librtemscpu.a(libscore_a-objectcomparenamestring.o)
 .debug_pubnames
                0x00006d25       0x2f /opt/rtems-4.8/sparc-rtems/leon2/lib/librtemscpu.a(libscore_a-threadloadenv.o)
 .debug_pubnames
                0x00006d54       0x2c /opt/rtems-4.8/sparc-rtems/leon2/lib/librtemscpu.a(libscore_a-threadqextract.o)
 .debug_pubnames
                0x00006d80       0x31 /opt/rtems-4.8/sparc-rtems/leon2/lib/librtemscpu.a(libscore_a-threadqextractfifo.o)
 .debug_pubnames
                0x00006db1       0x3c /opt/rtems-4.8/sparc-rtems/leon2/lib/librtemscpu.a(libscore_a-threadqextractpriority.o)
 .debug_pubnames
                0x00006ded       0x24 /opt/rtems-4.8/sparc-rtems/leon2/lib/librtemscpu.a(libscore_a-threadready.o)
 .debug_pubnames
                0x00006e11       0x2e /opt/rtems-4.8/sparc-rtems/leon2/lib/librtemscpu.a(libscore_a-threadresettimeslice.o)
 .debug_pubnames
                0x00006e3f       0x29 /opt/rtems-4.8/sparc-rtems/leon2/lib/librtemscpu.a(libscore_a-timespectoticks.o)
 .debug_pubnames
                0x00006e68       0x33 /opt/rtems-4.8/sparc-rtems/leon2/lib/librtemscpu.a(libscore_a-userextaddapiset.o)
 .debug_pubnames
                0x00006e9b       0x86 /opt/rtems-4.8/sparc-rtems/leon2/lib/librtemscpu.a(deviceio.o)
 .debug_pubnames
                0x00006f21       0x2e /opt/rtems-4.8/sparc-rtems/leon2/lib/librtemscpu.a(imfs_config.o)
 .debug_pubnames
                0x00006f4f       0x27 /opt/rtems-4.8/sparc-rtems/leon2/lib/librtemscpu.a(imfs_creat.o)
 .debug_pubnames
                0x00006f76       0x22 /opt/rtems-4.8/sparc-rtems/leon2/lib/librtemscpu.a(imfs_fchmod.o)
 .debug_pubnames
                0x00006f98       0x30 /opt/rtems-4.8/sparc-rtems/leon2/lib/librtemscpu.a(libcsupport_a-assocnamebylocal.o)
 .debug_pubnames
                0x00006fc8       0x2f /opt/rtems-4.8/sparc-rtems/leon2/lib/librtemscpu.a(libcsupport_a-assocptrbylocal.o)
 .debug_pubnames
                0x00006ff7       0x32 /opt/rtems-4.8/sparc-rtems/leon2/lib/librtemscpu.a(libcsupport_a-assocremotebylocal.o)
 .debug_pubnames
                0x00007029       0x20 /opt/rtems-4.8/sparc-rtems/leon2/lib/librtemscpu.a(libcsupport_a-ftruncate.o)
 .debug_pubnames
                0x00007049       0x7a /opt/rtems-4.8/sparc-rtems/leon2/lib/librtemscpu.a(libnetworking_a-igmp.o)
 .debug_pubnames
                0x000070c3       0x52 /opt/rtems-4.8/sparc-rtems/leon2/lib/librtemscpu.a(libnetworking_a-raw_cb.o)
 .debug_pubnames
                0x00007115       0x32 /opt/rtems-4.8/sparc-rtems/leon2/lib/librtemscpu.a(libposix_a-keyrundestructors.o)
 .debug_pubnames
                0x00007147       0x3b /opt/rtems-4.8/sparc-rtems/leon2/lib/librtemscpu.a(libposix_a-psignalclearprocesssignals.o)
 .debug_pubnames
                0x00007182       0x26 /opt/rtems-4.8/sparc-rtems/leon2/lib/librtemscpu.a(librtems_a-taskmode.o)
 .debug_pubnames
                0x000071a8       0x25 /opt/rtems-4.8/sparc-rtems/leon2/lib/librtemscpu.a(libsapi_a-ioclose.o)
 .debug_pubnames
                0x000071cd       0x27 /opt/rtems-4.8/sparc-rtems/leon2/lib/librtemscpu.a(libsapi_a-iocontrol.o)
 .debug_pubnames
                0x000071f4       0x24 /opt/rtems-4.8/sparc-rtems/leon2/lib/librtemscpu.a(libsapi_a-ioopen.o)
 .debug_pubnames
                0x00007218       0x24 /opt/rtems-4.8/sparc-rtems/leon2/lib/librtemscpu.a(libsapi_a-ioread.o)
 .debug_pubnames
                0x0000723c       0x25 /opt/rtems-4.8/sparc-rtems/leon2/lib/librtemscpu.a(libsapi_a-iowrite.o)
 .debug_pubnames
                0x00007261       0x2c /opt/rtems-4.8/sparc-rtems/leon2/lib/librtemscpu.a(libscore_a-threadevaluatemode.o)
 .debug_pubnames
                0x0000728d       0x26 /opt/rtems-4.8/sparc-rtems/leon2/lib/librtemscpu.a(libscore_a-threadhandler.o)
 .debug_pubnames
                0x000072b3       0x2b /opt/rtems-4.8/sparc-rtems/leon2/lib/librtemscpu.a(libcsupport_a-assocnamebad.o)
 .debug_pubnames
                0x000072de       0x1c /opt/rtems-4.8-1.1.3/bin/../lib/gcc/sparc-rtems/4.2.4/../../../../sparc-rtems/lib/soft/libc.a(lib_a-abort.o)
 .debug_pubnames
                0x000072fa       0x1d /opt/rtems-4.8-1.1.3/bin/../lib/gcc/sparc-rtems/4.2.4/../../../../sparc-rtems/lib/soft/libc.a(lib_a-atexit.o)
 .debug_pubnames
                0x00007317       0x1b /opt/rtems-4.8-1.1.3/bin/../lib/gcc/sparc-rtems/4.2.4/../../../../sparc-rtems/lib/soft/libc.a(lib_a-bcmp.o)
 .debug_pubnames
                0x00007332       0x2e /opt/rtems-4.8-1.1.3/bin/../lib/gcc/sparc-rtems/4.2.4/../../../../sparc-rtems/lib/soft/libc.a(lib_a-ctype_.o)
 .debug_pubnames
                0x00007360       0x1e /opt/rtems-4.8-1.1.3/bin/../lib/gcc/sparc-rtems/4.2.4/../../../../sparc-rtems/lib/soft/libc.a(lib_a-errno.o)
 .debug_pubnames
                0x0000737e       0x1b /opt/rtems-4.8-1.1.3/bin/../lib/gcc/sparc-rtems/4.2.4/../../../../sparc-rtems/lib/soft/libc.a(lib_a-exit.o)
 .debug_pubnames
                0x00007399       0x2b /opt/rtems-4.8-1.1.3/bin/../lib/gcc/sparc-rtems/4.2.4/../../../../sparc-rtems/lib/soft/libc.a(lib_a-fclose.o)
 .debug_pubnames
                0x000073c4       0x1d /opt/rtems-4.8-1.1.3/bin/../lib/gcc/sparc-rtems/4.2.4/../../../../sparc-rtems/lib/soft/libc.a(lib_a-fflush.o)
 .debug_pubnames
                0x000073e1       0x1d /opt/rtems-4.8-1.1.3/bin/../lib/gcc/sparc-rtems/4.2.4/../../../../sparc-rtems/lib/soft/libc.a(lib_a-fileno.o)
 .debug_pubnames
                0x000073fe       0xdb /opt/rtems-4.8-1.1.3/bin/../lib/gcc/sparc-rtems/4.2.4/../../../../sparc-rtems/lib/soft/libc.a(lib_a-findfp.o)
 .debug_pubnames
                0x000074d9       0x1e /opt/rtems-4.8-1.1.3/bin/../lib/gcc/sparc-rtems/4.2.4/../../../../sparc-rtems/lib/soft/libc.a(lib_a-fprintf.o)
 .debug_pubnames
                0x000074f7       0x2e /opt/rtems-4.8-1.1.3/bin/../lib/gcc/sparc-rtems/4.2.4/../../../../sparc-rtems/lib/soft/libc.a(lib_a-fwalk.o)
 .debug_pubnames
                0x00007525       0x1f /opt/rtems-4.8-1.1.3/bin/../lib/gcc/sparc-rtems/4.2.4/../../../../sparc-rtems/lib/soft/libc.a(lib_a-gmtime_r.o)
 .debug_pubnames
                0x00007544       0x39 /opt/rtems-4.8-1.1.3/bin/../lib/gcc/sparc-rtems/4.2.4/../../../../sparc-rtems/lib/soft/libc.a(lib_a-impure.o)
 .debug_pubnames
                0x0000757d       0x1d /opt/rtems-4.8-1.1.3/bin/../lib/gcc/sparc-rtems/4.2.4/../../../../sparc-rtems/lib/soft/libc.a(lib_a-memcmp.o)
 .debug_pubnames
                0x0000759a       0x1d /opt/rtems-4.8-1.1.3/bin/../lib/gcc/sparc-rtems/4.2.4/../../../../sparc-rtems/lib/soft/libc.a(lib_a-memcpy.o)
 .debug_pubnames
                0x000075b7       0x1d /opt/rtems-4.8-1.1.3/bin/../lib/gcc/sparc-rtems/4.2.4/../../../../sparc-rtems/lib/soft/libc.a(lib_a-memset.o)
 .debug_pubnames
                0x000075d4       0x32 /opt/rtems-4.8-1.1.3/bin/../lib/gcc/sparc-rtems/4.2.4/../../../../sparc-rtems/lib/soft/libc.a(lib_a-mktm_r.o)
 .debug_pubnames
                0x00007606       0x2b /opt/rtems-4.8-1.1.3/bin/../lib/gcc/sparc-rtems/4.2.4/../../../../sparc-rtems/lib/soft/libc.a(lib_a-printf.o)
 .debug_pubnames
                0x00007631       0x2d /opt/rtems-4.8-1.1.3/bin/../lib/gcc/sparc-rtems/4.2.4/../../../../sparc-rtems/lib/soft/libc.a(lib_a-putchar.o)
 .debug_pubnames
                0x0000765e       0x27 /opt/rtems-4.8-1.1.3/bin/../lib/gcc/sparc-rtems/4.2.4/../../../../sparc-rtems/lib/soft/libc.a(lib_a-puts.o)
 .debug_pubnames
                0x00007685       0x29 /opt/rtems-4.8-1.1.3/bin/../lib/gcc/sparc-rtems/4.2.4/../../../../sparc-rtems/lib/soft/libc.a(lib_a-raise.o)
 .debug_pubnames
                0x000076ae       0x48 /opt/rtems-4.8-1.1.3/bin/../lib/gcc/sparc-rtems/4.2.4/../../../../sparc-rtems/lib/soft/libc.a(lib_a-reent.o)
 .debug_pubnames
                0x000076f6       0x2f /opt/rtems-4.8-1.1.3/bin/../lib/gcc/sparc-rtems/4.2.4/../../../../sparc-rtems/lib/soft/libc.a(lib_a-snprintf.o)
 .debug_pubnames
                0x00007725       0x2d /opt/rtems-4.8-1.1.3/bin/../lib/gcc/sparc-rtems/4.2.4/../../../../sparc-rtems/lib/soft/libc.a(lib_a-sprintf.o)
 .debug_pubnames
                0x00007752       0x44 /opt/rtems-4.8-1.1.3/bin/../lib/gcc/sparc-rtems/4.2.4/../../../../sparc-rtems/lib/soft/libc.a(lib_a-stdio.o)
 .debug_pubnames
                0x00007796       0x1d /opt/rtems-4.8-1.1.3/bin/../lib/gcc/sparc-rtems/4.2.4/../../../../sparc-rtems/lib/soft/libc.a(lib_a-strchr.o)
 .debug_pubnames
                0x000077b3       0x1d /opt/rtems-4.8-1.1.3/bin/../lib/gcc/sparc-rtems/4.2.4/../../../../sparc-rtems/lib/soft/libc.a(lib_a-strcmp.o)
 .debug_pubnames
                0x000077d0       0x1d /opt/rtems-4.8-1.1.3/bin/../lib/gcc/sparc-rtems/4.2.4/../../../../sparc-rtems/lib/soft/libc.a(lib_a-strcpy.o)
 .debug_pubnames
                0x000077ed       0x1d /opt/rtems-4.8-1.1.3/bin/../lib/gcc/sparc-rtems/4.2.4/../../../../sparc-rtems/lib/soft/libc.a(lib_a-strdup.o)
 .debug_pubnames
                0x0000780a       0x20 /opt/rtems-4.8-1.1.3/bin/../lib/gcc/sparc-rtems/4.2.4/../../../../sparc-rtems/lib/soft/libc.a(lib_a-strdup_r.o)
 .debug_pubnames
                0x0000782a       0x1f /opt/rtems-4.8-1.1.3/bin/../lib/gcc/sparc-rtems/4.2.4/../../../../sparc-rtems/lib/soft/libc.a(lib_a-strerror.o)
 .debug_pubnames
                0x00007849       0x1e /opt/rtems-4.8-1.1.3/bin/../lib/gcc/sparc-rtems/4.2.4/../../../../sparc-rtems/lib/soft/libc.a(lib_a-strlcpy.o)
 .debug_pubnames
                0x00007867       0x1d /opt/rtems-4.8-1.1.3/bin/../lib/gcc/sparc-rtems/4.2.4/../../../../sparc-rtems/lib/soft/libc.a(lib_a-strlen.o)
 .debug_pubnames
                0x00007884       0x1e /opt/rtems-4.8-1.1.3/bin/../lib/gcc/sparc-rtems/4.2.4/../../../../sparc-rtems/lib/soft/libc.a(lib_a-strncmp.o)
 .debug_pubnames
                0x000078a2       0x1e /opt/rtems-4.8-1.1.3/bin/../lib/gcc/sparc-rtems/4.2.4/../../../../sparc-rtems/lib/soft/libc.a(lib_a-strncpy.o)
 .debug_pubnames
                0x000078c0       0x30 /opt/rtems-4.8-1.1.3/bin/../lib/gcc/sparc-rtems/4.2.4/../../../../sparc-rtems/lib/soft/libc.a(lib_a-tzlock.o)
 .debug_pubnames
                0x000078f0       0x3a /opt/rtems-4.8-1.1.3/bin/../lib/gcc/sparc-rtems/4.2.4/../../../../sparc-rtems/lib/soft/libc.a(lib_a-tzvars.o)
 .debug_pubnames
                0x0000792a       0x25 /opt/rtems-4.8-1.1.3/bin/../lib/gcc/sparc-rtems/4.2.4/../../../../sparc-rtems/lib/soft/libc.a(lib_a-u_strerr.o)
 .debug_pubnames
                0x0000794f       0x2f /opt/rtems-4.8-1.1.3/bin/../lib/gcc/sparc-rtems/4.2.4/../../../../sparc-rtems/lib/soft/libc.a(lib_a-vfprintf.o)
 .debug_pubnames
                0x0000797e       0x2d /opt/rtems-4.8-1.1.3/bin/../lib/gcc/sparc-rtems/4.2.4/../../../../sparc-rtems/lib/soft/libc.a(lib_a-vprintf.o)
 .debug_pubnames
                0x000079ab       0x2d /opt/rtems-4.8-1.1.3/bin/../lib/gcc/sparc-rtems/4.2.4/../../../../sparc-rtems/lib/soft/libc.a(lib_a-wcrtomb.o)
 .debug_pubnames
                0x000079d8       0x31 /opt/rtems-4.8-1.1.3/bin/../lib/gcc/sparc-rtems/4.2.4/../../../../sparc-rtems/lib/soft/libc.a(lib_a-wcsrtombs.o)
 .debug_pubnames
                0x00007a09       0x20 /opt/rtems-4.8-1.1.3/bin/../lib/gcc/sparc-rtems/4.2.4/../../../../sparc-rtems/lib/soft/libc.a(lib_a-wctomb_r.o)
 .debug_pubnames
                0x00007a29       0x20 /opt/rtems-4.8-1.1.3/bin/../lib/gcc/sparc-rtems/4.2.4/../../../../sparc-rtems/lib/soft/libc.a(lib_a-wsetup.o)
 .debug_pubnames
                0x00007a49       0x2a /opt/rtems-4.8-1.1.3/bin/../lib/gcc/sparc-rtems/4.2.4/../../../../sparc-rtems/lib/soft/libc.a(lib_a-__atexit.o)
 .debug_pubnames
                0x00007a73       0x27 /opt/rtems-4.8-1.1.3/bin/../lib/gcc/sparc-rtems/4.2.4/../../../../sparc-rtems/lib/soft/libc.a(lib_a-__call_atexit.o)
 .debug_pubnames
                0x00007a9a       0x1e /opt/rtems-4.8-1.1.3/bin/../lib/gcc/sparc-rtems/4.2.4/../../../../sparc-rtems/lib/soft/libc.a(lib_a-dtoa.o)
 .debug_pubnames
                0x00007ab8       0x23 /opt/rtems-4.8-1.1.3/bin/../lib/gcc/sparc-rtems/4.2.4/../../../../sparc-rtems/lib/soft/libc.a(lib_a-fvwrite.o)
 .debug_pubnames
                0x00007adb       0x22 /opt/rtems-4.8-1.1.3/bin/../lib/gcc/sparc-rtems/4.2.4/../../../../sparc-rtems/lib/soft/libc.a(lib_a-gettzinfo.o)
 .debug_pubnames
                0x00007afd       0xc3 /opt/rtems-4.8-1.1.3/bin/../lib/gcc/sparc-rtems/4.2.4/../../../../sparc-rtems/lib/soft/libc.a(lib_a-locale.o)
 .debug_pubnames
                0x00007bc0       0x21 /opt/rtems-4.8-1.1.3/bin/../lib/gcc/sparc-rtems/4.2.4/../../../../sparc-rtems/lib/soft/libc.a(lib_a-makebuf.o)
 .debug_pubnames
                0x00007be1       0x1d /opt/rtems-4.8-1.1.3/bin/../lib/gcc/sparc-rtems/4.2.4/../../../../sparc-rtems/lib/soft/libc.a(lib_a-memchr.o)
 .debug_pubnames
                0x00007bfe       0x1e /opt/rtems-4.8-1.1.3/bin/../lib/gcc/sparc-rtems/4.2.4/../../../../sparc-rtems/lib/soft/libc.a(lib_a-memmove.o)
 .debug_pubnames
                0x00007c1c      0x13a /opt/rtems-4.8-1.1.3/bin/../lib/gcc/sparc-rtems/4.2.4/../../../../sparc-rtems/lib/soft/libc.a(lib_a-mprec.o)
 .debug_pubnames
                0x00007d56       0x27 /opt/rtems-4.8-1.1.3/bin/../lib/gcc/sparc-rtems/4.2.4/../../../../sparc-rtems/lib/soft/libc.a(lib_a-putc.o)
 .debug_pubnames
                0x00007d7d       0x1f /opt/rtems-4.8-1.1.3/bin/../lib/gcc/sparc-rtems/4.2.4/../../../../sparc-rtems/lib/soft/libc.a(lib_a-s_isinfd.o)
 .debug_pubnames
                0x00007d9c       0x1f /opt/rtems-4.8-1.1.3/bin/../lib/gcc/sparc-rtems/4.2.4/../../../../sparc-rtems/lib/soft/libc.a(lib_a-s_isnand.o)
 .debug_pubnames
                0x00007dbb       0x2c /opt/rtems-4.8-1.1.3/bin/../lib/gcc/sparc-rtems/4.2.4/../../../../sparc-rtems/lib/soft/libc.a(lib_a-wbuf.o)
 .debug_pubnames
                0x00007de7       0x20 /opt/rtems-4.8-1.1.3/bin/../lib/gcc/sparc-rtems/4.2.4/soft/libgcc.a(_udivdi3.o)
 .debug_pubnames
                0x00007e07       0x20 /opt/rtems-4.8-1.1.3/bin/../lib/gcc/sparc-rtems/4.2.4/soft/libgcc.a(_umoddi3.o)
 .debug_pubnames
                0x00007e27       0x2c /opt/rtems-4.8-1.1.3/bin/../lib/gcc/sparc-rtems/4.2.4/soft/libgcc.a(_addsub_df.o)
 .debug_pubnames
                0x00007e53       0x1f /opt/rtems-4.8-1.1.3/bin/../lib/gcc/sparc-rtems/4.2.4/soft/libgcc.a(_div_df.o)
 .debug_pubnames
                0x00007e72       0x1e /opt/rtems-4.8-1.1.3/bin/../lib/gcc/sparc-rtems/4.2.4/soft/libgcc.a(_eq_df.o)
 .debug_pubnames
                0x00007e90       0x1e /opt/rtems-4.8-1.1.3/bin/../lib/gcc/sparc-rtems/4.2.4/soft/libgcc.a(_ne_df.o)
 .debug_pubnames
                0x00007eae       0x1e /opt/rtems-4.8-1.1.3/bin/../lib/gcc/sparc-rtems/4.2.4/soft/libgcc.a(_gt_df.o)
 .debug_pubnames
                0x00007ecc       0x1e /opt/rtems-4.8-1.1.3/bin/../lib/gcc/sparc-rtems/4.2.4/soft/libgcc.a(_ge_df.o)
 .debug_pubnames
                0x00007eea       0x1e /opt/rtems-4.8-1.1.3/bin/../lib/gcc/sparc-rtems/4.2.4/soft/libgcc.a(_lt_df.o)
 .debug_pubnames
                0x00007f08       0x22 /opt/rtems-4.8-1.1.3/bin/../lib/gcc/sparc-rtems/4.2.4/soft/libgcc.a(_si_to_df.o)
 .debug_pubnames
                0x00007f2a       0x20 /opt/rtems-4.8-1.1.3/bin/../lib/gcc/sparc-rtems/4.2.4/soft/libgcc.a(_df_to_si.o)
 .debug_pubnames
                0x00007f4a       0x26 /opt/rtems-4.8-1.1.3/bin/../lib/gcc/sparc-rtems/4.2.4/soft/libgcc.a(_fpcmp_parts_df.o)
 .debug_pubnames
                0x00007f70      0x362 /opt/rtems-4.8/sparc-rtems/leon2/lib/librtemsbsp.a(cache.rel)
 .debug_pubnames
                0x000082d2       0x25 /opt/rtems-4.8/sparc-rtems/leon2/lib/librtemsbsp.a(libsupport_a-version.o)
 .debug_pubnames
                0x000082f7       0x29 /opt/rtems-4.8/sparc-rtems/leon2/lib/librtemscpu.a(libcsupport_a-fstat.o)
 .debug_pubnames
                0x00008320       0x2b /opt/rtems-4.8/sparc-rtems/leon2/lib/librtemscpu.a(libcsupport_a-getpid.o)
 .debug_pubnames
                0x0000834b       0x1d /opt/rtems-4.8/sparc-rtems/leon2/lib/librtemscpu.a(libcsupport_a-isatty.o)
 .debug_pubnames
                0x00008368       0x29 /opt/rtems-4.8/sparc-rtems/leon2/lib/librtemscpu.a(libcsupport_a-lseek.o)
 .debug_pubnames
                0x00008391       0x27 /opt/rtems-4.8/sparc-rtems/leon2/lib/librtemscpu.a(libcsupport_a-read.o)
 .debug_pubnames
                0x000083b8       0x1f /opt/rtems-4.8/sparc-rtems/leon2/lib/librtemscpu.a(libcsupport_a-write_r.o)
 .debug_pubnames
                0x000083d7       0x27 /opt/rtems-4.8/sparc-rtems/leon2/lib/librtemscpu.a(libposix_a-kill.o)
 .debug_pubnames
                0x000083fe       0x1f /opt/rtems-4.8/sparc-rtems/leon2/lib/librtemscpu.a(libposix_a-killinfo.o)
 .debug_pubnames
                0x0000841d       0x39 /opt/rtems-4.8/sparc-rtems/leon2/lib/librtemscpu.a(libposix_a-psignalsetprocesssignals.o)
 .debug_pubnames
                0x00008456       0x34 /opt/rtems-4.8/sparc-rtems/leon2/lib/librtemscpu.a(libposix_a-psignalunblockthread.o)
 .debug_pubnames
                0x0000848a       0x23 /opt/rtems-4.8/sparc-rtems/leon2/lib/librtemscpu.a(libposix_a-pthreadkill.o)
 .debug_pubnames
                0x000084ad       0x23 /opt/rtems-4.8/sparc-rtems/leon2/lib/librtemscpu.a(libposix_a-pthreadself.o)
 .debug_pubnames
                0x000084d0       0x62 /opt/rtems-4.8/sparc-rtems/leon2/lib/librtemscpu.a(libposix_a-types.o)
 .debug_pubnames
                0x00008532       0x1c /opt/rtems-4.8/sparc-rtems/leon2/lib/librtemscpu.a(libcsupport_a-write.o)

.debug_ranges   0x00000000     0x4c48
 .debug_ranges  0x00000000       0x38 /home/aitor/workspace/rasta-sw/osal-repo/trunk/samples/misc/soclient.o
 .debug_ranges  0x00000038      0x4b0 libosal_rtems_rastaleon2.a(osmut.o)
 .debug_ranges  0x000004e8       0xc0 libosal_rtems_rastaleon2.a(ostask.o)
 .debug_ranges  0x000005a8       0x98 /opt/rtems-4.8-1.1.3/bin/../lib/gcc/sparc-rtems/4.2.4/soft/libgcc.a(_mul_df.o)
 .debug_ranges  0x00000640       0x38 /opt/rtems-4.8-1.1.3/bin/../lib/gcc/sparc-rtems/4.2.4/soft/libgcc.a(_usi_to_df.o)
 .debug_ranges  0x00000678       0x18 /opt/rtems-4.8-1.1.3/bin/../lib/gcc/sparc-rtems/4.2.4/soft/libgcc.a(_muldi3.o)
 .debug_ranges  0x00000690       0x18 /opt/rtems-4.8-1.1.3/bin/../lib/gcc/sparc-rtems/4.2.4/soft/libgcc.a(_clzsi2.o)
 .debug_ranges  0x000006a8       0x18 /opt/rtems-4.8-1.1.3/bin/../lib/gcc/sparc-rtems/4.2.4/soft/libgcc.a(_pack_df.o)
 .debug_ranges  0x000006c0      0x8e0 /opt/rtems-4.8/sparc-rtems/leon2/lib/librtemsbsp.a(libnetchip_a-smc91111.o)
 .debug_ranges  0x00000fa0       0xe0 /opt/rtems-4.8/sparc-rtems/leon2/lib/librtemscpu.a(libc_a-inet_pton.o)
 .debug_ranges  0x00001080       0x38 /opt/rtems-4.8/sparc-rtems/leon2/lib/librtemscpu.a(libcsupport_a-malloc.o)
 .debug_ranges  0x000010b8       0x30 /opt/rtems-4.8/sparc-rtems/leon2/lib/librtemscpu.a(libcsupport_a-printk.o)
 .debug_ranges  0x000010e8      0x1b8 /opt/rtems-4.8/sparc-rtems/leon2/lib/librtemscpu.a(libcsupport_a-termios.o)
 .debug_ranges  0x000012a0       0x90 /opt/rtems-4.8/sparc-rtems/leon2/lib/librtemscpu.a(libnetworking_a-if.o)
 .debug_ranges  0x00001330      0x328 /opt/rtems-4.8/sparc-rtems/leon2/lib/librtemscpu.a(libnetworking_a-ip_input.o)
 .debug_ranges  0x00001658      0x2e8 /opt/rtems-4.8/sparc-rtems/leon2/lib/librtemscpu.a(libnetworking_a-ip_output.o)
 .debug_ranges  0x00001940       0x38 /opt/rtems-4.8/sparc-rtems/leon2/lib/librtemscpu.a(libnetworking_a-kern_sysctl.o)
 .debug_ranges  0x00001978       0x50 /opt/rtems-4.8/sparc-rtems/leon2/lib/librtemscpu.a(libnetworking_a-radix.o)
 .debug_ranges  0x000019c8       0x50 /opt/rtems-4.8/sparc-rtems/leon2/lib/librtemscpu.a(libnetworking_a-raw_ip.o)
 .debug_ranges  0x00001a18       0x20 /opt/rtems-4.8/sparc-rtems/leon2/lib/librtemscpu.a(libnetworking_a-route.o)
 .debug_ranges  0x00001a38      0x388 /opt/rtems-4.8/sparc-rtems/leon2/lib/librtemscpu.a(libnetworking_a-rtems_glue.o)
 .debug_ranges  0x00001dc0       0x68 /opt/rtems-4.8/sparc-rtems/leon2/lib/librtemscpu.a(libnetworking_a-rtems_showifstat.o)
 .debug_ranges  0x00001e28       0x58 /opt/rtems-4.8/sparc-rtems/leon2/lib/librtemscpu.a(libnetworking_a-rtems_showroute.o)
 .debug_ranges  0x00001e80       0x88 /opt/rtems-4.8/sparc-rtems/leon2/lib/librtemscpu.a(libnetworking_a-rtems_syscall.o)
 .debug_ranges  0x00001f08      0x1e0 /opt/rtems-4.8/sparc-rtems/leon2/lib/librtemscpu.a(libnetworking_a-rtsock.o)
 .debug_ranges  0x000020e8      0x258 /opt/rtems-4.8/sparc-rtems/leon2/lib/librtemscpu.a(libnetworking_a-uipc_mbuf.o)
 .debug_ranges  0x00002340      0x158 /opt/rtems-4.8/sparc-rtems/leon2/lib/librtemscpu.a(libnetworking_a-uipc_socket.o)
 .debug_ranges  0x00002498       0xe0 /opt/rtems-4.8/sparc-rtems/leon2/lib/librtemscpu.a(libnetworking_a-uipc_socket2.o)
 .debug_ranges  0x00002578       0x48 /opt/rtems-4.8/sparc-rtems/leon2/lib/librtemscpu.a(librtems_a-clockget.o)
 .debug_ranges  0x000025c0       0x38 /opt/rtems-4.8/sparc-rtems/leon2/lib/librtemscpu.a(librtems_a-eventseize.o)
 .debug_ranges  0x000025f8       0x68 /opt/rtems-4.8/sparc-rtems/leon2/lib/librtemscpu.a(librtems_a-eventsend.o)
 .debug_ranges  0x00002660       0x48 /opt/rtems-4.8/sparc-rtems/leon2/lib/librtemscpu.a(librtems_a-eventtimeout.o)
 .debug_ranges  0x000026a8       0x60 /opt/rtems-4.8/sparc-rtems/leon2/lib/librtemscpu.a(librtems_a-ratemoncreate.o)
 .debug_ranges  0x00002708       0x48 /opt/rtems-4.8/sparc-rtems/leon2/lib/librtemscpu.a(librtems_a-ratemondelete.o)
 .debug_ranges  0x00002750       0xd0 /opt/rtems-4.8/sparc-rtems/leon2/lib/librtemscpu.a(librtems_a-ratemonperiod.o)
 .debug_ranges  0x00002820       0x20 /opt/rtems-4.8/sparc-rtems/leon2/lib/librtemscpu.a(librtems_a-ratemontimeout.o)
 .debug_ranges  0x00002840       0x48 /opt/rtems-4.8/sparc-rtems/leon2/lib/librtemscpu.a(librtems_a-semcreate.o)
 .debug_ranges  0x00002888       0x18 /opt/rtems-4.8/sparc-rtems/leon2/lib/librtemscpu.a(librtems_a-semdelete.o)
 .debug_ranges  0x000028a0       0xb0 /opt/rtems-4.8/sparc-rtems/leon2/lib/librtemscpu.a(librtems_a-semobtain.o)
 .debug_ranges  0x00002950       0x30 /opt/rtems-4.8/sparc-rtems/leon2/lib/librtemscpu.a(librtems_a-semrelease.o)
 .debug_ranges  0x00002980       0x18 /opt/rtems-4.8/sparc-rtems/leon2/lib/librtemscpu.a(librtems_a-taskcreate.o)
 .debug_ranges  0x00002998       0x50 /opt/rtems-4.8/sparc-rtems/leon2/lib/librtemscpu.a(librtems_a-taskdelete.o)
 .debug_ranges  0x000029e8       0x58 /opt/rtems-4.8/sparc-rtems/leon2/lib/librtemscpu.a(librtems_a-taskresume.o)
 .debug_ranges  0x00002a40       0x58 /opt/rtems-4.8/sparc-rtems/leon2/lib/librtemscpu.a(librtems_a-tasksetpriority.o)
 .debug_ranges  0x00002a98       0x58 /opt/rtems-4.8/sparc-rtems/leon2/lib/librtemscpu.a(librtems_a-taskstart.o)
 .debug_ranges  0x00002af0       0x58 /opt/rtems-4.8/sparc-rtems/leon2/lib/librtemscpu.a(librtems_a-tasksuspend.o)
 .debug_ranges  0x00002b48       0x68 /opt/rtems-4.8/sparc-rtems/leon2/lib/librtemscpu.a(librtems_a-taskvariableadd.o)
 .debug_ranges  0x00002bb0       0x38 /opt/rtems-4.8/sparc-rtems/leon2/lib/librtemscpu.a(librtems_a-taskwakeafter.o)
 .debug_ranges  0x00002be8       0x18 /opt/rtems-4.8/sparc-rtems/leon2/lib/librtemscpu.a(libsapi_a-exinit.o)
 .debug_ranges  0x00002c00       0xb8 /opt/rtems-4.8/sparc-rtems/leon2/lib/librtemscpu.a(libscore_a-heap.o)
 .debug_ranges  0x00002cb8       0x98 /opt/rtems-4.8/sparc-rtems/leon2/lib/librtemscpu.a(libscore_a-heapfree.o)
 .debug_ranges  0x00002d50       0x88 /opt/rtems-4.8/sparc-rtems/leon2/lib/librtemscpu.a(libscore_a-objectextendinformation.o)
 .debug_ranges  0x00002dd8       0x18 /opt/rtems-4.8/sparc-rtems/leon2/lib/librtemscpu.a(libscore_a-objectget.o)
 .debug_ranges  0x00002df0       0x38 /opt/rtems-4.8/sparc-rtems/leon2/lib/librtemscpu.a(libscore_a-objectshrinkinformation.o)
 .debug_ranges  0x00002e28       0xf8 /opt/rtems-4.8/sparc-rtems/leon2/lib/librtemscpu.a(libscore_a-pheapallocate.o)
 .debug_ranges  0x00002f20       0xd8 /opt/rtems-4.8/sparc-rtems/leon2/lib/librtemscpu.a(libscore_a-pheapextend.o)
 .debug_ranges  0x00002ff8       0xf8 /opt/rtems-4.8/sparc-rtems/leon2/lib/librtemscpu.a(libscore_a-pheapfree.o)
 .debug_ranges  0x000030f0       0xf8 /opt/rtems-4.8/sparc-rtems/leon2/lib/librtemscpu.a(libscore_a-pheapgetblocksize.o)
 .debug_ranges  0x000031e8       0xd8 /opt/rtems-4.8/sparc-rtems/leon2/lib/librtemscpu.a(libscore_a-pheapresizeblock.o)
 .debug_ranges  0x000032c0       0x80 /opt/rtems-4.8/sparc-rtems/leon2/lib/librtemscpu.a(libscore_a-threadchangepriority.o)
 .debug_ranges  0x00003340       0x98 /opt/rtems-4.8/sparc-rtems/leon2/lib/librtemscpu.a(libscore_a-threadclearstate.o)
 .debug_ranges  0x000033d8       0x18 /opt/rtems-4.8/sparc-rtems/leon2/lib/librtemscpu.a(libscore_a-threadcreateidle.o)
 .debug_ranges  0x000033f0       0x30 /opt/rtems-4.8/sparc-rtems/leon2/lib/librtemscpu.a(libscore_a-threaddelayended.o)
 .debug_ranges  0x00003420       0x18 /opt/rtems-4.8/sparc-rtems/leon2/lib/librtemscpu.a(libscore_a-threaddispatch.o)
 .debug_ranges  0x00003438       0x70 /opt/rtems-4.8/sparc-rtems/leon2/lib/librtemscpu.a(libscore_a-threadinitialize.o)
 .debug_ranges  0x000034a8       0x30 /opt/rtems-4.8/sparc-rtems/leon2/lib/librtemscpu.a(libscore_a-threadqdequeuefifo.o)
 .debug_ranges  0x000034d8       0x30 /opt/rtems-4.8/sparc-rtems/leon2/lib/librtemscpu.a(libscore_a-threadqenqueue.o)
 .debug_ranges  0x00003508       0x58 /opt/rtems-4.8/sparc-rtems/leon2/lib/librtemscpu.a(libscore_a-threadqenqueuefifo.o)
 .debug_ranges  0x00003560       0x28 /opt/rtems-4.8/sparc-rtems/leon2/lib/librtemscpu.a(libscore_a-threadqenqueuepriority.o)
 .debug_ranges  0x00003588       0x60 /opt/rtems-4.8/sparc-rtems/leon2/lib/librtemscpu.a(libscore_a-threadqtimeout.o)
 .debug_ranges  0x000035e8       0x98 /opt/rtems-4.8/sparc-rtems/leon2/lib/librtemscpu.a(libscore_a-threadresume.o)
 .debug_ranges  0x00003680       0x40 /opt/rtems-4.8/sparc-rtems/leon2/lib/librtemscpu.a(libscore_a-threadsetpriority.o)
 .debug_ranges  0x000036c0       0xd0 /opt/rtems-4.8/sparc-rtems/leon2/lib/librtemscpu.a(libscore_a-threadsetstate.o)
 .debug_ranges  0x00003790       0x48 /opt/rtems-4.8/sparc-rtems/leon2/lib/librtemscpu.a(libscore_a-threadsettransient.o)
 .debug_ranges  0x000037d8       0x20 /opt/rtems-4.8/sparc-rtems/leon2/lib/librtemscpu.a(libscore_a-threadstartmultitasking.o)
 .debug_ranges  0x000037f8       0xd0 /opt/rtems-4.8/sparc-rtems/leon2/lib/librtemscpu.a(libscore_a-threadsuspend.o)
 .debug_ranges  0x000038c8       0x80 /opt/rtems-4.8/sparc-rtems/leon2/lib/librtemscpu.a(libscore_a-threadyieldprocessor.o)
 .debug_ranges  0x00003948       0x90 /opt/rtems-4.8/sparc-rtems/leon2/lib/librtemscpu.a(libscore_a-userext.o)
 .debug_ranges  0x000039d8       0x90 /opt/rtems-4.8/sparc-rtems/leon2/lib/librtemscpu.a(libscore_a-watchdog.o)
 .debug_ranges  0x00003a68       0x70 /opt/rtems-4.8/sparc-rtems/leon2/lib/librtemscpu.a(libscore_a-watchdoginsert.o)
 .debug_ranges  0x00003ad8       0x18 /opt/rtems-4.8/sparc-rtems/leon2/lib/librtemscpu.a(libscore_a-watchdogtickle.o)
 .debug_ranges  0x00003af0       0x30 /opt/rtems-4.8/sparc-rtems/leon2/lib/librtemscpu.a(imfs_initsupp.o)
 .debug_ranges  0x00003b20       0x18 /opt/rtems-4.8/sparc-rtems/leon2/lib/librtemscpu.a(imfs_rmnod.o)
 .debug_ranges  0x00003b38       0x80 /opt/rtems-4.8/sparc-rtems/leon2/lib/librtemscpu.a(libc_a-inet_ntop.o)
 .debug_ranges  0x00003bb8       0x30 /opt/rtems-4.8/sparc-rtems/leon2/lib/librtemscpu.a(libcsupport_a-mount.o)
 .debug_ranges  0x00003be8       0xd0 /opt/rtems-4.8/sparc-rtems/leon2/lib/librtemscpu.a(libnetworking_a-if_ether.o)
 .debug_ranges  0x00003cb8       0x98 /opt/rtems-4.8/sparc-rtems/leon2/lib/librtemscpu.a(libnetworking_a-in.o)
 .debug_ranges  0x00003d50       0xb8 /opt/rtems-4.8/sparc-rtems/leon2/lib/librtemscpu.a(libnetworking_a-in_pcb.o)
 .debug_ranges  0x00003e08       0x18 /opt/rtems-4.8/sparc-rtems/leon2/lib/librtemscpu.a(libnetworking_a-in_rmx.o)
 .debug_ranges  0x00003e20       0x90 /opt/rtems-4.8/sparc-rtems/leon2/lib/librtemscpu.a(libnetworking_a-ip_icmp.o)
 .debug_ranges  0x00003eb0       0x18 /opt/rtems-4.8/sparc-rtems/leon2/lib/librtemscpu.a(libnetworking_a-raw_usrreq.o)
 .debug_ranges  0x00003ec8      0x190 /opt/rtems-4.8/sparc-rtems/leon2/lib/librtemscpu.a(libnetworking_a-tcp_input.o)
 .debug_ranges  0x00004058       0x98 /opt/rtems-4.8/sparc-rtems/leon2/lib/librtemscpu.a(libnetworking_a-tcp_output.o)
 .debug_ranges  0x000040f0       0xa0 /opt/rtems-4.8/sparc-rtems/leon2/lib/librtemscpu.a(libnetworking_a-tcp_subr.o)
 .debug_ranges  0x00004190       0x20 /opt/rtems-4.8/sparc-rtems/leon2/lib/librtemscpu.a(libnetworking_a-tcp_timer.o)
 .debug_ranges  0x000041b0       0x48 /opt/rtems-4.8/sparc-rtems/leon2/lib/librtemscpu.a(libnetworking_a-tcp_usrreq.o)
 .debug_ranges  0x000041f8       0xc0 /opt/rtems-4.8/sparc-rtems/leon2/lib/librtemscpu.a(libnetworking_a-udp_usrreq.o)
 .debug_ranges  0x000042b8       0xa0 /opt/rtems-4.8/sparc-rtems/leon2/lib/librtemscpu.a(libposix_a-psignalclearsignals.o)
 .debug_ranges  0x00004358       0x98 /opt/rtems-4.8/sparc-rtems/leon2/lib/librtemscpu.a(libposix_a-pthread.o)
 .debug_ranges  0x000043f0       0x48 /opt/rtems-4.8/sparc-rtems/leon2/lib/librtemscpu.a(librtems_a-tasks.o)
 .debug_ranges  0x00004438       0x38 /opt/rtems-4.8/sparc-rtems/leon2/lib/librtemscpu.a(libsapi_a-exshutdown.o)
 .debug_ranges  0x00004470       0x40 /opt/rtems-4.8/sparc-rtems/leon2/lib/librtemscpu.a(libscore_a-heapextend.o)
 .debug_ranges  0x000044b0      0x108 /opt/rtems-4.8/sparc-rtems/leon2/lib/librtemscpu.a(libscore_a-heapresizeblock.o)
 .debug_ranges  0x000045b8       0x48 /opt/rtems-4.8/sparc-rtems/leon2/lib/librtemscpu.a(libscore_a-threadqextractfifo.o)
 .debug_ranges  0x00004600       0x18 /opt/rtems-4.8/sparc-rtems/leon2/lib/librtemscpu.a(libscore_a-threadqextractpriority.o)
 .debug_ranges  0x00004618      0x100 /opt/rtems-4.8/sparc-rtems/leon2/lib/librtemscpu.a(libscore_a-threadready.o)
 .debug_ranges  0x00004718       0x80 /opt/rtems-4.8/sparc-rtems/leon2/lib/librtemscpu.a(libscore_a-threadresettimeslice.o)
 .debug_ranges  0x00004798       0x40 /opt/rtems-4.8/sparc-rtems/leon2/lib/librtemscpu.a(libnetworking_a-igmp.o)
 .debug_ranges  0x000047d8       0x18 /opt/rtems-4.8/sparc-rtems/leon2/lib/librtemscpu.a(libscore_a-threadhandler.o)
 .debug_ranges  0x000047f0       0x30 /opt/rtems-4.8-1.1.3/bin/../lib/gcc/sparc-rtems/4.2.4/../../../../sparc-rtems/lib/soft/libc.a(lib_a-fflush.o)
 .debug_ranges  0x00004820       0x30 /opt/rtems-4.8-1.1.3/bin/../lib/gcc/sparc-rtems/4.2.4/../../../../sparc-rtems/lib/soft/libc.a(lib_a-fwalk.o)
 .debug_ranges  0x00004850       0x48 /opt/rtems-4.8-1.1.3/bin/../lib/gcc/sparc-rtems/4.2.4/../../../../sparc-rtems/lib/soft/libc.a(lib_a-mktm_r.o)
 .debug_ranges  0x00004898      0x140 /opt/rtems-4.8-1.1.3/bin/../lib/gcc/sparc-rtems/4.2.4/../../../../sparc-rtems/lib/soft/libc.a(lib_a-vfprintf.o)
 .debug_ranges  0x000049d8       0x20 /opt/rtems-4.8-1.1.3/bin/../lib/gcc/sparc-rtems/4.2.4/../../../../sparc-rtems/lib/soft/libc.a(lib_a-wcsrtombs.o)
 .debug_ranges  0x000049f8       0x50 /opt/rtems-4.8-1.1.3/bin/../lib/gcc/sparc-rtems/4.2.4/../../../../sparc-rtems/lib/soft/libc.a(lib_a-wctomb_r.o)
 .debug_ranges  0x00004a48       0x20 /opt/rtems-4.8-1.1.3/bin/../lib/gcc/sparc-rtems/4.2.4/../../../../sparc-rtems/lib/soft/libc.a(lib_a-fvwrite.o)
 .debug_ranges  0x00004a68       0xa8 /opt/rtems-4.8-1.1.3/bin/../lib/gcc/sparc-rtems/4.2.4/soft/libgcc.a(_udivdi3.o)
 .debug_ranges  0x00004b10       0x80 /opt/rtems-4.8-1.1.3/bin/../lib/gcc/sparc-rtems/4.2.4/soft/libgcc.a(_umoddi3.o)
 .debug_ranges  0x00004b90       0x30 /opt/rtems-4.8-1.1.3/bin/../lib/gcc/sparc-rtems/4.2.4/soft/libgcc.a(_addsub_df.o)
 .debug_ranges  0x00004bc0       0x40 /opt/rtems-4.8-1.1.3/bin/../lib/gcc/sparc-rtems/4.2.4/soft/libgcc.a(_div_df.o)
 .debug_ranges  0x00004c00       0x18 /opt/rtems-4.8-1.1.3/bin/../lib/gcc/sparc-rtems/4.2.4/soft/libgcc.a(_si_to_df.o)
 .debug_ranges  0x00004c18       0x18 /opt/rtems-4.8/sparc-rtems/leon2/lib/librtemscpu.a(libposix_a-killinfo.o)
 .debug_ranges  0x00004c30       0x18 /opt/rtems-4.8/sparc-rtems/leon2/lib/librtemscpu.a(libposix_a-pthreadkill.o)

.debug_str      0x00000000    0x17a34
 .debug_str     0x00000000      0x495 /home/aitor/workspace/rasta-sw/osal-repo/trunk/samples/misc/soclient.o
                                0x573 (size before relaxing)
 .debug_str     0x00000495      0x569 libosal_rtems_rastaleon2.a(osapi.o)
                                0x91f (size before relaxing)
 .debug_str     0x000009fe      0x251 libosal_rtems_rastaleon2.a(osmut.o)
                                0xab2 (size before relaxing)
 .debug_str     0x00000c4f      0x3d6 libosal_rtems_rastaleon2.a(ostask.o)
                                0xd7a (size before relaxing)
 .debug_str     0x00001025     0x2020 libosal_rtems_rastaleon2.a(rtems-config.o)
                               0x29a0 (size before relaxing)
 .debug_str     0x00003045       0x99 libosal_rtems_rastaleon2.a(osstats.o)
                                0x17c (size before relaxing)
 .debug_str     0x000030de      0x163 /opt/rtems-4.8-1.1.3/bin/../lib/gcc/sparc-rtems/4.2.4/soft/libgcc.a(_mul_df.o)
                                0x203 (size before relaxing)
 .debug_str     0x00000000      0x16a /opt/rtems-4.8-1.1.3/bin/../lib/gcc/sparc-rtems/4.2.4/soft/libgcc.a(_thenan_df.o)
 .debug_str     0x00003241       0x1b /opt/rtems-4.8-1.1.3/bin/../lib/gcc/sparc-rtems/4.2.4/soft/libgcc.a(_usi_to_df.o)
                                0x1a1 (size before relaxing)
 .debug_str     0x0000325c       0x55 /opt/rtems-4.8-1.1.3/bin/../lib/gcc/sparc-rtems/4.2.4/soft/libgcc.a(_muldi3.o)
                                0x141 (size before relaxing)
 .debug_str     0x000032b1       0x20 /opt/rtems-4.8-1.1.3/bin/../lib/gcc/sparc-rtems/4.2.4/soft/libgcc.a(_clzsi2.o)
                                0x143 (size before relaxing)
 .debug_str     0x000032d1       0x10 /opt/rtems-4.8-1.1.3/bin/../lib/gcc/sparc-rtems/4.2.4/soft/libgcc.a(_pack_df.o)
                                0x1c8 (size before relaxing)
 .debug_str     0x000032e1        0xb /opt/rtems-4.8-1.1.3/bin/../lib/gcc/sparc-rtems/4.2.4/soft/libgcc.a(_unpack_df.o)
                                0x1aa (size before relaxing)
 .debug_str     0x00000000      0x126 /opt/rtems-4.8-1.1.3/bin/../lib/gcc/sparc-rtems/4.2.4/soft/libgcc.a(_clz.o)
 .debug_str     0x000032ec      0x590 /opt/rtems-4.8/sparc-rtems/leon2/lib/librtemsbsp.a(amba.rel)
                                0xb08 (size before relaxing)
 .debug_str     0x0000387c      0x3ed /opt/rtems-4.8/sparc-rtems/leon2/lib/librtemsbsp.a(clock.rel)
                               0x24ed (size before relaxing)
 .debug_str     0x00003c69      0x2fa /opt/rtems-4.8/sparc-rtems/leon2/lib/librtemsbsp.a(console.rel)
                               0x1593 (size before relaxing)
 .debug_str     0x00003f63       0xde /opt/rtems-4.8/sparc-rtems/leon2/lib/librtemsbsp.a(leon_smc91111.rel)
                                0x53d (size before relaxing)
 .debug_str     0x00004041      0xa59 /opt/rtems-4.8/sparc-rtems/leon2/lib/librtemsbsp.a(libnetchip_a-smc91111.o)
                               0x104c (size before relaxing)
 .debug_str     0x00004a9a      0x8e8 /opt/rtems-4.8/sparc-rtems/leon2/lib/librtemsbsp.a(startup.rel)
                               0x7d65 (size before relaxing)
 .debug_str     0x00005382      0x2c5 /opt/rtems-4.8/sparc-rtems/leon2/lib/librtemscpu.a(check.o)
                               0x11de (size before relaxing)
 .debug_str     0x00005647      0x201 /opt/rtems-4.8/sparc-rtems/leon2/lib/librtemscpu.a(ioman.o)
                               0x10d3 (size before relaxing)
 .debug_str     0x00005848       0x7f /opt/rtems-4.8/sparc-rtems/leon2/lib/librtemscpu.a(libc_a-inet_addr.o)
                                0x45b (size before relaxing)
 .debug_str     0x000058c7       0xba /opt/rtems-4.8/sparc-rtems/leon2/lib/librtemscpu.a(libc_a-inet_pton.o)
                                0x484 (size before relaxing)
 .debug_str     0x00005981       0x4a /opt/rtems-4.8/sparc-rtems/leon2/lib/librtemscpu.a(libc_a-recv.o)
                                0x102 (size before relaxing)
 .debug_str     0x000059cb       0x4a /opt/rtems-4.8/sparc-rtems/leon2/lib/librtemscpu.a(libc_a-send.o)
                                0x102 (size before relaxing)
 .debug_str     0x00005a15       0x5f /opt/rtems-4.8/sparc-rtems/leon2/lib/librtemscpu.a(libcsupport_a-__assert.o)
                                0x41f (size before relaxing)
 .debug_str     0x00005a74       0x62 /opt/rtems-4.8/sparc-rtems/leon2/lib/librtemscpu.a(libcsupport_a-close.o)
                               0x1276 (size before relaxing)
 .debug_str     0x00005ad6      0x117 /opt/rtems-4.8/sparc-rtems/leon2/lib/librtemscpu.a(libcsupport_a-eval.o)
                                0xd36 (size before relaxing)
 .debug_str     0x00005bed      0x16f /opt/rtems-4.8/sparc-rtems/leon2/lib/librtemscpu.a(libcsupport_a-libio.o)
                               0x1018 (size before relaxing)
 .debug_str     0x00005d5c       0x5e /opt/rtems-4.8/sparc-rtems/leon2/lib/librtemscpu.a(libcsupport_a-libio_init.o)
                                0xf17 (size before relaxing)
 .debug_str     0x00005dba      0x4e9 /opt/rtems-4.8/sparc-rtems/leon2/lib/librtemscpu.a(libcsupport_a-malloc.o)
                               0x17b1 (size before relaxing)
 .debug_str     0x000062a3       0x4e /opt/rtems-4.8/sparc-rtems/leon2/lib/librtemscpu.a(libcsupport_a-mkdir.o)
                                 0xf8 (size before relaxing)
 .debug_str     0x000062f1       0x5c /opt/rtems-4.8/sparc-rtems/leon2/lib/librtemscpu.a(libcsupport_a-mknod.o)
                                0xcf6 (size before relaxing)
 .debug_str     0x0000634d      0x117 /opt/rtems-4.8/sparc-rtems/leon2/lib/librtemscpu.a(libcsupport_a-newlibc.o)
                               0x1381 (size before relaxing)
 .debug_str     0x00006464       0x81 /opt/rtems-4.8/sparc-rtems/leon2/lib/librtemscpu.a(libcsupport_a-open_dev_console.o)
                                0x442 (size before relaxing)
 .debug_str     0x000064e5       0x91 /opt/rtems-4.8/sparc-rtems/leon2/lib/librtemscpu.a(libcsupport_a-printk.o)
                                0x17f (size before relaxing)
 .debug_str     0x00006576       0x6a /opt/rtems-4.8/sparc-rtems/leon2/lib/librtemscpu.a(libcsupport_a-printk_plugin.o)
                                 0xb3 (size before relaxing)
 .debug_str     0x000065e0      0x509 /opt/rtems-4.8/sparc-rtems/leon2/lib/librtemscpu.a(libcsupport_a-termios.o)
                               0x1603 (size before relaxing)
 .debug_str     0x00006ae9       0x6d /opt/rtems-4.8/sparc-rtems/leon2/lib/librtemscpu.a(libcsupport_a-termiosinitialize.o)
                                0x6e8 (size before relaxing)
 .debug_str     0x00006b56      0x872 /opt/rtems-4.8/sparc-rtems/leon2/lib/librtemscpu.a(libnetworking_a-if.o)
                               0x113c (size before relaxing)
 .debug_str     0x000073c8      0x199 /opt/rtems-4.8/sparc-rtems/leon2/lib/librtemscpu.a(libnetworking_a-if_ethersubr.o)
                                0xe7e (size before relaxing)
 .debug_str     0x00007561       0x86 /opt/rtems-4.8/sparc-rtems/leon2/lib/librtemscpu.a(libnetworking_a-if_loop.o)
                                0xaeb (size before relaxing)
 .debug_str     0x000075e7      0xa7c /opt/rtems-4.8/sparc-rtems/leon2/lib/librtemscpu.a(libnetworking_a-ip_input.o)
                               0x1a97 (size before relaxing)
 .debug_str     0x00008063      0x118 /opt/rtems-4.8/sparc-rtems/leon2/lib/librtemscpu.a(libnetworking_a-ip_mroute.o)
                               0x107c (size before relaxing)
 .debug_str     0x0000817b      0x155 /opt/rtems-4.8/sparc-rtems/leon2/lib/librtemscpu.a(libnetworking_a-ip_output.o)
                               0x1478 (size before relaxing)
 .debug_str     0x000082d0      0x184 /opt/rtems-4.8/sparc-rtems/leon2/lib/librtemscpu.a(libnetworking_a-kern_mib.o)
                                0x6c1 (size before relaxing)
 .debug_str     0x00008454      0x530 /opt/rtems-4.8/sparc-rtems/leon2/lib/librtemscpu.a(libnetworking_a-kern_sysctl.o)
                                0xb37 (size before relaxing)
 .debug_str     0x00008984      0x31f /opt/rtems-4.8/sparc-rtems/leon2/lib/librtemscpu.a(libnetworking_a-radix.o)
                                0x8dd (size before relaxing)
 .debug_str     0x00008ca3       0xb9 /opt/rtems-4.8/sparc-rtems/leon2/lib/librtemscpu.a(libnetworking_a-raw_ip.o)
                               0x1314 (size before relaxing)
 .debug_str     0x00008d5c      0x1f7 /opt/rtems-4.8/sparc-rtems/leon2/lib/librtemscpu.a(libnetworking_a-route.o)
                               0x10ef (size before relaxing)
 .debug_str     0x00008f53      0x9a2 /opt/rtems-4.8/sparc-rtems/leon2/lib/librtemscpu.a(libnetworking_a-rtems_glue.o)
                               0x2c33 (size before relaxing)
 .debug_str     0x000098f5       0x71 /opt/rtems-4.8/sparc-rtems/leon2/lib/librtemscpu.a(libnetworking_a-rtems_malloc_mbuf.o)
                               0x127f (size before relaxing)
 .debug_str     0x00009966       0x8b /opt/rtems-4.8/sparc-rtems/leon2/lib/librtemscpu.a(libnetworking_a-rtems_showifstat.o)
                                0x942 (size before relaxing)
 .debug_str     0x000099f1       0xd3 /opt/rtems-4.8/sparc-rtems/leon2/lib/librtemscpu.a(libnetworking_a-rtems_showroute.o)
                                0xc65 (size before relaxing)
 .debug_str     0x00009ac4      0x287 /opt/rtems-4.8/sparc-rtems/leon2/lib/librtemscpu.a(libnetworking_a-rtems_syscall.o)
                               0x18c7 (size before relaxing)
 .debug_str     0x00009d4b      0x356 /opt/rtems-4.8/sparc-rtems/leon2/lib/librtemscpu.a(libnetworking_a-rtsock.o)
                               0x1352 (size before relaxing)
 .debug_str     0x0000a0a1       0x78 /opt/rtems-4.8/sparc-rtems/leon2/lib/librtemscpu.a(libnetworking_a-sghostname.o)
                                0x436 (size before relaxing)
 .debug_str     0x0000a119       0xc2 /opt/rtems-4.8/sparc-rtems/leon2/lib/librtemscpu.a(libnetworking_a-uipc_domain.o)
                                0x7d7 (size before relaxing)
 .debug_str     0x0000a1db      0x134 /opt/rtems-4.8/sparc-rtems/leon2/lib/librtemscpu.a(libnetworking_a-uipc_mbuf.o)
                                0x8ee (size before relaxing)
 .debug_str     0x0000a30f      0x1ca /opt/rtems-4.8/sparc-rtems/leon2/lib/librtemscpu.a(libnetworking_a-uipc_socket.o)
                                0xea3 (size before relaxing)
 .debug_str     0x0000a4d9      0x356 /opt/rtems-4.8/sparc-rtems/leon2/lib/librtemscpu.a(libnetworking_a-uipc_socket2.o)
                                0xe2e (size before relaxing)
 .debug_str     0x0000a82f      0x119 /opt/rtems-4.8/sparc-rtems/leon2/lib/librtemscpu.a(librtems_a-clockget.o)
                               0x13ec (size before relaxing)
 .debug_str     0x0000a948       0xf1 /opt/rtems-4.8/sparc-rtems/leon2/lib/librtemscpu.a(librtems_a-clocksetnsecshandler.o)
                               0x126e (size before relaxing)
 .debug_str     0x0000aa39       0xb1 /opt/rtems-4.8/sparc-rtems/leon2/lib/librtemscpu.a(librtems_a-clocktick.o)
                               0x1268 (size before relaxing)
 .debug_str     0x0000aaea      0x12f /opt/rtems-4.8/sparc-rtems/leon2/lib/librtemscpu.a(librtems_a-eventreceive.o)
                               0x13ca (size before relaxing)
 .debug_str     0x0000ac19      0x1bd /opt/rtems-4.8/sparc-rtems/leon2/lib/librtemscpu.a(librtems_a-eventseize.o)
                               0x150c (size before relaxing)
 .debug_str     0x0000add6       0xbe /opt/rtems-4.8/sparc-rtems/leon2/lib/librtemscpu.a(librtems_a-eventsend.o)
                               0x145c (size before relaxing)
 .debug_str     0x0000ae94       0x8d /opt/rtems-4.8/sparc-rtems/leon2/lib/librtemscpu.a(librtems_a-eventsurrender.o)
                               0x128d (size before relaxing)
 .debug_str     0x0000af21       0x70 /opt/rtems-4.8/sparc-rtems/leon2/lib/librtemscpu.a(librtems_a-eventtimeout.o)
                               0x13b8 (size before relaxing)
 .debug_str     0x0000af91       0xb3 /opt/rtems-4.8/sparc-rtems/leon2/lib/librtemscpu.a(librtems_a-intrcatch.o)
                                0x40d (size before relaxing)
 .debug_str     0x0000b044      0x267 /opt/rtems-4.8/sparc-rtems/leon2/lib/librtemscpu.a(librtems_a-ratemoncreate.o)
                               0x14c9 (size before relaxing)
 .debug_str     0x0000b2ab       0x48 /opt/rtems-4.8/sparc-rtems/leon2/lib/librtemscpu.a(librtems_a-ratemondata.o)
                                0xf7a (size before relaxing)
 .debug_str     0x0000b2f3       0x9e /opt/rtems-4.8/sparc-rtems/leon2/lib/librtemscpu.a(librtems_a-ratemondelete.o)
                               0x14b8 (size before relaxing)
 .debug_str     0x0000b391       0xed /opt/rtems-4.8/sparc-rtems/leon2/lib/librtemscpu.a(librtems_a-ratemonperiod.o)
                               0x1568 (size before relaxing)
 .debug_str     0x0000b47e       0x81 /opt/rtems-4.8/sparc-rtems/leon2/lib/librtemscpu.a(librtems_a-ratemontimeout.o)
                               0x1256 (size before relaxing)
 .debug_str     0x0000b4ff       0x65 /opt/rtems-4.8/sparc-rtems/leon2/lib/librtemscpu.a(librtems_a-rtemsobjectgetname.o)
                                0x33a (size before relaxing)
 .debug_str     0x0000b564      0x16e /opt/rtems-4.8/sparc-rtems/leon2/lib/librtemscpu.a(librtems_a-semcreate.o)
                               0x17b5 (size before relaxing)
 .debug_str     0x0000b6d2       0x44 /opt/rtems-4.8/sparc-rtems/leon2/lib/librtemscpu.a(librtems_a-semdata.o)
                               0x1072 (size before relaxing)
 .debug_str     0x0000b716      0x10f /opt/rtems-4.8/sparc-rtems/leon2/lib/librtemscpu.a(librtems_a-semdelete.o)
                               0x18a6 (size before relaxing)
 .debug_str     0x0000b825       0x5b /opt/rtems-4.8/sparc-rtems/leon2/lib/librtemscpu.a(librtems_a-semflush.o)
                               0x17f4 (size before relaxing)
 .debug_str     0x0000b880       0xa0 /opt/rtems-4.8/sparc-rtems/leon2/lib/librtemscpu.a(librtems_a-semobtain.o)
                               0x1a16 (size before relaxing)
 .debug_str     0x0000b920       0xa5 /opt/rtems-4.8/sparc-rtems/leon2/lib/librtemscpu.a(librtems_a-semrelease.o)
                               0x183e (size before relaxing)
 .debug_str     0x0000b9c5      0x10d /opt/rtems-4.8/sparc-rtems/leon2/lib/librtemscpu.a(librtems_a-semtranslatereturncode.o)
                               0x1528 (size before relaxing)
 .debug_str     0x0000bad2      0x1fb /opt/rtems-4.8/sparc-rtems/leon2/lib/librtemscpu.a(librtems_a-taskcreate.o)
                               0x17ca (size before relaxing)
 .debug_str     0x0000bccd       0x45 /opt/rtems-4.8/sparc-rtems/leon2/lib/librtemscpu.a(librtems_a-taskdata.o)
                                0xf74 (size before relaxing)
 .debug_str     0x0000bd12       0x69 /opt/rtems-4.8/sparc-rtems/leon2/lib/librtemscpu.a(librtems_a-taskdelete.o)
                               0x156c (size before relaxing)
 .debug_str     0x0000bd7b      0x117 /opt/rtems-4.8/sparc-rtems/leon2/lib/librtemscpu.a(librtems_a-taskident.o)
                               0x14c6 (size before relaxing)
 .debug_str     0x0000be92       0xa2 /opt/rtems-4.8/sparc-rtems/leon2/lib/librtemscpu.a(librtems_a-taskinitusers.o)
                               0x1c3a (size before relaxing)
 .debug_str     0x0000bf34       0x6e /opt/rtems-4.8/sparc-rtems/leon2/lib/librtemscpu.a(librtems_a-taskresume.o)
                               0x1530 (size before relaxing)
 .debug_str     0x0000bfa2       0x71 /opt/rtems-4.8/sparc-rtems/leon2/lib/librtemscpu.a(librtems_a-tasksetpriority.o)
                               0x1575 (size before relaxing)
 .debug_str     0x0000c013       0x57 /opt/rtems-4.8/sparc-rtems/leon2/lib/librtemscpu.a(librtems_a-taskstart.o)
                               0x154f (size before relaxing)
 .debug_str     0x0000c06a       0x5b /opt/rtems-4.8/sparc-rtems/leon2/lib/librtemscpu.a(librtems_a-tasksuspend.o)
                               0x1532 (size before relaxing)
 .debug_str     0x0000c0c5       0x64 /opt/rtems-4.8/sparc-rtems/leon2/lib/librtemscpu.a(librtems_a-taskvariableadd.o)
                               0x1450 (size before relaxing)
 .debug_str     0x0000c129       0x60 /opt/rtems-4.8/sparc-rtems/leon2/lib/librtemscpu.a(librtems_a-taskwakeafter.o)
                               0x14b7 (size before relaxing)
 .debug_str     0x0000c189      0x63e /opt/rtems-4.8/sparc-rtems/leon2/lib/librtemscpu.a(libsapi_a-exinit.o)
                               0x2664 (size before relaxing)
 .debug_str     0x0000c7c7      0x168 /opt/rtems-4.8/sparc-rtems/leon2/lib/librtemscpu.a(libsapi_a-extension.o)
                               0x10a8 (size before relaxing)
 .debug_str     0x0000c92f       0x49 /opt/rtems-4.8/sparc-rtems/leon2/lib/librtemscpu.a(libsapi_a-extensiondata.o)
                                0xf76 (size before relaxing)
 .debug_str     0x0000c978       0x5c /opt/rtems-4.8/sparc-rtems/leon2/lib/librtemscpu.a(libsapi_a-fatal.o)
                                0x16b (size before relaxing)
 .debug_str     0x0000c9d4       0x74 /opt/rtems-4.8/sparc-rtems/leon2/lib/librtemscpu.a(libsapi_a-getversionstring.o)
                                0x116 (size before relaxing)
 .debug_str     0x0000ca48       0xc6 /opt/rtems-4.8/sparc-rtems/leon2/lib/librtemscpu.a(libsapi_a-io.o)
                               0x1444 (size before relaxing)
 .debug_str     0x0000cb0e       0x42 /opt/rtems-4.8/sparc-rtems/leon2/lib/librtemscpu.a(libsapi_a-iodata.o)
                                0x451 (size before relaxing)
 .debug_str     0x0000cb50       0x5c /opt/rtems-4.8/sparc-rtems/leon2/lib/librtemscpu.a(libsapi_a-ioinitialize.o)
                                0x488 (size before relaxing)
 .debug_str     0x0000cbac       0x76 /opt/rtems-4.8/sparc-rtems/leon2/lib/librtemscpu.a(libsapi_a-ioregisterdriver.o)
                                0x4a6 (size before relaxing)
 .debug_str     0x0000cc22      0x14b /opt/rtems-4.8/sparc-rtems/leon2/lib/librtemscpu.a(libsapi_a-posixapi.o)
                               0x1c87 (size before relaxing)
 .debug_str     0x0000cd6d       0x69 /opt/rtems-4.8/sparc-rtems/leon2/lib/librtemscpu.a(libsapi_a-rtemsapi.o)
                               0x1ccf (size before relaxing)
 .debug_str     0x0000cdd6      0x1b5 /opt/rtems-4.8/sparc-rtems/leon2/lib/librtemscpu.a(libscore_a-apiext.o)
                               0x1139 (size before relaxing)
 .debug_str     0x0000cf8b       0x7e /opt/rtems-4.8/sparc-rtems/leon2/lib/librtemscpu.a(libscore_a-chainappend.o)
                                0x1e5 (size before relaxing)
 .debug_str     0x0000d009       0x93 /opt/rtems-4.8/sparc-rtems/leon2/lib/librtemscpu.a(libscore_a-chainget.o)
                                0x200 (size before relaxing)
 .debug_str     0x0000d09c       0x7e /opt/rtems-4.8/sparc-rtems/leon2/lib/librtemscpu.a(libscore_a-coremutex.o)
                               0x1380 (size before relaxing)
 .debug_str     0x0000d11a       0x8f /opt/rtems-4.8/sparc-rtems/leon2/lib/librtemscpu.a(libscore_a-coremutexflush.o)
                               0x1258 (size before relaxing)
 .debug_str     0x0000d1a9       0x70 /opt/rtems-4.8/sparc-rtems/leon2/lib/librtemscpu.a(libscore_a-coremutexseize.o)
                               0x12c4 (size before relaxing)
 .debug_str     0x0000d219       0x9c /opt/rtems-4.8/sparc-rtems/leon2/lib/librtemscpu.a(libscore_a-coremutexsurrender.o)
                               0x13f5 (size before relaxing)
 .debug_str     0x0000d2b5       0x89 /opt/rtems-4.8/sparc-rtems/leon2/lib/librtemscpu.a(libscore_a-coresem.o)
                               0x112a (size before relaxing)
 .debug_str     0x0000d33e       0x5f /opt/rtems-4.8/sparc-rtems/leon2/lib/librtemscpu.a(libscore_a-coresemflush.o)
                               0x1070 (size before relaxing)
 .debug_str     0x0000d39d       0xa6 /opt/rtems-4.8/sparc-rtems/leon2/lib/librtemscpu.a(libscore_a-coresemsurrender.o)
                               0x1158 (size before relaxing)
 .debug_str     0x0000d443       0x6e /opt/rtems-4.8/sparc-rtems/leon2/lib/librtemscpu.a(libscore_a-coretod.o)
                                0xfd6 (size before relaxing)
 .debug_str     0x0000d4b1       0x50 /opt/rtems-4.8/sparc-rtems/leon2/lib/librtemscpu.a(libscore_a-coretodget.o)
                                0x3e6 (size before relaxing)
 .debug_str     0x0000d501       0x5d /opt/rtems-4.8/sparc-rtems/leon2/lib/librtemscpu.a(libscore_a-coretodgetuptime.o)
                                0x3f8 (size before relaxing)
 .debug_str     0x0000d55e       0x75 /opt/rtems-4.8/sparc-rtems/leon2/lib/librtemscpu.a(libscore_a-coretodtickle.o)
                               0x101d (size before relaxing)
 .debug_str     0x0000d5d3      0x18a /opt/rtems-4.8/sparc-rtems/leon2/lib/librtemscpu.a(libscore_a-heap.o)
                                0x4d0 (size before relaxing)
 .debug_str     0x0000d75d       0x81 /opt/rtems-4.8/sparc-rtems/leon2/lib/librtemscpu.a(libscore_a-heapallocate.o)
                                0x3c5 (size before relaxing)
 .debug_str     0x0000d7de       0xf2 /opt/rtems-4.8/sparc-rtems/leon2/lib/librtemscpu.a(libscore_a-heapfree.o)
                                0x4d3 (size before relaxing)
 .debug_str     0x0000d8d0       0x5c /opt/rtems-4.8/sparc-rtems/leon2/lib/librtemscpu.a(libscore_a-interr.o)
                               0x117d (size before relaxing)
 .debug_str     0x0000d92c       0x5c /opt/rtems-4.8/sparc-rtems/leon2/lib/librtemscpu.a(libscore_a-isr.o)
                                0x650 (size before relaxing)
 .debug_str     0x0000d988       0x91 /opt/rtems-4.8/sparc-rtems/leon2/lib/librtemscpu.a(libscore_a-iterateoverthreads.o)
                                0xfbe (size before relaxing)
 .debug_str     0x0000da19       0x63 /opt/rtems-4.8/sparc-rtems/leon2/lib/librtemscpu.a(libscore_a-object.o)
                               0x1434 (size before relaxing)
 .debug_str     0x0000da7c       0x5d /opt/rtems-4.8/sparc-rtems/leon2/lib/librtemscpu.a(libscore_a-objectallocate.o)
                               0x11a5 (size before relaxing)
 .debug_str     0x0000dad9       0xbc /opt/rtems-4.8/sparc-rtems/leon2/lib/librtemscpu.a(libscore_a-objectextendinformation.o)
                               0x129f (size before relaxing)
 .debug_str     0x0000db95       0x55 /opt/rtems-4.8/sparc-rtems/leon2/lib/librtemscpu.a(libscore_a-objectfree.o)
                               0x119d (size before relaxing)
 .debug_str     0x0000dbea       0x53 /opt/rtems-4.8/sparc-rtems/leon2/lib/librtemscpu.a(libscore_a-objectget.o)
                               0x1239 (size before relaxing)
 .debug_str     0x0000dc3d       0x62 /opt/rtems-4.8/sparc-rtems/leon2/lib/librtemscpu.a(libscore_a-objectgetisr.o)
                               0x11f5 (size before relaxing)
 .debug_str     0x0000dc9f       0x7d /opt/rtems-4.8/sparc-rtems/leon2/lib/librtemscpu.a(libscore_a-objectgetnameasstring.o)
                               0x10aa (size before relaxing)
 .debug_str     0x0000dd1c       0x9d /opt/rtems-4.8/sparc-rtems/leon2/lib/librtemscpu.a(libscore_a-objectinitializeinformation.o)
                               0x1260 (size before relaxing)
 .debug_str     0x0000ddb9       0xae /opt/rtems-4.8/sparc-rtems/leon2/lib/librtemscpu.a(libscore_a-objectnametoid.o)
                               0x1283 (size before relaxing)
 .debug_str     0x0000de67       0x8a /opt/rtems-4.8/sparc-rtems/leon2/lib/librtemscpu.a(libscore_a-objectshrinkinformation.o)
                               0x1242 (size before relaxing)
 .debug_str     0x0000def1       0x63 /opt/rtems-4.8/sparc-rtems/leon2/lib/librtemscpu.a(libscore_a-pheapallocate.o)
                               0x1637 (size before relaxing)
 .debug_str     0x0000df54       0xc7 /opt/rtems-4.8/sparc-rtems/leon2/lib/librtemscpu.a(libscore_a-pheapextend.o)
                               0x16b3 (size before relaxing)
 .debug_str     0x0000e01b       0x69 /opt/rtems-4.8/sparc-rtems/leon2/lib/librtemscpu.a(libscore_a-pheapfree.o)
                               0x1644 (size before relaxing)
 .debug_str     0x0000e084       0x6d /opt/rtems-4.8/sparc-rtems/leon2/lib/librtemscpu.a(libscore_a-pheapgetblocksize.o)
                               0x1659 (size before relaxing)
 .debug_str     0x0000e0f1       0xe0 /opt/rtems-4.8/sparc-rtems/leon2/lib/librtemscpu.a(libscore_a-pheapresizeblock.o)
                               0x16cc (size before relaxing)
 .debug_str     0x0000e1d1       0x62 /opt/rtems-4.8/sparc-rtems/leon2/lib/librtemscpu.a(libscore_a-thread.o)
                               0x163a (size before relaxing)
 .debug_str     0x0000e233      0x19b /opt/rtems-4.8/sparc-rtems/leon2/lib/librtemscpu.a(libscore_a-threadchangepriority.o)
                               0x1382 (size before relaxing)
 .debug_str     0x0000e3ce       0x72 /opt/rtems-4.8/sparc-rtems/leon2/lib/librtemscpu.a(libscore_a-threadclearstate.o)
                               0x1282 (size before relaxing)
 .debug_str     0x0000e440       0x84 /opt/rtems-4.8/sparc-rtems/leon2/lib/librtemscpu.a(libscore_a-threadclose.o)
                               0x1271 (size before relaxing)
 .debug_str     0x0000e4c4       0x8d /opt/rtems-4.8/sparc-rtems/leon2/lib/librtemscpu.a(libscore_a-threadcreateidle.o)
                               0x12c8 (size before relaxing)
 .debug_str     0x0000e551       0x61 /opt/rtems-4.8/sparc-rtems/leon2/lib/librtemscpu.a(libscore_a-threaddelayended.o)
                               0x12b0 (size before relaxing)
 .debug_str     0x0000e5b2       0x5c /opt/rtems-4.8/sparc-rtems/leon2/lib/librtemscpu.a(libscore_a-threaddispatch.o)
                               0x125d (size before relaxing)
 .debug_str     0x0000e60e       0x4b /opt/rtems-4.8/sparc-rtems/leon2/lib/librtemscpu.a(libscore_a-threadidlebody.o)
                               0x117d (size before relaxing)
 .debug_str     0x0000e659       0xb8 /opt/rtems-4.8/sparc-rtems/leon2/lib/librtemscpu.a(libscore_a-threadinitialize.o)
                               0x1347 (size before relaxing)
 .debug_str     0x0000e711       0x6c /opt/rtems-4.8/sparc-rtems/leon2/lib/librtemscpu.a(libscore_a-threadq.o)
                               0x100d (size before relaxing)
 .debug_str     0x0000e77d       0x61 /opt/rtems-4.8/sparc-rtems/leon2/lib/librtemscpu.a(libscore_a-threadqdequeue.o)
                                0xf93 (size before relaxing)
 .debug_str     0x0000e7de       0x6a /opt/rtems-4.8/sparc-rtems/leon2/lib/librtemscpu.a(libscore_a-threadqdequeuefifo.o)
                               0x1091 (size before relaxing)
 .debug_str     0x0000e848       0xdb /opt/rtems-4.8/sparc-rtems/leon2/lib/librtemscpu.a(libscore_a-threadqdequeuepriority.o)
                               0x10df (size before relaxing)
 .debug_str     0x0000e923       0x8b /opt/rtems-4.8/sparc-rtems/leon2/lib/librtemscpu.a(libscore_a-threadqenqueue.o)
                               0x1046 (size before relaxing)
 .debug_str     0x0000e9ae       0x6a /opt/rtems-4.8/sparc-rtems/leon2/lib/librtemscpu.a(libscore_a-threadqenqueuefifo.o)
                               0x1073 (size before relaxing)
 .debug_str     0x0000ea18      0x159 /opt/rtems-4.8/sparc-rtems/leon2/lib/librtemscpu.a(libscore_a-threadqenqueuepriority.o)
                               0x11bb (size before relaxing)
 .debug_str     0x0000eb71       0xc7 /opt/rtems-4.8/sparc-rtems/leon2/lib/librtemscpu.a(libscore_a-threadqextractwithproxy.o)
                               0x107b (size before relaxing)
 .debug_str     0x0000ec38       0x5d /opt/rtems-4.8/sparc-rtems/leon2/lib/librtemscpu.a(libscore_a-threadqflush.o)
                                0xfc8 (size before relaxing)
 .debug_str     0x0000ec95       0x61 /opt/rtems-4.8/sparc-rtems/leon2/lib/librtemscpu.a(libscore_a-threadqrequeue.o)
                               0x1030 (size before relaxing)
 .debug_str     0x0000ecf6       0x7f /opt/rtems-4.8/sparc-rtems/leon2/lib/librtemscpu.a(libscore_a-threadqtimeout.o)
                               0x10e2 (size before relaxing)
 .debug_str     0x0000ed75       0x58 /opt/rtems-4.8/sparc-rtems/leon2/lib/librtemscpu.a(libscore_a-threadresume.o)
                               0x127f (size before relaxing)
 .debug_str     0x0000edcd       0xb3 /opt/rtems-4.8/sparc-rtems/leon2/lib/librtemscpu.a(libscore_a-threadsetpriority.o)
                               0x1266 (size before relaxing)
 .debug_str     0x0000ee80       0xc0 /opt/rtems-4.8/sparc-rtems/leon2/lib/librtemscpu.a(libscore_a-threadsetstate.o)
                               0x1327 (size before relaxing)
 .debug_str     0x0000ef40       0x6f /opt/rtems-4.8/sparc-rtems/leon2/lib/librtemscpu.a(libscore_a-threadsettransient.o)
                               0x12b8 (size before relaxing)
 .debug_str     0x0000efaf       0x94 /opt/rtems-4.8/sparc-rtems/leon2/lib/librtemscpu.a(libscore_a-threadstackallocate.o)
                               0x12f8 (size before relaxing)
 .debug_str     0x0000f043       0x5f /opt/rtems-4.8/sparc-rtems/leon2/lib/librtemscpu.a(libscore_a-threadstackfree.o)
                               0x12a9 (size before relaxing)
 .debug_str     0x0000f0a2       0x77 /opt/rtems-4.8/sparc-rtems/leon2/lib/librtemscpu.a(libscore_a-threadstart.o)
                               0x11a5 (size before relaxing)
 .debug_str     0x0000f119       0x6f /opt/rtems-4.8/sparc-rtems/leon2/lib/librtemscpu.a(libscore_a-threadstartmultitasking.o)
                               0x11d3 (size before relaxing)
 .debug_str     0x0000f188       0x5a /opt/rtems-4.8/sparc-rtems/leon2/lib/librtemscpu.a(libscore_a-threadsuspend.o)
                               0x1324 (size before relaxing)
 .debug_str     0x0000f1e2       0x6b /opt/rtems-4.8/sparc-rtems/leon2/lib/librtemscpu.a(libscore_a-threadtickletimeslice.o)
                               0x11c5 (size before relaxing)
 .debug_str     0x0000f24d       0x69 /opt/rtems-4.8/sparc-rtems/leon2/lib/librtemscpu.a(libscore_a-threadyieldprocessor.o)
                               0x1274 (size before relaxing)
 .debug_str     0x0000f2b6       0x5b /opt/rtems-4.8/sparc-rtems/leon2/lib/librtemscpu.a(libscore_a-timespecaddto.o)
                                0x383 (size before relaxing)
 .debug_str     0x0000f311       0x67 /opt/rtems-4.8/sparc-rtems/leon2/lib/librtemscpu.a(libscore_a-timespecgreaterthan.o)
                                0x382 (size before relaxing)
 .debug_str     0x0000f378       0x61 /opt/rtems-4.8/sparc-rtems/leon2/lib/librtemscpu.a(libscore_a-timespeclessthan.o)
                                0x37c (size before relaxing)
 .debug_str     0x0000f3d9       0x60 /opt/rtems-4.8/sparc-rtems/leon2/lib/librtemscpu.a(libscore_a-timespecsubtract.o)
                                0x388 (size before relaxing)
 .debug_str     0x0000f439       0xc8 /opt/rtems-4.8/sparc-rtems/leon2/lib/librtemscpu.a(libscore_a-userext.o)
                               0x13ea (size before relaxing)
 .debug_str     0x0000f501       0x63 /opt/rtems-4.8/sparc-rtems/leon2/lib/librtemscpu.a(libscore_a-userextaddset.o)
                               0x123f (size before relaxing)
 .debug_str     0x0000f564       0xa4 /opt/rtems-4.8/sparc-rtems/leon2/lib/librtemscpu.a(libscore_a-userextthreadbegin.o)
                               0x12ff (size before relaxing)
 .debug_str     0x0000f608       0x6f /opt/rtems-4.8/sparc-rtems/leon2/lib/librtemscpu.a(libscore_a-userextthreadcreate.o)
                               0x1296 (size before relaxing)
 .debug_str     0x0000f677       0x6f /opt/rtems-4.8/sparc-rtems/leon2/lib/librtemscpu.a(libscore_a-userextthreaddelete.o)
                               0x128f (size before relaxing)
 .debug_str     0x0000f6e6       0x6d /opt/rtems-4.8/sparc-rtems/leon2/lib/librtemscpu.a(libscore_a-userextthreadstart.o)
                               0x128d (size before relaxing)
 .debug_str     0x0000f753       0x84 /opt/rtems-4.8/sparc-rtems/leon2/lib/librtemscpu.a(libscore_a-userextthreadswitch.o)
                               0x1085 (size before relaxing)
 .debug_str     0x0000f7d7       0x66 /opt/rtems-4.8/sparc-rtems/leon2/lib/librtemscpu.a(libscore_a-watchdog.o)
                                0x428 (size before relaxing)
 .debug_str     0x0000f83d       0xa0 /opt/rtems-4.8/sparc-rtems/leon2/lib/librtemscpu.a(libscore_a-watchdoginsert.o)
                                0x57e (size before relaxing)
 .debug_str     0x0000f8dd       0x79 /opt/rtems-4.8/sparc-rtems/leon2/lib/librtemscpu.a(libscore_a-watchdogremove.o)
                                0x532 (size before relaxing)
 .debug_str     0x0000f956       0x81 /opt/rtems-4.8/sparc-rtems/leon2/lib/librtemscpu.a(libscore_a-watchdogtickle.o)
                                0x4df (size before relaxing)
 .debug_str     0x0000f9d7       0xc6 /opt/rtems-4.8/sparc-rtems/leon2/lib/librtemscpu.a(libscore_a-wkspace.o)
                                0x672 (size before relaxing)
 .debug_str     0x0000fa9d      0x1bb /opt/rtems-4.8/sparc-rtems/leon2/lib/librtemscpu.a(libscorecpu_a-cpu.o)
                                0x4b1 (size before relaxing)
 .debug_str     0x0000fc58       0x90 /opt/rtems-4.8/sparc-rtems/leon2/lib/librtemscpu.a(miniimfs_init.o)
                                0xc97 (size before relaxing)
 .debug_str     0x0000fce8      0x1b5 /opt/rtems-4.8/sparc-rtems/leon2/lib/librtemscpu.a(imfs_eval.o)
                                0xfb7 (size before relaxing)
 .debug_str     0x0000fe9d       0x71 /opt/rtems-4.8/sparc-rtems/leon2/lib/librtemscpu.a(imfs_getchild.o)
                                0xe35 (size before relaxing)
 .debug_str     0x0000ff0e       0x64 /opt/rtems-4.8/sparc-rtems/leon2/lib/librtemscpu.a(imfs_gtkn.o)
                                0x487 (size before relaxing)
 .debug_str     0x0000ff72       0x56 /opt/rtems-4.8/sparc-rtems/leon2/lib/librtemscpu.a(imfs_handlers_device.o)
                                0xc65 (size before relaxing)
 .debug_str     0x0000ffc8       0x54 /opt/rtems-4.8/sparc-rtems/leon2/lib/librtemscpu.a(imfs_handlers_link.o)
                                0xc61 (size before relaxing)
 .debug_str     0x0001001c      0x114 /opt/rtems-4.8/sparc-rtems/leon2/lib/librtemscpu.a(imfs_initsupp.o)
                                0xee6 (size before relaxing)
 .debug_str     0x00010130       0xa3 /opt/rtems-4.8/sparc-rtems/leon2/lib/librtemscpu.a(imfs_mknod.o)
                                0xe81 (size before relaxing)
 .debug_str     0x000101d3       0x5b /opt/rtems-4.8/sparc-rtems/leon2/lib/librtemscpu.a(imfs_ntype.o)
                                0xdb2 (size before relaxing)
 .debug_str     0x0001022e       0x57 /opt/rtems-4.8/sparc-rtems/leon2/lib/librtemscpu.a(imfs_rmnod.o)
                                0xe5b (size before relaxing)
 .debug_str     0x00010285       0x55 /opt/rtems-4.8/sparc-rtems/leon2/lib/librtemscpu.a(imfs_stat.o)
                                0xe2a (size before relaxing)
 .debug_str     0x000102da       0x59 /opt/rtems-4.8/sparc-rtems/leon2/lib/librtemscpu.a(libc_a-inet_ntoa.o)
                                0x425 (size before relaxing)
 .debug_str     0x00010333       0x74 /opt/rtems-4.8/sparc-rtems/leon2/lib/librtemscpu.a(libc_a-inet_ntop.o)
                                0x458 (size before relaxing)
 .debug_str     0x000103a7       0xa1 /opt/rtems-4.8/sparc-rtems/leon2/lib/librtemscpu.a(libcsupport_a-__gettod.o)
                               0x1342 (size before relaxing)
 .debug_str     0x00010448       0x71 /opt/rtems-4.8/sparc-rtems/leon2/lib/librtemscpu.a(libcsupport_a-assoclocalbyremote.o)
                                0x44e (size before relaxing)
 .debug_str     0x000104b9       0x82 /opt/rtems-4.8/sparc-rtems/leon2/lib/librtemscpu.a(libcsupport_a-assoclocalbyremotebitfield.o)
                                0x45f (size before relaxing)
 .debug_str     0x0001053b       0x78 /opt/rtems-4.8/sparc-rtems/leon2/lib/librtemscpu.a(libcsupport_a-assocptrbyremote.o)
                                0x455 (size before relaxing)
 .debug_str     0x000105b3       0x7c /opt/rtems-4.8/sparc-rtems/leon2/lib/librtemscpu.a(libcsupport_a-base_fs.o)
                                0xdf9 (size before relaxing)
 .debug_str     0x0001062f       0xe5 /opt/rtems-4.8/sparc-rtems/leon2/lib/librtemscpu.a(libcsupport_a-error.o)
                               0x1611 (size before relaxing)
 .debug_str     0x00010714       0x53 /opt/rtems-4.8/sparc-rtems/leon2/lib/librtemscpu.a(libcsupport_a-fs_null_handlers.o)
                                0xc6c (size before relaxing)
 .debug_str     0x00010767       0x52 /opt/rtems-4.8/sparc-rtems/leon2/lib/librtemscpu.a(libcsupport_a-getegid.o)
                                0x5e5 (size before relaxing)
 .debug_str     0x000107b9       0x52 /opt/rtems-4.8/sparc-rtems/leon2/lib/librtemscpu.a(libcsupport_a-geteuid.o)
                                0x5e5 (size before relaxing)
 .debug_str     0x0001080b       0x48 /opt/rtems-4.8/sparc-rtems/leon2/lib/librtemscpu.a(libcsupport_a-ioctl.o)
                                0xf35 (size before relaxing)
 .debug_str     0x00010853       0x85 /opt/rtems-4.8/sparc-rtems/leon2/lib/librtemscpu.a(libcsupport_a-libio_sockets.o)
                                0xcaf (size before relaxing)
 .debug_str     0x000108d8       0xbe /opt/rtems-4.8/sparc-rtems/leon2/lib/librtemscpu.a(libcsupport_a-mount.o)
                                0xde7 (size before relaxing)
 .debug_str     0x00010996       0x5b /opt/rtems-4.8/sparc-rtems/leon2/lib/librtemscpu.a(libcsupport_a-newlibc_exit.o)
                               0x12b5 (size before relaxing)
 .debug_str     0x000109f1       0x5a /opt/rtems-4.8/sparc-rtems/leon2/lib/librtemscpu.a(libcsupport_a-open.o)
                               0x104e (size before relaxing)
 .debug_str     0x00010a4b      0x3bb /opt/rtems-4.8/sparc-rtems/leon2/lib/librtemscpu.a(libnetworking_a-if_ether.o)
                               0x1279 (size before relaxing)
 .debug_str     0x00010e06      0x196 /opt/rtems-4.8/sparc-rtems/leon2/lib/librtemscpu.a(libnetworking_a-in.o)
                                0xfc6 (size before relaxing)
 .debug_str     0x00010f9c       0x75 /opt/rtems-4.8/sparc-rtems/leon2/lib/librtemscpu.a(libnetworking_a-in_cksum.o)
                                0x4fa (size before relaxing)
 .debug_str     0x00011011      0x3c2 /opt/rtems-4.8/sparc-rtems/leon2/lib/librtemscpu.a(libnetworking_a-in_pcb.o)
                               0x168a (size before relaxing)
 .debug_str     0x000113d3      0x210 /opt/rtems-4.8/sparc-rtems/leon2/lib/librtemscpu.a(libnetworking_a-in_proto.o)
                               0x1100 (size before relaxing)
 .debug_str     0x000115e3      0x1c1 /opt/rtems-4.8/sparc-rtems/leon2/lib/librtemscpu.a(libnetworking_a-in_rmx.o)
                                0xe52 (size before relaxing)
 .debug_str     0x000117a4      0x3cb /opt/rtems-4.8/sparc-rtems/leon2/lib/librtemscpu.a(libnetworking_a-ip_icmp.o)
                               0x1320 (size before relaxing)
 .debug_str     0x00011b6f       0x8b /opt/rtems-4.8/sparc-rtems/leon2/lib/librtemscpu.a(libnetworking_a-kern_subr.o)
                                0x552 (size before relaxing)
 .debug_str     0x00011bfa       0x8b /opt/rtems-4.8/sparc-rtems/leon2/lib/librtemscpu.a(libnetworking_a-raw_usrreq.o)
                                0xe5f (size before relaxing)
 .debug_str     0x00011c85       0x84 /opt/rtems-4.8/sparc-rtems/leon2/lib/librtemscpu.a(libnetworking_a-rtems_bsdnet_malloc_starvation.o)
                                0x43a (size before relaxing)
 .debug_str     0x00011d09      0x854 /opt/rtems-4.8/sparc-rtems/leon2/lib/librtemscpu.a(libnetworking_a-tcp_input.o)
                               0x1a24 (size before relaxing)
 .debug_str     0x0001255d       0x98 /opt/rtems-4.8/sparc-rtems/leon2/lib/librtemscpu.a(libnetworking_a-tcp_output.o)
                               0x13d2 (size before relaxing)
 .debug_str     0x000125f5      0x1b6 /opt/rtems-4.8/sparc-rtems/leon2/lib/librtemscpu.a(libnetworking_a-tcp_subr.o)
                               0x1ac0 (size before relaxing)
 .debug_str     0x000127ab      0x1a9 /opt/rtems-4.8/sparc-rtems/leon2/lib/librtemscpu.a(libnetworking_a-tcp_timer.o)
                               0x1893 (size before relaxing)
 .debug_str     0x00012954      0x1fd /opt/rtems-4.8/sparc-rtems/leon2/lib/librtemscpu.a(libnetworking_a-tcp_usrreq.o)
                               0x1b24 (size before relaxing)
 .debug_str     0x00012b51      0x2ff /opt/rtems-4.8/sparc-rtems/leon2/lib/librtemscpu.a(libnetworking_a-udp_usrreq.o)
                               0x16ef (size before relaxing)
 .debug_str     0x00012e50      0x1b4 /opt/rtems-4.8/sparc-rtems/leon2/lib/librtemscpu.a(libposix_a-cond.o)
                               0x120e (size before relaxing)
 .debug_str     0x00013004       0x62 /opt/rtems-4.8/sparc-rtems/leon2/lib/librtemscpu.a(libposix_a-key.o)
                               0x11f8 (size before relaxing)
 .debug_str     0x00013066       0x6f /opt/rtems-4.8/sparc-rtems/leon2/lib/librtemscpu.a(libposix_a-mqueue.o)
                               0x1123 (size before relaxing)
 .debug_str     0x000130d5       0x66 /opt/rtems-4.8/sparc-rtems/leon2/lib/librtemscpu.a(libposix_a-mutex.o)
                               0x11ce (size before relaxing)
 .debug_str     0x0001313b       0x6b /opt/rtems-4.8/sparc-rtems/leon2/lib/librtemscpu.a(libposix_a-pbarrier.o)
                               0x10ee (size before relaxing)
 .debug_str     0x000131a6       0x69 /opt/rtems-4.8/sparc-rtems/leon2/lib/librtemscpu.a(libposix_a-prwlock.o)
                               0x10ea (size before relaxing)
 .debug_str     0x0001320f      0x374 /opt/rtems-4.8/sparc-rtems/leon2/lib/librtemscpu.a(libposix_a-psignal.o)
                               0x14b4 (size before relaxing)
 .debug_str     0x00013583       0x90 /opt/rtems-4.8/sparc-rtems/leon2/lib/librtemscpu.a(libposix_a-psignalchecksignal.o)
                               0x1321 (size before relaxing)
 .debug_str     0x00013613       0xc1 /opt/rtems-4.8/sparc-rtems/leon2/lib/librtemscpu.a(libposix_a-psignalclearsignals.o)
                               0x148f (size before relaxing)
 .debug_str     0x000136d4       0x69 /opt/rtems-4.8/sparc-rtems/leon2/lib/librtemscpu.a(libposix_a-pspin.o)
                               0x10ee (size before relaxing)
 .debug_str     0x0001373d      0x206 /opt/rtems-4.8/sparc-rtems/leon2/lib/librtemscpu.a(libposix_a-pthread.o)
                               0x1ab6 (size before relaxing)
 .debug_str     0x00013943       0x75 /opt/rtems-4.8/sparc-rtems/leon2/lib/librtemscpu.a(libposix_a-pthreadexit.o)
                               0x1080 (size before relaxing)
 .debug_str     0x000139b8       0x67 /opt/rtems-4.8/sparc-rtems/leon2/lib/librtemscpu.a(libposix_a-ptimer.o)
                               0x122e (size before relaxing)
 .debug_str     0x00013a1f       0x6e /opt/rtems-4.8/sparc-rtems/leon2/lib/librtemscpu.a(libposix_a-semaphore.o)
                               0x10f5 (size before relaxing)
 .debug_str     0x00013a8d       0x54 /opt/rtems-4.8/sparc-rtems/leon2/lib/librtemscpu.a(libposix_a-sigemptyset.o)
                                0xf8e (size before relaxing)
 .debug_str     0x00013ae1       0x44 /opt/rtems-4.8/sparc-rtems/leon2/lib/librtemscpu.a(librtems_a-barrier.o)
                               0x10a1 (size before relaxing)
 .debug_str     0x00013b25       0x48 /opt/rtems-4.8/sparc-rtems/leon2/lib/librtemscpu.a(librtems_a-barrierdata.o)
                                0xf73 (size before relaxing)
 .debug_str     0x00013b6d       0x6d /opt/rtems-4.8/sparc-rtems/leon2/lib/librtemscpu.a(librtems_a-dpmem.o)
                               0x10b2 (size before relaxing)
 .debug_str     0x00013bda       0x46 /opt/rtems-4.8/sparc-rtems/leon2/lib/librtemscpu.a(librtems_a-dpmemdata.o)
                                0x3b1 (size before relaxing)
 .debug_str     0x00013c20       0x60 /opt/rtems-4.8/sparc-rtems/leon2/lib/librtemscpu.a(librtems_a-event.o)
                               0x100f (size before relaxing)
 .debug_str     0x00013c80       0x46 /opt/rtems-4.8/sparc-rtems/leon2/lib/librtemscpu.a(librtems_a-eventdata.o)
                                0xfdc (size before relaxing)
 .debug_str     0x00013cc6       0x63 /opt/rtems-4.8/sparc-rtems/leon2/lib/librtemscpu.a(librtems_a-intr.o)
                                0x100 (size before relaxing)
 .debug_str     0x00013d29       0x40 /opt/rtems-4.8/sparc-rtems/leon2/lib/librtemscpu.a(librtems_a-msg.o)
                               0x12b1 (size before relaxing)
 .debug_str     0x00013d69       0x44 /opt/rtems-4.8/sparc-rtems/leon2/lib/librtemscpu.a(librtems_a-msgdata.o)
                               0x108f (size before relaxing)
 .debug_str     0x00013dad       0x63 /opt/rtems-4.8/sparc-rtems/leon2/lib/librtemscpu.a(librtems_a-part.o)
                               0x118c (size before relaxing)
 .debug_str     0x00013e10       0x45 /opt/rtems-4.8/sparc-rtems/leon2/lib/librtemscpu.a(librtems_a-partdata.o)
                                0x3a7 (size before relaxing)
 .debug_str     0x00013e55       0x6b /opt/rtems-4.8/sparc-rtems/leon2/lib/librtemscpu.a(librtems_a-ratemon.o)
                               0x10ae (size before relaxing)
 .debug_str     0x00013ec0       0x62 /opt/rtems-4.8/sparc-rtems/leon2/lib/librtemscpu.a(librtems_a-region.o)
                               0x1185 (size before relaxing)
 .debug_str     0x00013f22       0x47 /opt/rtems-4.8/sparc-rtems/leon2/lib/librtemscpu.a(librtems_a-regiondata.o)
                                0xf71 (size before relaxing)
 .debug_str     0x00013f69       0x55 /opt/rtems-4.8/sparc-rtems/leon2/lib/librtemscpu.a(librtems_a-rtemstimer.o)
                               0x10ac (size before relaxing)
 .debug_str     0x00013fbe       0x4b /opt/rtems-4.8/sparc-rtems/leon2/lib/librtemscpu.a(librtems_a-rtemstimerdata.o)
                                0xf82 (size before relaxing)
 .debug_str     0x00014009       0x40 /opt/rtems-4.8/sparc-rtems/leon2/lib/librtemscpu.a(librtems_a-sem.o)
                               0x11a4 (size before relaxing)
 .debug_str     0x00014049       0x62 /opt/rtems-4.8/sparc-rtems/leon2/lib/librtemscpu.a(librtems_a-signal.o)
                                0xf91 (size before relaxing)
 .debug_str     0x000140ab      0x17e /opt/rtems-4.8/sparc-rtems/leon2/lib/librtemscpu.a(librtems_a-tasks.o)
                               0x18cb (size before relaxing)
 .debug_str     0x00014229       0xb5 /opt/rtems-4.8/sparc-rtems/leon2/lib/librtemscpu.a(libsapi_a-debug.o)
                                0x18a (size before relaxing)
 .debug_str     0x000142de       0x79 /opt/rtems-4.8/sparc-rtems/leon2/lib/librtemscpu.a(libsapi_a-exshutdown.o)
                               0x10c9 (size before relaxing)
 .debug_str     0x00014357       0x6b /opt/rtems-4.8/sparc-rtems/leon2/lib/librtemscpu.a(libscore_a-chain.o)
                                0x208 (size before relaxing)
 .debug_str     0x000143c2       0x58 /opt/rtems-4.8/sparc-rtems/leon2/lib/librtemscpu.a(libscore_a-chainextract.o)
                                0x19c (size before relaxing)
 .debug_str     0x0001441a       0x7c /opt/rtems-4.8/sparc-rtems/leon2/lib/librtemscpu.a(libscore_a-heapextend.o)
                                0x469 (size before relaxing)
 .debug_str     0x00014496       0xf9 /opt/rtems-4.8/sparc-rtems/leon2/lib/librtemscpu.a(libscore_a-heapresizeblock.o)
                                0x5fc (size before relaxing)
 .debug_str     0x0001458f       0x67 /opt/rtems-4.8/sparc-rtems/leon2/lib/librtemscpu.a(libscore_a-heapsizeofuserarea.o)
                                0x489 (size before relaxing)
 .debug_str     0x000145f6       0x79 /opt/rtems-4.8/sparc-rtems/leon2/lib/librtemscpu.a(libscore_a-objectcomparenameraw.o)
                               0x1198 (size before relaxing)
 .debug_str     0x0001466f       0x71 /opt/rtems-4.8/sparc-rtems/leon2/lib/librtemscpu.a(libscore_a-objectcomparenamestring.o)
                               0x119e (size before relaxing)
 .debug_str     0x000146e0       0x63 /opt/rtems-4.8/sparc-rtems/leon2/lib/librtemscpu.a(libscore_a-threadloadenv.o)
                               0x11a1 (size before relaxing)
 .debug_str     0x00014743       0x61 /opt/rtems-4.8/sparc-rtems/leon2/lib/librtemscpu.a(libscore_a-threadqextract.o)
                                0xf93 (size before relaxing)
 .debug_str     0x000147a4       0x6a /opt/rtems-4.8/sparc-rtems/leon2/lib/librtemscpu.a(libscore_a-threadqextractfifo.o)
                               0x107e (size before relaxing)
 .debug_str     0x0001480e       0x83 /opt/rtems-4.8/sparc-rtems/leon2/lib/librtemscpu.a(libscore_a-threadqextractpriority.o)
                               0x1119 (size before relaxing)
 .debug_str     0x00014891       0x56 /opt/rtems-4.8/sparc-rtems/leon2/lib/librtemscpu.a(libscore_a-threadready.o)
                               0x12aa (size before relaxing)
 .debug_str     0x000148e7       0x69 /opt/rtems-4.8/sparc-rtems/leon2/lib/librtemscpu.a(libscore_a-threadresettimeslice.o)
                               0x1274 (size before relaxing)
 .debug_str     0x00014950       0x5f /opt/rtems-4.8/sparc-rtems/leon2/lib/librtemscpu.a(libscore_a-timespectoticks.o)
                                0x3a0 (size before relaxing)
 .debug_str     0x000149af       0x6a /opt/rtems-4.8/sparc-rtems/leon2/lib/librtemscpu.a(libscore_a-userextaddapiset.o)
                               0x1236 (size before relaxing)
 .debug_str     0x00014a19       0xbe /opt/rtems-4.8/sparc-rtems/leon2/lib/librtemscpu.a(deviceio.o)
                               0x113f (size before relaxing)
 .debug_str     0x00014ad7       0x4d /opt/rtems-4.8/sparc-rtems/leon2/lib/librtemscpu.a(imfs_config.o)
                                0x4db (size before relaxing)
 .debug_str     0x00014b24       0x71 /opt/rtems-4.8/sparc-rtems/leon2/lib/librtemscpu.a(imfs_creat.o)
                                0xf25 (size before relaxing)
 .debug_str     0x00014b95       0x59 /opt/rtems-4.8/sparc-rtems/leon2/lib/librtemscpu.a(imfs_fchmod.o)
                                0xdd1 (size before relaxing)
 .debug_str     0x00014bee       0x6d /opt/rtems-4.8/sparc-rtems/leon2/lib/librtemscpu.a(libcsupport_a-assocnamebylocal.o)
                                0x44a (size before relaxing)
 .debug_str     0x00014c5b       0x6b /opt/rtems-4.8/sparc-rtems/leon2/lib/librtemscpu.a(libcsupport_a-assocptrbylocal.o)
                                0x453 (size before relaxing)
 .debug_str     0x00014cc6       0x71 /opt/rtems-4.8/sparc-rtems/leon2/lib/librtemscpu.a(libcsupport_a-assocremotebylocal.o)
                                0x44e (size before relaxing)
 .debug_str     0x00014d37       0x56 /opt/rtems-4.8/sparc-rtems/leon2/lib/librtemscpu.a(libcsupport_a-ftruncate.o)
                                0xc80 (size before relaxing)
 .debug_str     0x00014d8d      0x234 /opt/rtems-4.8/sparc-rtems/leon2/lib/librtemscpu.a(libnetworking_a-igmp.o)
                               0x1024 (size before relaxing)
 .debug_str     0x00014fc1       0x8c /opt/rtems-4.8/sparc-rtems/leon2/lib/librtemscpu.a(libnetworking_a-raw_cb.o)
                                0xe5b (size before relaxing)
 .debug_str     0x0001504d       0xd1 /opt/rtems-4.8/sparc-rtems/leon2/lib/librtemscpu.a(libposix_a-keyrundestructors.o)
                               0x118a (size before relaxing)
 .debug_str     0x0001511e       0x7c /opt/rtems-4.8/sparc-rtems/leon2/lib/librtemscpu.a(libposix_a-psignalclearprocesssignals.o)
                               0x1122 (size before relaxing)
 .debug_str     0x0001519a       0xdb /opt/rtems-4.8/sparc-rtems/leon2/lib/librtemscpu.a(librtems_a-taskmode.o)
                               0x167e (size before relaxing)
 .debug_str     0x00015275       0x52 /opt/rtems-4.8/sparc-rtems/leon2/lib/librtemscpu.a(libsapi_a-ioclose.o)
                                0x47e (size before relaxing)
 .debug_str     0x000152c7       0x56 /opt/rtems-4.8/sparc-rtems/leon2/lib/librtemscpu.a(libsapi_a-iocontrol.o)
                                0x482 (size before relaxing)
 .debug_str     0x0001531d       0x50 /opt/rtems-4.8/sparc-rtems/leon2/lib/librtemscpu.a(libsapi_a-ioopen.o)
                                0x47c (size before relaxing)
 .debug_str     0x0001536d       0x50 /opt/rtems-4.8/sparc-rtems/leon2/lib/librtemscpu.a(libsapi_a-ioread.o)
                                0x47c (size before relaxing)
 .debug_str     0x000153bd       0x52 /opt/rtems-4.8/sparc-rtems/leon2/lib/librtemscpu.a(libsapi_a-iowrite.o)
                                0x47e (size before relaxing)
 .debug_str     0x0001540f       0x65 /opt/rtems-4.8/sparc-rtems/leon2/lib/librtemscpu.a(libscore_a-threadevaluatemode.o)
                               0x11be (size before relaxing)
 .debug_str     0x00015474       0x74 /opt/rtems-4.8/sparc-rtems/leon2/lib/librtemscpu.a(libscore_a-threadhandler.o)
                               0x14aa (size before relaxing)
 .debug_str     0x000154e8       0x79 /opt/rtems-4.8/sparc-rtems/leon2/lib/librtemscpu.a(libcsupport_a-assocnamebad.o)
                                0x42f (size before relaxing)
 .debug_str     0x00015561       0xa0 /opt/rtems-4.8-1.1.3/bin/../lib/gcc/sparc-rtems/4.2.4/../../../../sparc-rtems/lib/soft/libc.a(lib_a-abort.o)
                                0x13b (size before relaxing)
 .debug_str     0x00015601       0x68 /opt/rtems-4.8-1.1.3/bin/../lib/gcc/sparc-rtems/4.2.4/../../../../sparc-rtems/lib/soft/libc.a(lib_a-atexit.o)
                                0x161 (size before relaxing)
 .debug_str     0x00015669       0xa4 /opt/rtems-4.8-1.1.3/bin/../lib/gcc/sparc-rtems/4.2.4/../../../../sparc-rtems/lib/soft/libc.a(lib_a-bcmp.o)
                                0x134 (size before relaxing)
 .debug_str     0x0001570d       0xb0 /opt/rtems-4.8-1.1.3/bin/../lib/gcc/sparc-rtems/4.2.4/../../../../sparc-rtems/lib/soft/libc.a(lib_a-ctype_.o)
                                 0xcd (size before relaxing)
 .debug_str     0x000157bd       0xa6 /opt/rtems-4.8-1.1.3/bin/../lib/gcc/sparc-rtems/4.2.4/../../../../sparc-rtems/lib/soft/libc.a(lib_a-errno.o)
                                0x4e5 (size before relaxing)
 .debug_str     0x00015863       0x49 /opt/rtems-4.8-1.1.3/bin/../lib/gcc/sparc-rtems/4.2.4/../../../../sparc-rtems/lib/soft/libc.a(lib_a-exit.o)
                                0x4ef (size before relaxing)
 .debug_str     0x000158ac       0xb5 /opt/rtems-4.8-1.1.3/bin/../lib/gcc/sparc-rtems/4.2.4/../../../../sparc-rtems/lib/soft/libc.a(lib_a-fclose.o)
                                0x4f9 (size before relaxing)
 .debug_str     0x00015961       0x4c /opt/rtems-4.8-1.1.3/bin/../lib/gcc/sparc-rtems/4.2.4/../../../../sparc-rtems/lib/soft/libc.a(lib_a-fflush.o)
                                0x50b (size before relaxing)
 .debug_str     0x000159ad       0x3e /opt/rtems-4.8-1.1.3/bin/../lib/gcc/sparc-rtems/4.2.4/../../../../sparc-rtems/lib/soft/libc.a(lib_a-fileno.o)
                                0x4f1 (size before relaxing)
 .debug_str     0x000159eb       0xf9 /opt/rtems-4.8-1.1.3/bin/../lib/gcc/sparc-rtems/4.2.4/../../../../sparc-rtems/lib/soft/libc.a(lib_a-findfp.o)
                                0x5d7 (size before relaxing)
 .debug_str     0x00015ae4       0x38 /opt/rtems-4.8-1.1.3/bin/../lib/gcc/sparc-rtems/4.2.4/../../../../sparc-rtems/lib/soft/libc.a(lib_a-fprintf.o)
                                0x509 (size before relaxing)
 .debug_str     0x00015b1c       0x5b /opt/rtems-4.8-1.1.3/bin/../lib/gcc/sparc-rtems/4.2.4/../../../../sparc-rtems/lib/soft/libc.a(lib_a-fwalk.o)
                                0x518 (size before relaxing)
 .debug_str     0x00015b77       0xae /opt/rtems-4.8-1.1.3/bin/../lib/gcc/sparc-rtems/4.2.4/../../../../sparc-rtems/lib/soft/libc.a(lib_a-gmtime_r.o)
                                0x190 (size before relaxing)
 .debug_str     0x00015c25       0xab /opt/rtems-4.8-1.1.3/bin/../lib/gcc/sparc-rtems/4.2.4/../../../../sparc-rtems/lib/soft/libc.a(lib_a-impure.o)
                                0x4fd (size before relaxing)
 .debug_str     0x00015cd0       0x3f /opt/rtems-4.8-1.1.3/bin/../lib/gcc/sparc-rtems/4.2.4/../../../../sparc-rtems/lib/soft/libc.a(lib_a-memcmp.o)
                                0x138 (size before relaxing)
 .debug_str     0x00015d0f       0x61 /opt/rtems-4.8-1.1.3/bin/../lib/gcc/sparc-rtems/4.2.4/../../../../sparc-rtems/lib/soft/libc.a(lib_a-memcpy.o)
                                 0xfd (size before relaxing)
 .debug_str     0x00015d70       0x4c /opt/rtems-4.8-1.1.3/bin/../lib/gcc/sparc-rtems/4.2.4/../../../../sparc-rtems/lib/soft/libc.a(lib_a-memset.o)
                                0x14c (size before relaxing)
 .debug_str     0x00015dbc      0x10c /opt/rtems-4.8-1.1.3/bin/../lib/gcc/sparc-rtems/4.2.4/../../../../sparc-rtems/lib/soft/libc.a(lib_a-mktm_r.o)
                                0x27f (size before relaxing)
 .debug_str     0x00015ec8       0x41 /opt/rtems-4.8-1.1.3/bin/../lib/gcc/sparc-rtems/4.2.4/../../../../sparc-rtems/lib/soft/libc.a(lib_a-printf.o)
                                0x518 (size before relaxing)
 .debug_str     0x00015f09       0x4b /opt/rtems-4.8-1.1.3/bin/../lib/gcc/sparc-rtems/4.2.4/../../../../sparc-rtems/lib/soft/libc.a(lib_a-putchar.o)
                                0x4f2 (size before relaxing)
 .debug_str     0x00015f54       0x4b /opt/rtems-4.8-1.1.3/bin/../lib/gcc/sparc-rtems/4.2.4/../../../../sparc-rtems/lib/soft/libc.a(lib_a-puts.o)
                                0x52c (size before relaxing)
 .debug_str     0x00015f9f       0xaf /opt/rtems-4.8-1.1.3/bin/../lib/gcc/sparc-rtems/4.2.4/../../../../sparc-rtems/lib/soft/libc.a(lib_a-raise.o)
                                0x4f4 (size before relaxing)
 .debug_str     0x0001604e       0x70 /opt/rtems-4.8-1.1.3/bin/../lib/gcc/sparc-rtems/4.2.4/../../../../sparc-rtems/lib/soft/libc.a(lib_a-reent.o)
                                0x51c (size before relaxing)
 .debug_str     0x000160be       0x4e /opt/rtems-4.8-1.1.3/bin/../lib/gcc/sparc-rtems/4.2.4/../../../../sparc-rtems/lib/soft/libc.a(lib_a-snprintf.o)
                                0x52f (size before relaxing)
 .debug_str     0x0001610c       0x43 /opt/rtems-4.8-1.1.3/bin/../lib/gcc/sparc-rtems/4.2.4/../../../../sparc-rtems/lib/soft/libc.a(lib_a-sprintf.o)
                                0x520 (size before relaxing)
 .debug_str     0x0001614f       0x5f /opt/rtems-4.8-1.1.3/bin/../lib/gcc/sparc-rtems/4.2.4/../../../../sparc-rtems/lib/soft/libc.a(lib_a-stdio.o)
                                0x520 (size before relaxing)
 .debug_str     0x000161ae       0x3f /opt/rtems-4.8-1.1.3/bin/../lib/gcc/sparc-rtems/4.2.4/../../../../sparc-rtems/lib/soft/libc.a(lib_a-strchr.o)
                                0x143 (size before relaxing)
 .debug_str     0x000161ed       0x3f /opt/rtems-4.8-1.1.3/bin/../lib/gcc/sparc-rtems/4.2.4/../../../../sparc-rtems/lib/soft/libc.a(lib_a-strcmp.o)
                                0x131 (size before relaxing)
 .debug_str     0x0001622c       0x3f /opt/rtems-4.8-1.1.3/bin/../lib/gcc/sparc-rtems/4.2.4/../../../../sparc-rtems/lib/soft/libc.a(lib_a-strcpy.o)
                                0x153 (size before relaxing)
 .debug_str     0x0001626b       0x3f /opt/rtems-4.8-1.1.3/bin/../lib/gcc/sparc-rtems/4.2.4/../../../../sparc-rtems/lib/soft/libc.a(lib_a-strdup.o)
                                0x4e7 (size before relaxing)
 .debug_str     0x000162aa       0x4e /opt/rtems-4.8-1.1.3/bin/../lib/gcc/sparc-rtems/4.2.4/../../../../sparc-rtems/lib/soft/libc.a(lib_a-strdup_r.o)
                                0x4f6 (size before relaxing)
 .debug_str     0x000162f8       0x3a /opt/rtems-4.8-1.1.3/bin/../lib/gcc/sparc-rtems/4.2.4/../../../../sparc-rtems/lib/soft/libc.a(lib_a-strerror.o)
                                0x142 (size before relaxing)
 .debug_str     0x00016332       0x41 /opt/rtems-4.8-1.1.3/bin/../lib/gcc/sparc-rtems/4.2.4/../../../../sparc-rtems/lib/soft/libc.a(lib_a-strlcpy.o)
                                0x146 (size before relaxing)
 .debug_str     0x00016373       0x3f /opt/rtems-4.8-1.1.3/bin/../lib/gcc/sparc-rtems/4.2.4/../../../../sparc-rtems/lib/soft/libc.a(lib_a-strlen.o)
                                0x14b (size before relaxing)
 .debug_str     0x000163b2       0x41 /opt/rtems-4.8-1.1.3/bin/../lib/gcc/sparc-rtems/4.2.4/../../../../sparc-rtems/lib/soft/libc.a(lib_a-strncmp.o)
                                0x13a (size before relaxing)
 .debug_str     0x000163f3       0x41 /opt/rtems-4.8-1.1.3/bin/../lib/gcc/sparc-rtems/4.2.4/../../../../sparc-rtems/lib/soft/libc.a(lib_a-strncpy.o)
                                0x162 (size before relaxing)
 .debug_str     0x00016434       0x5d /opt/rtems-4.8-1.1.3/bin/../lib/gcc/sparc-rtems/4.2.4/../../../../sparc-rtems/lib/soft/libc.a(lib_a-tzlock.o)
                                0x159 (size before relaxing)
 .debug_str     0x00016491       0x48 /opt/rtems-4.8-1.1.3/bin/../lib/gcc/sparc-rtems/4.2.4/../../../../sparc-rtems/lib/soft/libc.a(lib_a-tzvars.o)
                                0x14e (size before relaxing)
 .debug_str     0x000164d9       0x49 /opt/rtems-4.8-1.1.3/bin/../lib/gcc/sparc-rtems/4.2.4/../../../../sparc-rtems/lib/soft/libc.a(lib_a-u_strerr.o)
                                 0xca (size before relaxing)
 .debug_str     0x00016522      0x14f /opt/rtems-4.8-1.1.3/bin/../lib/gcc/sparc-rtems/4.2.4/../../../../sparc-rtems/lib/soft/libc.a(lib_a-vfprintf.o)
                                0x6f3 (size before relaxing)
 .debug_str     0x00016671       0x4b /opt/rtems-4.8-1.1.3/bin/../lib/gcc/sparc-rtems/4.2.4/../../../../sparc-rtems/lib/soft/libc.a(lib_a-vprintf.o)
                                0x51b (size before relaxing)
 .debug_str     0x000166bc       0x4c /opt/rtems-4.8-1.1.3/bin/../lib/gcc/sparc-rtems/4.2.4/../../../../sparc-rtems/lib/soft/libc.a(lib_a-wcrtomb.o)
                                0x514 (size before relaxing)
 .debug_str     0x00016708       0x5c /opt/rtems-4.8-1.1.3/bin/../lib/gcc/sparc-rtems/4.2.4/../../../../sparc-rtems/lib/soft/libc.a(lib_a-wcsrtombs.o)
                                0x529 (size before relaxing)
 .debug_str     0x00016764       0x61 /opt/rtems-4.8-1.1.3/bin/../lib/gcc/sparc-rtems/4.2.4/../../../../sparc-rtems/lib/soft/libc.a(lib_a-wctomb_r.o)
                                0x509 (size before relaxing)
 .debug_str     0x000167c5       0x41 /opt/rtems-4.8-1.1.3/bin/../lib/gcc/sparc-rtems/4.2.4/../../../../sparc-rtems/lib/soft/libc.a(lib_a-wsetup.o)
                                0x4ed (size before relaxing)
 .debug_str     0x00016806       0x4e /opt/rtems-4.8-1.1.3/bin/../lib/gcc/sparc-rtems/4.2.4/../../../../sparc-rtems/lib/soft/libc.a(lib_a-__atexit.o)
                                0x537 (size before relaxing)
 .debug_str     0x00016854       0x56 /opt/rtems-4.8-1.1.3/bin/../lib/gcc/sparc-rtems/4.2.4/../../../../sparc-rtems/lib/soft/libc.a(lib_a-__call_atexit.o)
                                0x50f (size before relaxing)
 .debug_str     0x000168aa       0xf3 /opt/rtems-4.8-1.1.3/bin/../lib/gcc/sparc-rtems/4.2.4/../../../../sparc-rtems/lib/soft/libc.a(lib_a-dtoa.o)
                                0x5e4 (size before relaxing)
 .debug_str     0x0001699d       0x63 /opt/rtems-4.8-1.1.3/bin/../lib/gcc/sparc-rtems/4.2.4/../../../../sparc-rtems/lib/soft/libc.a(lib_a-fvwrite.o)
                                0x552 (size before relaxing)
 .debug_str     0x00016a00       0x45 /opt/rtems-4.8-1.1.3/bin/../lib/gcc/sparc-rtems/4.2.4/../../../../sparc-rtems/lib/soft/libc.a(lib_a-gettzinfo.o)
                                0x1b5 (size before relaxing)
 .debug_str     0x00016a45      0x1f4 /opt/rtems-4.8-1.1.3/bin/../lib/gcc/sparc-rtems/4.2.4/../../../../sparc-rtems/lib/soft/libc.a(lib_a-locale.o)
                                0x68c (size before relaxing)
 .debug_str     0x00016c39       0x4e /opt/rtems-4.8-1.1.3/bin/../lib/gcc/sparc-rtems/4.2.4/../../../../sparc-rtems/lib/soft/libc.a(lib_a-makebuf.o)
                                0x5d4 (size before relaxing)
 .debug_str     0x00016c87       0x4d /opt/rtems-4.8-1.1.3/bin/../lib/gcc/sparc-rtems/4.2.4/../../../../sparc-rtems/lib/soft/libc.a(lib_a-memchr.o)
                                0x159 (size before relaxing)
 .debug_str     0x00016cd4       0x4a /opt/rtems-4.8-1.1.3/bin/../lib/gcc/sparc-rtems/4.2.4/../../../../sparc-rtems/lib/soft/libc.a(lib_a-memmove.o)
                                0x16b (size before relaxing)
 .debug_str     0x00016d1e       0xf5 /opt/rtems-4.8-1.1.3/bin/../lib/gcc/sparc-rtems/4.2.4/../../../../sparc-rtems/lib/soft/libc.a(lib_a-mprec.o)
                                0x5f1 (size before relaxing)
 .debug_str     0x00016e13       0x42 /opt/rtems-4.8-1.1.3/bin/../lib/gcc/sparc-rtems/4.2.4/../../../../sparc-rtems/lib/soft/libc.a(lib_a-putc.o)
                                0x4f5 (size before relaxing)
 .debug_str     0x00016e55       0xb6 /opt/rtems-4.8-1.1.3/bin/../lib/gcc/sparc-rtems/4.2.4/../../../../sparc-rtems/lib/soft/libc.a(lib_a-s_isinfd.o)
                                0x164 (size before relaxing)
 .debug_str     0x00016f0b       0x43 /opt/rtems-4.8-1.1.3/bin/../lib/gcc/sparc-rtems/4.2.4/../../../../sparc-rtems/lib/soft/libc.a(lib_a-s_isnand.o)
                                0x164 (size before relaxing)
 .debug_str     0x00016f4e       0x47 /opt/rtems-4.8-1.1.3/bin/../lib/gcc/sparc-rtems/4.2.4/../../../../sparc-rtems/lib/soft/libc.a(lib_a-wbuf.o)
                                0x4f3 (size before relaxing)
 .debug_str     0x00016f95       0x17 /opt/rtems-4.8-1.1.3/bin/../lib/gcc/sparc-rtems/4.2.4/soft/libgcc.a(_udivdi3.o)
                                0x176 (size before relaxing)
 .debug_str     0x00016fac        0xa /opt/rtems-4.8-1.1.3/bin/../lib/gcc/sparc-rtems/4.2.4/soft/libgcc.a(_umoddi3.o)
                                0x176 (size before relaxing)
 .debug_str     0x00016fb6       0x67 /opt/rtems-4.8-1.1.3/bin/../lib/gcc/sparc-rtems/4.2.4/soft/libgcc.a(_addsub_df.o)
                                0x231 (size before relaxing)
 .debug_str     0x0001701d       0x35 /opt/rtems-4.8-1.1.3/bin/../lib/gcc/sparc-rtems/4.2.4/soft/libgcc.a(_div_df.o)
                                0x1f3 (size before relaxing)
 .debug_str     0x00017052       0x10 /opt/rtems-4.8-1.1.3/bin/../lib/gcc/sparc-rtems/4.2.4/soft/libgcc.a(_eq_df.o)
                                0x1c1 (size before relaxing)
 .debug_str     0x00017062        0x8 /opt/rtems-4.8-1.1.3/bin/../lib/gcc/sparc-rtems/4.2.4/soft/libgcc.a(_ne_df.o)
                                0x1c1 (size before relaxing)
 .debug_str     0x0001706a        0x8 /opt/rtems-4.8-1.1.3/bin/../lib/gcc/sparc-rtems/4.2.4/soft/libgcc.a(_gt_df.o)
                                0x1c1 (size before relaxing)
 .debug_str     0x00017072        0x8 /opt/rtems-4.8-1.1.3/bin/../lib/gcc/sparc-rtems/4.2.4/soft/libgcc.a(_ge_df.o)
                                0x1c1 (size before relaxing)
 .debug_str     0x0001707a        0x8 /opt/rtems-4.8-1.1.3/bin/../lib/gcc/sparc-rtems/4.2.4/soft/libgcc.a(_lt_df.o)
                                0x1c1 (size before relaxing)
 .debug_str     0x00017082       0x11 /opt/rtems-4.8-1.1.3/bin/../lib/gcc/sparc-rtems/4.2.4/soft/libgcc.a(_si_to_df.o)
                                0x1a5 (size before relaxing)
 .debug_str     0x00017093        0xa /opt/rtems-4.8-1.1.3/bin/../lib/gcc/sparc-rtems/4.2.4/soft/libgcc.a(_df_to_si.o)
                                0x1c9 (size before relaxing)
 .debug_str     0x0001709d       0x10 /opt/rtems-4.8-1.1.3/bin/../lib/gcc/sparc-rtems/4.2.4/soft/libgcc.a(_fpcmp_parts_df.o)
                                0x18d (size before relaxing)
 .debug_str     0x000170ad      0x3d7 /opt/rtems-4.8/sparc-rtems/leon2/lib/librtemsbsp.a(cache.rel)
                                0xf00 (size before relaxing)
 .debug_str     0x00017484       0x35 /opt/rtems-4.8/sparc-rtems/leon2/lib/librtemsbsp.a(libsupport_a-version.o)
                                 0xe6 (size before relaxing)
 .debug_str     0x000174b9       0x51 /opt/rtems-4.8/sparc-rtems/leon2/lib/librtemscpu.a(libcsupport_a-fstat.o)
                               0x1014 (size before relaxing)
 .debug_str     0x0001750a       0x5a /opt/rtems-4.8/sparc-rtems/leon2/lib/librtemscpu.a(libcsupport_a-getpid.o)
                                0x6cc (size before relaxing)
 .debug_str     0x00017564       0x50 /opt/rtems-4.8/sparc-rtems/leon2/lib/librtemscpu.a(libcsupport_a-isatty.o)
                                0x1b3 (size before relaxing)
 .debug_str     0x000175b4       0x5c /opt/rtems-4.8/sparc-rtems/leon2/lib/librtemscpu.a(libcsupport_a-lseek.o)
                               0x1028 (size before relaxing)
 .debug_str     0x00017610       0x4f /opt/rtems-4.8/sparc-rtems/leon2/lib/librtemscpu.a(libcsupport_a-read.o)
                               0x1020 (size before relaxing)
 .debug_str     0x0001765f       0x53 /opt/rtems-4.8/sparc-rtems/leon2/lib/librtemscpu.a(libcsupport_a-write_r.o)
                                0x7ae (size before relaxing)
 .debug_str     0x000176b2       0x49 /opt/rtems-4.8/sparc-rtems/leon2/lib/librtemscpu.a(libposix_a-kill.o)
                                0xf85 (size before relaxing)
 .debug_str     0x000176fb       0xa9 /opt/rtems-4.8/sparc-rtems/leon2/lib/librtemscpu.a(libposix_a-killinfo.o)
                               0x1401 (size before relaxing)
 .debug_str     0x000177a4       0x78 /opt/rtems-4.8/sparc-rtems/leon2/lib/librtemscpu.a(libposix_a-psignalsetprocesssignals.o)
                               0x111e (size before relaxing)
 .debug_str     0x0001781c       0x83 /opt/rtems-4.8/sparc-rtems/leon2/lib/librtemscpu.a(libposix_a-psignalunblockthread.o)
                               0x1399 (size before relaxing)
 .debug_str     0x0001789f       0x72 /opt/rtems-4.8/sparc-rtems/leon2/lib/librtemscpu.a(libposix_a-pthreadkill.o)
                               0x1311 (size before relaxing)
 .debug_str     0x00017911       0x55 /opt/rtems-4.8/sparc-rtems/leon2/lib/librtemscpu.a(libposix_a-pthreadself.o)
                                0xf80 (size before relaxing)
 .debug_str     0x00017966       0x86 /opt/rtems-4.8/sparc-rtems/leon2/lib/librtemscpu.a(libposix_a-types.o)
                                0x354 (size before relaxing)
 .debug_str     0x000179ec       0x48 /opt/rtems-4.8/sparc-rtems/leon2/lib/librtemscpu.a(libcsupport_a-write.o)
                                0xc7e (size before relaxing)
